 voxel-test-3

 Timestamp is 53e7b2c5 (Sun Aug 10 13:58:29 2014)

 Preferred load address is 00400000

 Start         Length     Name                   Class
 0001:00000000 000aa2f2H .text                   CODE
 0001:000aa300 00006c6bH .text$x                 CODE
 0001:000b0f70 00000e81H .text$yc                CODE
 0001:000b1e00 000006b7H .text$yd                CODE
 0002:00000000 0000044cH .idata$5                DATA
 0002:0000044c 00000004H .CRT$XCA                DATA
 0002:00000450 00000034H .CRT$XCC                DATA
 0002:00000484 00000008H .CRT$XCL                DATA
 0002:0000048c 0000025cH .CRT$XCU                DATA
 0002:000006e8 00000004H .CRT$XCZ                DATA
 0002:000006ec 00000004H .CRT$XIA                DATA
 0002:000006f0 00000014H .CRT$XIC                DATA
 0002:00000704 00000004H .CRT$XIU                DATA
 0002:00000708 00000004H .CRT$XIY                DATA
 0002:0000070c 00000004H .CRT$XIZ                DATA
 0002:00000710 00000004H .CRT$XLA                DATA
 0002:00000714 00000004H .CRT$XLC                DATA
 0002:00000718 00000004H .CRT$XLZ                DATA
 0002:0000071c 00000004H .CRT$XPA                DATA
 0002:00000720 00000004H .CRT$XPB                DATA
 0002:00000724 00000008H .CRT$XPX                DATA
 0002:0000072c 00000004H .CRT$XPXA               DATA
 0002:00000730 00000004H .CRT$XPZ                DATA
 0002:00000734 00000004H .CRT$XTA                DATA
 0002:00000738 00000004H .CRT$XTU                DATA
 0002:0000073c 00000004H .CRT$XTZ                DATA
 0002:00000740 00027a48H .rdata                  DATA
 0002:00028188 00000018H .rdata$T                DATA
 0002:000281a0 000053a0H .rdata$r                DATA
 0002:0002d540 00000758H .rdata$sxdata           DATA
 0002:0002dc98 00000004H .rtc$IAA                DATA
 0002:0002dc9c 00000004H .rtc$IZZ                DATA
 0002:0002dca0 00000004H .rtc$TAA                DATA
 0002:0002dca4 00000004H .rtc$TZZ                DATA
 0002:0002dca8 00009204H .xdata$x                DATA
 0002:00036eac 000000b4H .idata$2                DATA
 0002:00036f60 00000014H .idata$3                DATA
 0002:00036f74 0000044cH .idata$4                DATA
 0002:000373c0 00001392H .idata$6                DATA
 0002:00038752 00000000H .edata                  DATA
 0003:00000000 00012670H .data                   DATA
 0003:00012680 000051c4H .bss                    DATA
 0004:00000000 00000001H .tls                    DATA
 0004:00000001 00000001H .tls$ZZZ                DATA
 0005:00000000 00000058H .rsrc$01                DATA
 0005:00000060 00000180H .rsrc$02                DATA

  Address         Publics by Value              Rva+Base       Lib:Object

 0000:00000000       __except_list              00000000     <absolute>
 0000:000001d6       ___safe_se_handler_count   000001d6     <absolute>
 0000:00000000       ___ImageBase               00400000     <linker-defined>
 0001:00000000       ?update@App@app@cinder@@UAEXXZ 00401000 f i cinder:AppBasic.obj
 0001:00000000       ?resize@App@app@cinder@@UAEXXZ 00401000 f i cinder:AppBasic.obj
 0001:00000000       ?startDraw@Renderer@app@cinder@@UAEXXZ 00401000 f i cinder:Renderer.obj
 0001:00000000       ?on_process_enter@boost@@YAXXZ 00401000 f i libboost_thread-vc110-mt-s-1_53:thread.obj
 0001:00000000       ??1?$service_id@Vwin_iocp_io_service@detail@asio@boost@@@detail@asio@boost@@QAE@XZ 00401000 f i cinder:App.obj
 0001:00000000       ?finalize@ImageTarget@cinder@@UAEXXZ 00401000 f i cinder:Surface.obj
 0001:00000000       ?draw@App@app@cinder@@UAEXXZ 00401000 f i cinder:AppBasic.obj
 0001:00000000       ?makeCurrentContext@Renderer@app@cinder@@UAEXXZ 00401000 f i cinder:Renderer.obj
 0001:00000000       ?tss_cleanup_implemented@boost@@YAXXZ 00401000 f i libboost_thread-vc110-mt-s-1_53:tss_pe.obj
 0001:00000000       ??1?$service_id@Vselect_reactor@detail@asio@boost@@@detail@asio@boost@@QAE@XZ 00401000 f i cinder:App.obj
 0001:00000000       ??3@YAXPAX0@Z              00401000 f i CinderApp.obj
 0001:00000000       ??1?$service_id@Vstrand_service@detail@asio@boost@@@detail@asio@boost@@QAE@XZ 00401000 f i cinder:App.obj
 0001:00000000       ?finishToggleFullScreen@Renderer@app@cinder@@UAEXXZ 00401000 f i cinder:Renderer.obj
 0001:00000000       ?cleanupLaunch@App@app@cinder@@KAXXZ 00401000 f i cinder:App.obj
 0001:00000000       ?finishDraw@Renderer@app@cinder@@UAEXXZ 00401000 f i cinder:Renderer.obj
 0001:00000000       ?kill@Renderer@app@cinder@@UAEXXZ 00401000 f i cinder:Renderer.obj
 0001:00000000       ?prepareLaunch@App@app@cinder@@KAXXZ 00401000 f i cinder:App.obj
 0001:00000000       ?_Destroy@?$_Ref_count_del@V?$basic_ostream@DU?$char_traits@D@std@@@std@@V<lambda_69588d13dcacf0fdf4c116f96accf98f>@@@std@@EAEXXZ 00401000 f i cinder:AppBasic.obj
 0001:00000000       ?prepareToggleFullScreen@Renderer@app@cinder@@UAEXXZ 00401000 f i cinder:Renderer.obj
 0001:00000000       ?_Add_vtordisp2@?$basic_ostream@DU?$char_traits@D@std@@@std@@UAEXXZ 00401000 f i CinderApp.obj
 0001:00000000       ?_Lock@?$basic_streambuf@DU?$char_traits@D@std@@@std@@UAEXXZ 00401000 f i CinderApp.obj
 0001:00000000       ?run@externally_launched_thread@?A0x6231255e@boost@@UAEXXZ 00401000 f i libboost_thread-vc110-mt-s-1_53:thread.obj
 0001:00000000       ?_Unlock@?$basic_streambuf@DU?$char_traits@D@std@@@std@@UAEXXZ 00401000 f i CinderApp.obj
 0001:00000000       ?update@CinderApp@@UAEXXZ  00401000 f i CinderApp.obj
 0001:00000000       ?loopStart@TimelineItem@cinder@@UAEXXZ 00401000 f i cinder:Timeline.obj
 0001:00000000       ?sp_enable_shared_from_this@detail@boost@@YAXZZ 00401000 f i cinder:Window.obj
 0001:00000000       ?defaultResize@Renderer@app@cinder@@UAEXXZ 00401000 f i cinder:Renderer.obj
 0001:00000000       ?_Add_vtordisp2@?$basic_ios@DU?$char_traits@D@std@@@std@@UAEXXZ 00401000 f i CinderApp.obj
 0001:00000000       ?_Add_vtordisp1@?$basic_ios@DU?$char_traits@D@std@@@std@@UAEXXZ 00401000 f i CinderApp.obj
 0001:00000000       ?shutdown@App@app@cinder@@UAEXXZ 00401000 f i cinder:AppBasic.obj
 0001:00000000       ?setup@App@app@cinder@@UAEXXZ 00401000 f i cinder:AppBasic.obj
 0001:00000010       ?copy@?$char_traits@_W@std@@SAPA_WPA_WPB_WI@Z 00401010 f i CinderApp.obj
 0001:00000030       ?move@?$char_traits@_W@std@@SAPA_WPA_WPB_WI@Z 00401030 f i CinderApp.obj
 0001:00000050       ?compare@?$char_traits@D@std@@SAHPBD0I@Z 00401050 f i CinderApp.obj
 0001:000000c0       ??_ETextureDataExc@gl@cinder@@UAEPAXI@Z 004010c0 f i cinder:Texture.obj
 0001:000000c0       ??_Eruntime_error@std@@UAEPAXI@Z 004010c0 f i * CIL library *:* CIL module *
 0001:000000c0       ??_Gfailure@ios_base@std@@UAEPAXI@Z 004010c0 f i CinderApp.obj
 0001:000000c0       ??_GGlslProgCompileExc@gl@cinder@@UAEPAXI@Z 004010c0 f i cinder:GlslProg.obj
 0001:000000c0       ??_EGlslProgCompileExc@gl@cinder@@UAEPAXI@Z 004010c0 f i cinder:GlslProg.obj
 0001:000000c0       ??_ESurfaceConstraintsExc@cinder@@UAEPAXI@Z 004010c0 f i cinder:CinderMswGdiPlus.obj
 0001:000000c0       ??_ESurfaceExc@cinder@@UAEPAXI@Z 004010c0 f i cinder:CinderMswGdiPlus.obj
 0001:000000c0       ??_Efailure@ios_base@std@@UAEPAXI@Z 004010c0 f i * CIL library *:* CIL module *
 0001:000000c0       ??_Ebad_function_call@boost@@UAEPAXI@Z 004010c0 f i cinder:Window.obj
 0001:000000c0       ??_GSurfaceConstraintsExc@cinder@@UAEPAXI@Z 004010c0 f i cinder:CinderMswGdiPlus.obj
 0001:000000c0       ??_Esystem_error@std@@UAEPAXI@Z 004010c0 f i * CIL library *:* CIL module *
 0001:000000c0       ??_GTextureDataExc@gl@cinder@@UAEPAXI@Z 004010c0 f i cinder:Texture.obj
 0001:000000c0       ??_Gruntime_error@std@@UAEPAXI@Z 004010c0 f i CinderApp.obj
 0001:000000c0       ??_GSurfaceExc@cinder@@UAEPAXI@Z 004010c0 f i cinder:CinderMswGdiPlus.obj
 0001:000000c0       ??_Gsystem_error@std@@UAEPAXI@Z 004010c0 f i CinderApp.obj
 0001:000000c0       ??_Gbad_function_call@boost@@UAEPAXI@Z 004010c0 f i cinder:Window.obj
 0001:000000f0       ??1SurfaceConstraintsExc@cinder@@UAE@XZ 004010f0 f i cinder:CinderMswGdiPlus.obj
 0001:000000f0       ??1TextureDataExc@gl@cinder@@UAE@XZ 004010f0 f i cinder:Texture.obj
 0001:000000f0       ??1GlslProgCompileExc@gl@cinder@@UAE@XZ 004010f0 f i cinder:GlslProg.obj
 0001:000000f0       ??1runtime_error@std@@UAE@XZ 004010f0 f i CinderApp.obj
 0001:000000f0       ??1bad_function_call@boost@@UAE@XZ 004010f0 f i cinder:Window.obj
 0001:000000f0       ??1failure@ios_base@std@@UAE@XZ 004010f0 f i CinderApp.obj
 0001:00000100       ??0_Locinfo@std@@QAE@PBD@Z 00401100 f i CinderApp.obj
 0001:000001c0       ??1_Locinfo@std@@QAE@XZ    004011c0 f i CinderApp.obj
 0001:00000260       ??0runtime_error@std@@QAE@ABV01@@Z 00401260 f i CinderApp.obj
 0001:00000280       ??_E?$num_put@DV?$ostreambuf_iterator@DU?$char_traits@D@std@@@std@@@std@@MAEPAXI@Z 00401280 f i * CIL library *:* CIL module *
 0001:00000280       ??_G?$num_get@DV?$istreambuf_iterator@DU?$char_traits@D@std@@@std@@@std@@MAEPAXI@Z 00401280 f i cinder:ObjLoader.obj
 0001:00000280       ??_E_Facet_base@std@@UAEPAXI@Z 00401280 f i * CIL library *:* CIL module *
 0001:00000280       ??_G_Facet_base@std@@UAEPAXI@Z 00401280 f i CinderApp.obj
 0001:00000280       ??_G?$num_put@DV?$ostreambuf_iterator@DU?$char_traits@D@std@@@std@@@std@@MAEPAXI@Z 00401280 f i CinderApp.obj
 0001:00000280       ??_E?$num_get@DV?$istreambuf_iterator@DU?$char_traits@D@std@@@std@@@std@@MAEPAXI@Z 00401280 f i cinder:ObjLoader.obj
 0001:000002b0       ??Bid@locale@std@@QAEIXZ   004012b0 f i CinderApp.obj
 0001:000002f0       ?_Incref@facet@locale@std@@UAEXXZ 004012f0 f i CinderApp.obj
 0001:00000300       ?_Decref@facet@locale@std@@UAEPAV_Facet_base@3@XZ 00401300 f i CinderApp.obj
 0001:00000320       ??1facet@locale@std@@MAE@XZ 00401320 f i CinderApp.obj
 0001:00000330       ??1locale@std@@QAE@XZ      00401330 f i CinderApp.obj
 0001:00000350       ?c_str@locale@std@@QBEPBDXZ 00401350 f i CinderApp.obj
 0001:00000370       ?_Getfacet@locale@std@@QBEPBVfacet@12@I@Z 00401370 f i CinderApp.obj
 0001:000003b0       ??0?$ctype@D@std@@QAE@ABV_Locinfo@1@I@Z 004013b0 f i CinderApp.obj
 0001:000003f0       ?_Getcat@?$ctype@D@std@@SAIPAPBVfacet@locale@2@PBV42@@Z 004013f0 f i CinderApp.obj
 0001:000004c0       ?do_tolower@?$ctype@D@std@@MBEDD@Z 004014c0 f i CinderApp.obj
 0001:000004e0       ?do_tolower@?$ctype@D@std@@MBEPBDPADPBD@Z 004014e0 f i CinderApp.obj
 0001:00000510       ?do_toupper@?$ctype@D@std@@MBEDD@Z 00401510 f i CinderApp.obj
 0001:00000530       ?do_toupper@?$ctype@D@std@@MBEPBDPADPBD@Z 00401530 f i CinderApp.obj
 0001:00000560       ?do_widen@?$ctype@D@std@@MBEDD@Z 00401560 f i CinderApp.obj
 0001:00000570       ?do_widen@?$ctype@D@std@@MBEPBDPBD0PAD@Z 00401570 f i CinderApp.obj
 0001:00000590       ?do_narrow@?$ctype@D@std@@MBEDDD@Z 00401590 f i CinderApp.obj
 0001:000005a0       ?do_narrow@?$ctype@D@std@@MBEPBDPBD0DPAD@Z 004015a0 f i CinderApp.obj
 0001:000005c0       ??_E?$ctype@D@std@@MAEPAXI@Z 004015c0 f i * CIL library *:* CIL module *
 0001:000005c0       ??_G?$ctype@D@std@@MAEPAXI@Z 004015c0 f i CinderApp.obj
 0001:00000620       ??_E_Iostream_error_category@std@@UAEPAXI@Z 00401620 f i * CIL library *:* CIL module *
 0001:00000620       ??_Gerror_category@std@@UAEPAXI@Z 00401620 f i CinderApp.obj
 0001:00000620       ??_G_System_error_category@std@@UAEPAXI@Z 00401620 f i CinderApp.obj
 0001:00000620       ??_G_Future_error_category@std@@UAEPAXI@Z 00401620 f i CinderApp.obj
 0001:00000620       ??_G_Generic_error_category@std@@UAEPAXI@Z 00401620 f i CinderApp.obj
 0001:00000620       ??_E_System_error_category@std@@UAEPAXI@Z 00401620 f i * CIL library *:* CIL module *
 0001:00000620       ??_G_Iostream_error_category@std@@UAEPAXI@Z 00401620 f i CinderApp.obj
 0001:00000620       ??_E_Future_error_category@std@@UAEPAXI@Z 00401620 f i * CIL library *:* CIL module *
 0001:00000620       ??_E_Generic_error_category@std@@UAEPAXI@Z 00401620 f i * CIL library *:* CIL module *
 0001:00000620       ??_Eerror_category@std@@UAEPAXI@Z 00401620 f i * CIL library *:* CIL module *
 0001:00000650       ?default_error_condition@error_category@system@boost@@UBE?AVerror_condition@23@H@Z 00401650 f i cinder:App.obj
 0001:00000650       ?default_error_condition@error_category@std@@UBE?AVerror_condition@2@H@Z 00401650 f i CinderApp.obj
 0001:00000670       ?equivalent@error_category@std@@UBE_NHABVerror_condition@2@@Z 00401670 f i CinderApp.obj
 0001:00000670       ?equivalent@error_category@system@boost@@UBE_NHABVerror_condition@23@@Z 00401670 f i cinder:App.obj
 0001:000006b0       ?equivalent@error_category@system@boost@@UBE_NABVerror_code@23@H@Z 004016b0 f i cinder:App.obj
 0001:000006b0       ?equivalent@error_category@std@@UBE_NABVerror_code@2@H@Z 004016b0 f i CinderApp.obj
 0001:000006d0       ?name@generic_error_category@?A0xba8a6edf@@UBEPBDXZ 004016d0 f i libboost_system-vc110-mt-s-1_53:error_code.obj
 0001:000006d0       ?name@_Generic_error_category@std@@UBEPBDXZ 004016d0 f i CinderApp.obj
 0001:000006e0       ?message@_Generic_error_category@std@@UBE?AV?$basic_string@DU?$char_traits@D@std@@V?$allocator@D@2@@2@H@Z 004016e0 f i CinderApp.obj
 0001:00000750       ?name@_Iostream_error_category@std@@UBEPBDXZ 00401750 f i CinderApp.obj
 0001:00000760       ?message@_Iostream_error_category@std@@UBE?AV?$basic_string@DU?$char_traits@D@std@@V?$allocator@D@2@@2@H@Z 00401760 f i CinderApp.obj
 0001:000007b0       ?name@system_error_category@?A0xba8a6edf@@UBEPBDXZ 004017b0 f i libboost_system-vc110-mt-s-1_53:error_code.obj
 0001:000007b0       ?name@_System_error_category@std@@UBEPBDXZ 004017b0 f i CinderApp.obj
 0001:000007c0       ?message@_System_error_category@std@@UBE?AV?$basic_string@DU?$char_traits@D@std@@V?$allocator@D@2@@2@H@Z 004017c0 f i CinderApp.obj
 0001:00000830       ?default_error_condition@_System_error_category@std@@UBE?AVerror_condition@2@H@Z 00401830 f i CinderApp.obj
 0001:00000870       ??0failure@ios_base@std@@QAE@PBDABVerror_code@2@@Z 00401870 f i CinderApp.obj
 0001:00000960       ?clear@ios_base@std@@QAEXH_N@Z 00401960 f i CinderApp.obj
 0001:00000a10       ?getloc@ios_base@std@@QBE?AVlocale@2@XZ 00401a10 f i CinderApp.obj
 0001:00000a30       ?_Init@ios_base@std@@IAEXXZ 00401a30 f i CinderApp.obj
 0001:00000ac0       ??0failure@ios_base@std@@QAE@ABV012@@Z 00401ac0 f i CinderApp.obj
 0001:00000af0       ??0system_error@std@@QAE@ABV01@@Z 00401af0 f i CinderApp.obj
 0001:00000b20       ??_Eios_base@std@@UAEPAXI@Z 00401b20 f i * CIL library *:* CIL module *
 0001:00000b20       ??_G?$basic_ios@DU?$char_traits@D@std@@@std@@UAEPAXI@Z 00401b20 f i CinderApp.obj
 0001:00000b20       ??_Gios_base@std@@UAEPAXI@Z 00401b20 f i CinderApp.obj
 0001:00000b20       ??_E?$basic_ios@DU?$char_traits@D@std@@@std@@UAEPAXI@Z 00401b20 f i * CIL library *:* CIL module *
 0001:00000b50       ?endl@std@@YAAAV?$basic_ostream@DU?$char_traits@D@std@@@1@AAV21@@Z 00401b50 f i CinderApp.obj
 0001:00000b80       ?_Decref@_Ref_count_base@std@@QAEXXZ 00401b80 f i CinderApp.obj
 0001:00000bb0       ?get_deleter@?$sp_counted_impl_p@V?$grouped_list@HU?$less@H@std@@V?$shared_ptr@V?$connection_body@U?$pair@W4slot_meta_group@detail@signals2@boost@@V?$optional@H@4@@std@@V?$slot1@XAAVKeyEvent@app@cinder@@V?$function@$$A6AXAAVKeyEvent@app@cinder@@@Z@boost@@@signals2@boost@@Vmutex@45@@detail@signals2@boost@@@boost@@@detail@signals2@boost@@@detail@boost@@UAEPAXABVtype_info@@@Z 00401bb0 f i cinder:Window.obj
 0001:00000bb0       ?get_deleter@?$sp_counted_impl_p@Vinvocation_state@?$signal1_impl@XAAVFileDropEvent@app@cinder@@U?$EventCombiner@VFileDropEvent@app@cinder@@@23@HU?$less@H@std@@V?$function@$$A6AXAAVFileDropEvent@app@cinder@@@Z@boost@@V?$function@$$A6AXABVconnection@signals2@boost@@AAVFileDropEvent@app@cinder@@@Z@8@Vmutex@signals2@8@@detail@signals2@boost@@@detail@boost@@UAEPAXABVtype_info@@@Z 00401bb0 f i cinder:Window.obj
 0001:00000bb0       ?get_deleter@?$sp_counted_impl_p@V?$signal0_impl@_NUBooleanAndEventCombiner@app@cinder@@HU?$less@H@std@@V?$function@$$A6A_NXZ@boost@@V?$function@$$A6A_NABVconnection@signals2@boost@@@Z@7@Vmutex@signals2@7@@detail@signals2@boost@@@detail@boost@@UAEPAXABVtype_info@@@Z 00401bb0 f i cinder:AppBasic.obj
 0001:00000bb0       ?get_deleter@?$sp_counted_impl_p@Vinvocation_state@?$signal1_impl@XAAVTouchEvent@app@cinder@@U?$EventCombiner@VTouchEvent@app@cinder@@@23@HU?$less@H@std@@V?$function@$$A6AXAAVTouchEvent@app@cinder@@@Z@boost@@V?$function@$$A6AXABVconnection@signals2@boost@@AAVTouchEvent@app@cinder@@@Z@8@Vmutex@signals2@8@@detail@signals2@boost@@@detail@boost@@UAEPAXABVtype_info@@@Z 00401bb0 f i cinder:Window.obj
 0001:00000bb0       ?get_deleter@?$sp_counted_impl_p@V?$clone_impl@Ubad_exception_@exception_detail@boost@@@exception_detail@boost@@@detail@boost@@UAEPAXABVtype_info@@@Z 00401bb0 f i libboost_thread-vc110-mt-s-1_53:thread.obj
 0001:00000bb0       ?get_deleter@?$sp_counted_impl_p@Um_imp@filesystem_error@filesystem@boost@@@detail@boost@@UAEPAXABVtype_info@@@Z 00401bb0 f i libboost_filesystem-vc110-mt-s-1_53:operations.obj
 0001:00000bb0       ?get_deleter@?$sp_counted_impl_p@U?$EventCombiner@VTouchEvent@app@cinder@@@app@cinder@@@detail@boost@@UAEPAXABVtype_info@@@Z 00401bb0 f i cinder:Window.obj
 0001:00000bb0       ?get_deleter@?$sp_counted_impl_p@V?$signal1_impl@XAAVMouseEvent@app@cinder@@U?$EventCombiner@VMouseEvent@app@cinder@@@23@HU?$less@H@std@@V?$function@$$A6AXAAVMouseEvent@app@cinder@@@Z@boost@@V?$function@$$A6AXABVconnection@signals2@boost@@AAVMouseEvent@app@cinder@@@Z@8@Vmutex@signals2@8@@detail@signals2@boost@@@detail@boost@@UAEPAXABVtype_info@@@Z 00401bb0 f i cinder:AppImplMsw.obj
 0001:00000bb0       ?get_deleter@?$sp_counted_impl_p@V?$signal1_impl@XAAVTouchEvent@app@cinder@@U?$EventCombiner@VTouchEvent@app@cinder@@@23@HU?$less@H@std@@V?$function@$$A6AXAAVTouchEvent@app@cinder@@@Z@boost@@V?$function@$$A6AXABVconnection@signals2@boost@@AAVTouchEvent@app@cinder@@@Z@8@Vmutex@signals2@8@@detail@signals2@boost@@@detail@boost@@UAEPAXABVtype_info@@@Z 00401bb0 f i cinder:AppImplMsw.obj
 0001:00000bb0       ?get_deleter@?$sp_counted_impl_p@U?$EventCombiner@VMouseEvent@app@cinder@@@app@cinder@@@detail@boost@@UAEPAXABVtype_info@@@Z 00401bb0 f i cinder:Window.obj
 0001:00000bb0       ?get_deleter@?$sp_counted_impl_p@V?$signal1_impl@XAAVFileDropEvent@app@cinder@@U?$EventCombiner@VFileDropEvent@app@cinder@@@23@HU?$less@H@std@@V?$function@$$A6AXAAVFileDropEvent@app@cinder@@@Z@boost@@V?$function@$$A6AXABVconnection@signals2@boost@@AAVFileDropEvent@app@cinder@@@Z@8@Vmutex@signals2@8@@detail@signals2@boost@@@detail@boost@@UAEPAXABVtype_info@@@Z 00401bb0 f i cinder:AppImplMsw.obj
 0001:00000bb0       ?get_deleter@?$sp_counted_impl_p@V?$signal0_impl@XV?$optional_last_value@X@signals2@boost@@HU?$less@H@std@@V?$function@$$A6AXXZ@3@V?$function@$$A6AXABVconnection@signals2@boost@@@Z@3@Vmutex@23@@detail@signals2@boost@@@detail@boost@@UAEPAXABVtype_info@@@Z 00401bb0 f i cinder:App.obj
 0001:00000bb0       ?get_deleter@?$sp_counted_impl_p@U?$EventCombiner@VFileDropEvent@app@cinder@@@app@cinder@@@detail@boost@@UAEPAXABVtype_info@@@Z 00401bb0 f i cinder:Window.obj
 0001:00000bb0       ?get_deleter@?$sp_counted_impl_p@Vinvocation_state@?$signal1_impl@XAAVMouseEvent@app@cinder@@U?$EventCombiner@VMouseEvent@app@cinder@@@23@HU?$less@H@std@@V?$function@$$A6AXAAVMouseEvent@app@cinder@@@Z@boost@@V?$function@$$A6AXABVconnection@signals2@boost@@AAVMouseEvent@app@cinder@@@Z@8@Vmutex@signals2@8@@detail@signals2@boost@@@detail@boost@@UAEPAXABVtype_info@@@Z 00401bb0 f i cinder:Window.obj
 0001:00000bb0       ?get_deleter@?$sp_counted_impl_p@U?$EventCombiner@VKeyEvent@app@cinder@@@app@cinder@@@detail@boost@@UAEPAXABVtype_info@@@Z 00401bb0 f i cinder:Window.obj
 0001:00000bb0       ?get_deleter@?$sp_counted_impl_p@V?$signal1_impl@XAAVKeyEvent@app@cinder@@U?$EventCombiner@VKeyEvent@app@cinder@@@23@HU?$less@H@std@@V?$function@$$A6AXAAVKeyEvent@app@cinder@@@Z@boost@@V?$function@$$A6AXABVconnection@signals2@boost@@AAVKeyEvent@app@cinder@@@Z@8@Vmutex@signals2@8@@detail@signals2@boost@@@detail@boost@@UAEPAXABVtype_info@@@Z 00401bb0 f i cinder:AppImplMsw.obj
 0001:00000bb0       ?get_deleter@?$sp_counted_impl_p@Vinvocation_state@?$signal0_impl@XV?$optional_last_value@X@signals2@boost@@HU?$less@H@std@@V?$function@$$A6AXXZ@3@V?$function@$$A6AXABVconnection@signals2@boost@@@Z@3@Vmutex@23@@detail@signals2@boost@@@detail@boost@@UAEPAXABVtype_info@@@Z 00401bb0 f i cinder:Window.obj
 0001:00000bb0       ?_Get_deleter@_Ref_count_base@std@@UBEPAXABVtype_info@@@Z 00401bb0 f i CinderApp.obj
 0001:00000bb0       ?get_deleter@?$sp_counted_impl_p@UBooleanAndEventCombiner@app@cinder@@@detail@boost@@UAEPAXABVtype_info@@@Z 00401bb0 f i cinder:AppBasic.obj
 0001:00000bb0       ?get_deleter@?$sp_counted_impl_p@V?$grouped_list@HU?$less@H@std@@V?$shared_ptr@V?$connection_body@U?$pair@W4slot_meta_group@detail@signals2@boost@@V?$optional@H@4@@std@@V?$slot1@XAAVTouchEvent@app@cinder@@V?$function@$$A6AXAAVTouchEvent@app@cinder@@@Z@boost@@@signals2@boost@@Vmutex@45@@detail@signals2@boost@@@boost@@@detail@signals2@boost@@@detail@boost@@UAEPAXABVtype_info@@@Z 00401bb0 f i cinder:Window.obj
 0001:00000bb0       ?get_deleter@?$sp_counted_impl_p@Vinvocation_state@?$signal0_impl@_NUBooleanAndEventCombiner@app@cinder@@HU?$less@H@std@@V?$function@$$A6A_NXZ@boost@@V?$function@$$A6A_NABVconnection@signals2@boost@@@Z@7@Vmutex@signals2@7@@detail@signals2@boost@@@detail@boost@@UAEPAXABVtype_info@@@Z 00401bb0 f i cinder:AppBasic.obj
 0001:00000bb0       ?get_deleter@?$sp_counted_impl_p@V?$grouped_list@HU?$less@H@std@@V?$shared_ptr@V?$connection_body@U?$pair@W4slot_meta_group@detail@signals2@boost@@V?$optional@H@4@@std@@V?$slot1@XAAVFileDropEvent@app@cinder@@V?$function@$$A6AXAAVFileDropEvent@app@cinder@@@Z@boost@@@signals2@boost@@Vmutex@45@@detail@signals2@boost@@@boost@@@detail@signals2@boost@@@detail@boost@@UAEPAXABVtype_info@@@Z 00401bb0 f i cinder:Window.obj
 0001:00000bb0       ?get_deleter@?$sp_counted_impl_p@V?$grouped_list@HU?$less@H@std@@V?$shared_ptr@V?$connection_body@U?$pair@W4slot_meta_group@detail@signals2@boost@@V?$optional@H@4@@std@@V?$slot1@XAAVMouseEvent@app@cinder@@V?$function@$$A6AXAAVMouseEvent@app@cinder@@@Z@boost@@@signals2@boost@@Vmutex@45@@detail@signals2@boost@@@boost@@@detail@signals2@boost@@@detail@boost@@UAEPAXABVtype_info@@@Z 00401bb0 f i cinder:Window.obj
 0001:00000bb0       ?get_deleter@?$sp_counted_impl_p@V?$grouped_list@HU?$less@H@std@@V?$shared_ptr@V?$connection_body@U?$pair@W4slot_meta_group@detail@signals2@boost@@V?$optional@H@4@@std@@V?$slot0@_NV?$function@$$A6A_NXZ@boost@@@signals2@boost@@Vmutex@45@@detail@signals2@boost@@@boost@@@detail@signals2@boost@@@detail@boost@@UAEPAXABVtype_info@@@Z 00401bb0 f i cinder:AppBasic.obj
 0001:00000bb0       ?get_deleter@?$sp_counted_impl_p@V?$clone_impl@Ubad_alloc_@exception_detail@boost@@@exception_detail@boost@@@detail@boost@@UAEPAXABVtype_info@@@Z 00401bb0 f i libboost_thread-vc110-mt-s-1_53:thread.obj
 0001:00000bb0       ?get_deleter@?$sp_counted_impl_p@V?$optional_last_value@X@signals2@boost@@@detail@boost@@UAEPAXABVtype_info@@@Z 00401bb0 f i cinder:App.obj
 0001:00000bb0       ?get_deleter@?$sp_counted_impl_p@V?$grouped_list@HU?$less@H@std@@V?$shared_ptr@V?$connection_body@U?$pair@W4slot_meta_group@detail@signals2@boost@@V?$optional@H@4@@std@@V?$slot0@XV?$function@$$A6AXXZ@boost@@@signals2@boost@@Vmutex@45@@detail@signals2@boost@@@boost@@@detail@signals2@boost@@@detail@boost@@UAEPAXABVtype_info@@@Z 00401bb0 f i cinder:Window.obj
 0001:00000bb0       ?get_deleter@?$sp_counted_impl_p@Vinvocation_state@?$signal1_impl@XAAVKeyEvent@app@cinder@@U?$EventCombiner@VKeyEvent@app@cinder@@@23@HU?$less@H@std@@V?$function@$$A6AXAAVKeyEvent@app@cinder@@@Z@boost@@V?$function@$$A6AXABVconnection@signals2@boost@@AAVKeyEvent@app@cinder@@@Z@8@Vmutex@signals2@8@@detail@signals2@boost@@@detail@boost@@UAEPAXABVtype_info@@@Z 00401bb0 f i cinder:Window.obj
 0001:00000bc0       ??_E?$_Ref_count@Vio_service@asio@boost@@@std@@UAEPAXI@Z 00401bc0 f i cinder:App.obj
 0001:00000bc0       ??_E?$_Ref_count_del@UIWICBitmapFrameDecode@@P6AXPAX@Z@std@@UAEPAXI@Z 00401bc0 f i cinder:ImageSourceFileWic.obj
 0001:00000bc0       ??_E?$_Ref_count_del@UIWICBitmapFrameEncode@@P6AXPAX@Z@std@@UAEPAXI@Z 00401bc0 f i cinder:ImageTargetFileWic.obj
 0001:00000bc0       ??_G?$_Ref_count@VWindow@app@cinder@@@std@@UAEPAXI@Z 00401bc0 f i cinder:AppImplMsw.obj
 0001:00000bc0       ??_G?$_Ref_count@VObj@Font@cinder@@@std@@UAEPAXI@Z 00401bc0 f i cinder:Font.obj
 0001:00000bc0       ??_G?$_Ref_count@UObj@Fbo@gl@cinder@@@std@@UAEPAXI@Z 00401bc0 f i cinder:Fbo.obj
 0001:00000bc0       ??_E?$_Ref_count@VWindow@app@cinder@@@std@@UAEPAXI@Z 00401bc0 f i cinder:AppImplMsw.obj
 0001:00000bc0       ??_G?$_Ref_count@Vwork@io_service@asio@boost@@@std@@UAEPAXI@Z 00401bc0 f i cinder:App.obj
 0001:00000bc0       ??_G?$_Ref_count_del@XP6AXPAX@Z@std@@UAEPAXI@Z 00401bc0 f i cinder:Font.obj
 0001:00000bc0       ??_E?$_Ref_count@UObj@Texture@gl@cinder@@@std@@UAEPAXI@Z 00401bc0 f i cinder:Texture.obj
 0001:00000bc0       ??_E?$_Ref_count_del@UIWICBitmapDecoder@@P6AXPAX@Z@std@@UAEPAXI@Z 00401bc0 f i cinder:ImageSourceFileWic.obj
 0001:00000bc0       ??_G?$_Ref_count_del@UIWICFormatConverter@@P6AXPAX@Z@std@@UAEPAXI@Z 00401bc0 f i cinder:ImageSourceFileWic.obj
 0001:00000bc0       ??_G?$_Ref_count_del@UtagTOUCHINPUT@@U?$checked_array_deleter@UtagTOUCHINPUT@@@boost@@@std@@UAEPAXI@Z 00401bc0 f i cinder:AppImplMsw.obj
 0001:00000bc0       ??_G?$_Ref_count_del@UIWICBitmapFrameEncode@@P6AXPAX@Z@std@@UAEPAXI@Z 00401bc0 f i cinder:ImageTargetFileWic.obj
 0001:00000bc0       ??_G?$_Ref_count_del@EU?$checked_array_deleter@E@boost@@@std@@UAEPAXI@Z 00401bc0 f i cinder:Font.obj
 0001:00000bc0       ??_E?$_Ref_count@VImageTargetFileWic@cinder@@@std@@UAEPAXI@Z 00401bc0 f i cinder:ImageTargetFileWic.obj
 0001:00000bc0       ??_E?$_Ref_count_del@UtagTOUCHINPUT@@U?$checked_array_deleter@UtagTOUCHINPUT@@@boost@@@std@@UAEPAXI@Z 00401bc0 f i cinder:AppImplMsw.obj
 0001:00000bc0       ??_E?$_Ref_count@VRendererGl@app@cinder@@@std@@UAEPAXI@Z 00401bc0 f i * CIL library *:* CIL module *
 0001:00000bc0       ??_E?$_Ref_count_del@UIWICFormatConverter@@P6AXPAX@Z@std@@UAEPAXI@Z 00401bc0 f i cinder:ImageSourceFileWic.obj
 0001:00000bc0       ??_G?$_Ref_count_del@UIWICBitmapDecoder@@P6AXPAX@Z@std@@UAEPAXI@Z 00401bc0 f i cinder:ImageSourceFileWic.obj
 0001:00000bc0       ??_E?$_Ref_count_del@EP6AXPAE@Z@std@@UAEPAXI@Z 00401bc0 f i cinder:Texture.obj
 0001:00000bc0       ??_E?$_Ref_count@UObj@Buffer@cinder@@@std@@UAEPAXI@Z 00401bc0 f i cinder:Buffer.obj
 0001:00000bc0       ??_E?$_Ref_count@UObj@?$SurfaceT@E@cinder@@@std@@UAEPAXI@Z 00401bc0 f i cinder:Surface.obj
 0001:00000bc0       ??_E?$_Ref_count_del@UIWICStream@@P6AXPAX@Z@std@@UAEPAXI@Z 00401bc0 f i cinder:ImageSourceFileWic.obj
 0001:00000bc0       ??_E?$_Ref_count@VIStreamFile@cinder@@@std@@UAEPAXI@Z 00401bc0 f i cinder:Stream.obj
 0001:00000bc0       ??_G?$_Ref_count_del@VComOStream@msw@cinder@@P6AXPAX@Z@std@@UAEPAXI@Z 00401bc0 f i cinder:ImageTargetFileWic.obj
 0001:00000bc0       ??_E?$_Ref_count_del@EU?$checked_array_deleter@E@boost@@@std@@UAEPAXI@Z 00401bc0 f i cinder:Font.obj
 0001:00000bc0       ??_G?$_Ref_count@UObj@Texture@gl@cinder@@@std@@UAEPAXI@Z 00401bc0 f i cinder:Texture.obj
 0001:00000bc0       ??_E?$_Ref_count@VDataSourcePath@cinder@@@std@@UAEPAXI@Z 00401bc0 f i cinder:DataSource.obj
 0001:00000bc0       ??_E?$_Ref_count_del@XP6AXPAX@Z@std@@UAEPAXI@Z 00401bc0 f i cinder:Font.obj
 0001:00000bc0       ??_E?$_Ref_count_del@VComOStream@msw@cinder@@P6AXPAX@Z@std@@UAEPAXI@Z 00401bc0 f i cinder:ImageTargetFileWic.obj
 0001:00000bc0       ??_G?$_Ref_count@VDisplay@cinder@@@std@@UAEPAXI@Z 00401bc0 f i cinder:Display.obj
 0001:00000bc0       ??_G?$_Ref_count_del@UIWICBitmapFrameDecode@@P6AXPAX@Z@std@@UAEPAXI@Z 00401bc0 f i cinder:ImageSourceFileWic.obj
 0001:00000bc0       ??_G?$_Ref_count_del@UIWICImagingFactory@@P6AXPAX@Z@std@@UAEPAXI@Z 00401bc0 f i cinder:ImageSourceFileWic.obj
 0001:00000bc0       ??_E?$_Ref_count@UObj@GlslProg@gl@cinder@@@std@@UAEPAXI@Z 00401bc0 f i cinder:GlslProg.obj
 0001:00000bc0       ??_E?$_Ref_count_del@DU?$checked_array_deleter@D@boost@@@std@@UAEPAXI@Z 00401bc0 f i cinder:GlslProg.obj
 0001:00000bc0       ??_G?$_Ref_count@UObj@Renderbuffer@gl@cinder@@@std@@UAEPAXI@Z 00401bc0 f i cinder:Fbo.obj
 0001:00000bc0       ??_E?$_Ref_count_del@UIWICBitmapEncoder@@P6AXPAX@Z@std@@UAEPAXI@Z 00401bc0 f i cinder:ImageTargetFileWic.obj
 0001:00000bc0       ??_G?$_Ref_count@UObj@Buffer@cinder@@@std@@UAEPAXI@Z 00401bc0 f i cinder:Buffer.obj
 0001:00000bc0       ??_G_Ref_count_base@std@@UAEPAXI@Z 00401bc0 f i CinderApp.obj
 0001:00000bc0       ??_G?$_Ref_count_del@UIWICBitmapEncoder@@P6AXPAX@Z@std@@UAEPAXI@Z 00401bc0 f i cinder:ImageTargetFileWic.obj
 0001:00000bc0       ??_E?$_Ref_count@VFont@Gdiplus@@@std@@UAEPAXI@Z 00401bc0 f i cinder:Font.obj
 0001:00000bc0       ??_G?$_Ref_count_del@EP6AXPAE@Z@std@@UAEPAXI@Z 00401bc0 f i cinder:Texture.obj
 0001:00000bc0       ??_E?$_Ref_count_del@UIWICImagingFactory@@P6AXPAX@Z@std@@UAEPAXI@Z 00401bc0 f i cinder:ImageSourceFileWic.obj
 0001:00000bc0       ??_G?$_Ref_count@VTimeline@cinder@@@std@@UAEPAXI@Z 00401bc0 f i cinder:App.obj
 0001:00000bc0       ??_E_Ref_count_base@std@@UAEPAXI@Z 00401bc0 f i * CIL library *:* CIL module *
 0001:00000bc0       ??_G?$_Ref_count@V?$basic_dostream@DU?$char_traits@D@std@@@msw@cinder@@@std@@UAEPAXI@Z 00401bc0 f i cinder:App.obj
 0001:00000bc0       ??_G?$_Ref_count@VImageTargetFileWic@cinder@@@std@@UAEPAXI@Z 00401bc0 f i cinder:ImageTargetFileWic.obj
 0001:00000bc0       ??_G?$_Ref_count_del@DU?$checked_array_deleter@D@boost@@@std@@UAEPAXI@Z 00401bc0 f i cinder:GlslProg.obj
 0001:00000bc0       ??_E?$_Ref_count@UObj@Renderbuffer@gl@cinder@@@std@@UAEPAXI@Z 00401bc0 f i cinder:Fbo.obj
 0001:00000bc0       ??_E?$_Ref_count@V?$basic_dostream@DU?$char_traits@D@std@@@msw@cinder@@@std@@UAEPAXI@Z 00401bc0 f i cinder:App.obj
 0001:00000bc0       ??_G?$_Ref_count@VRendererGl@app@cinder@@@std@@UAEPAXI@Z 00401bc0 f i CinderApp.obj
 0001:00000bc0       ??_G?$_Ref_count_del@V?$basic_ostream@DU?$char_traits@D@std@@@std@@V<lambda_69588d13dcacf0fdf4c116f96accf98f>@@@std@@UAEPAXI@Z 00401bc0 f i cinder:AppBasic.obj
 0001:00000bc0       ??_G?$_Ref_count@UInst@ImageIoRegistrar@cinder@@@std@@UAEPAXI@Z 00401bc0 f i cinder:ImageIo.obj
 0001:00000bc0       ??_E?$_Ref_count@VDisplay@cinder@@@std@@UAEPAXI@Z 00401bc0 f i cinder:Display.obj
 0001:00000bc0       ??_G?$_Ref_count@Vio_service@asio@boost@@@std@@UAEPAXI@Z 00401bc0 f i cinder:App.obj
 0001:00000bc0       ??_G?$_Ref_count_del@UIWICStream@@P6AXPAX@Z@std@@UAEPAXI@Z 00401bc0 f i cinder:ImageSourceFileWic.obj
 0001:00000bc0       ??_E?$_Ref_count_del@V?$basic_ostream@DU?$char_traits@D@std@@@std@@V<lambda_69588d13dcacf0fdf4c116f96accf98f>@@@std@@UAEPAXI@Z 00401bc0 f i cinder:AppBasic.obj
 0001:00000bc0       ??_G?$_Ref_count@UObj@?$ChannelT@E@cinder@@@std@@UAEPAXI@Z 00401bc0 f i cinder:Channel.obj
 0001:00000bc0       ??_G?$_Ref_count@UObj@?$SurfaceT@E@cinder@@@std@@UAEPAXI@Z 00401bc0 f i cinder:Surface.obj
 0001:00000bc0       ??_G?$_Ref_count@VImageSourceFileWic@cinder@@@std@@UAEPAXI@Z 00401bc0 f i cinder:ImageSourceFileWic.obj
 0001:00000bc0       ??_E?$_Ref_count@VBlankingWindow@app@cinder@@@std@@UAEPAXI@Z 00401bc0 f i cinder:AppImplMswBasic.obj
 0001:00000bc0       ??_E?$_Ref_count@UObj@Fbo@gl@cinder@@@std@@UAEPAXI@Z 00401bc0 f i cinder:Fbo.obj
 0001:00000bc0       ??_E?$_Ref_count@VObj@Font@cinder@@@std@@UAEPAXI@Z 00401bc0 f i cinder:Font.obj
 0001:00000bc0       ??_G?$_Ref_count@VIStreamFile@cinder@@@std@@UAEPAXI@Z 00401bc0 f i cinder:Stream.obj
 0001:00000bc0       ??_G?$_Ref_count@UObj@GlslProg@gl@cinder@@@std@@UAEPAXI@Z 00401bc0 f i cinder:GlslProg.obj
 0001:00000bc0       ??_E?$_Ref_count@VTimeline@cinder@@@std@@UAEPAXI@Z 00401bc0 f i cinder:App.obj
 0001:00000bc0       ??_G?$_Ref_count@V?$map@V?$basic_string@DU?$char_traits@D@std@@V?$allocator@D@2@@std@@PBU_GUID@@U?$less@V?$basic_string@DU?$char_traits@D@std@@V?$allocator@D@2@@std@@@2@V?$allocator@U?$pair@$$CBV?$basic_string@DU?$char_traits@D@std@@V?$allocator@D@2@@std@@PBU_GUID@@@std@@@2@@std@@@std@@UAEPAXI@Z 00401bc0 f i cinder:ImageTargetFileWic.obj
 0001:00000bc0       ??_E?$_Ref_count@Vwork@io_service@asio@boost@@@std@@UAEPAXI@Z 00401bc0 f i cinder:App.obj
 0001:00000bc0       ??_E?$_Ref_count@V?$map@V?$basic_string@DU?$char_traits@D@std@@V?$allocator@D@2@@std@@PBU_GUID@@U?$less@V?$basic_string@DU?$char_traits@D@std@@V?$allocator@D@2@@std@@@2@V?$allocator@U?$pair@$$CBV?$basic_string@DU?$char_traits@D@std@@V?$allocator@D@2@@std@@PBU_GUID@@@std@@@2@@std@@@std@@UAEPAXI@Z 00401bc0 f i cinder:ImageTargetFileWic.obj
 0001:00000bc0       ??_G?$_Ref_count@VFont@Gdiplus@@@std@@UAEPAXI@Z 00401bc0 f i cinder:Font.obj
 0001:00000bc0       ??_G?$_Ref_count@VDataSourcePath@cinder@@@std@@UAEPAXI@Z 00401bc0 f i cinder:DataSource.obj
 0001:00000bc0       ??_E?$_Ref_count@UInst@ImageIoRegistrar@cinder@@@std@@UAEPAXI@Z 00401bc0 f i cinder:ImageIo.obj
 0001:00000bc0       ??_E?$_Ref_count@VImageSourceFileWic@cinder@@@std@@UAEPAXI@Z 00401bc0 f i cinder:ImageSourceFileWic.obj
 0001:00000bc0       ??_G?$_Ref_count@VBlankingWindow@app@cinder@@@std@@UAEPAXI@Z 00401bc0 f i cinder:AppImplMswBasic.obj
 0001:00000bc0       ??_E?$_Ref_count@UObj@?$ChannelT@E@cinder@@@std@@UAEPAXI@Z 00401bc0 f i cinder:Channel.obj
 0001:00000bf0       ??_D?$basic_ostream@DU?$char_traits@D@std@@@std@@QAEXXZ 00401bf0 f i CinderApp.obj
 0001:00000c20       ??1iterator@path@filesystem@boost@@QAE@XZ 00401c20 f i libboost_filesystem-vc110-mt-s-1_53:path.obj
 0001:00000c20       ??1?$basic_string@_WU?$char_traits@_W@std@@V?$allocator@_W@2@@std@@QAE@XZ 00401c20 f i CinderApp.obj
 0001:00000c20       ??1path@filesystem@boost@@QAE@XZ 00401c20 f i CinderApp.obj
 0001:00000c50       ??Kfilesystem@boost@@YA?AVpath@01@ABV201@0@Z 00401c50 f i CinderApp.obj
 0001:00000d10       ?getProjectionMatrix@Camera@cinder@@UBEABV?$Matrix44@M@2@XZ 00401d10 f i CinderApp.obj
 0001:00000d30       ?getModelViewMatrix@Camera@cinder@@UBEABV?$Matrix44@M@2@XZ 00401d30 f i CinderApp.obj
 0001:00000d50       ?getInverseModelViewMatrix@Camera@cinder@@UBEABV?$Matrix44@M@2@XZ 00401d50 f i CinderApp.obj
 0001:00000d70       ??_ECamera@cinder@@UAEPAXI@Z 00401d70 f i * CIL library *:* CIL module *
 0001:00000d70       ??_GCamera@cinder@@UAEPAXI@Z 00401d70 f i CinderApp.obj
 0001:00000d70       ??_ECameraPersp@cinder@@UAEPAXI@Z 00401d70 f i * CIL library *:* CIL module *
 0001:00000d70       ??_GCameraPersp@cinder@@UAEPAXI@Z 00401d70 f i CinderApp.obj
 0001:00000da0       ?isFilePath@DataSourcePath@cinder@@UAE_NXZ 00401da0 f i cinder:DataSource.obj
 0001:00000da0       ?getsWindowsPaintEvents@AppBasic@app@cinder@@UAE_NXZ 00401da0 f i CinderApp.obj
 0001:00000da0       ?isPersp@CameraPersp@cinder@@UBE_NXZ 00401da0 f i CinderApp.obj
 0001:00000da0       ?receivesEvents@App@app@cinder@@UBE_NXZ 00401da0 f i CinderApp.obj
 0001:00000db0       ??1CameraPersp@cinder@@UAE@XZ 00401db0 f i CinderApp.obj
 0001:00000dc0       ??0MayaCamUI@cinder@@QAE@XZ 00401dc0 f i CinderApp.obj
 0001:00000e90       ?mouseDrag@MayaCamUI@cinder@@QAEXABV?$Vec2@H@2@_N11@Z 00401e90 f i CinderApp.obj
 0001:00001af0       ??4Camera@cinder@@QAEAAV01@ABV01@@Z 00402af0 f i CinderApp.obj
 0001:00001c50       ??1Texture@gl@cinder@@QAE@XZ 00402c50 f i cinder:gl.obj
 0001:00001c50       ??1?$shared_ptr@VDataTarget@cinder@@@std@@QAE@XZ 00402c50 f i CinderApp.obj
 0001:00001c50       ??1?$shared_ptr@VImageSource@cinder@@@std@@QAE@XZ 00402c50 f i cinder:Surface.obj
 0001:00001c50       ??1?$shared_ptr@VDisplay@cinder@@@std@@QAE@XZ 00402c50 f i CinderApp.obj
 0001:00001c50       ??1?$shared_ptr@Vio_service@asio@boost@@@std@@QAE@XZ 00402c50 f i cinder:App.obj
 0001:00001c50       ??1?$shared_ptr@VBlankingWindow@app@cinder@@@std@@QAE@XZ 00402c50 f i cinder:AppImplMswBasic.obj
 0001:00001c50       ??1?$shared_ptr@VTimelineItem@cinder@@@std@@QAE@XZ 00402c50 f i cinder:Timeline.obj
 0001:00001c50       ??1?$shared_ptr@UIWICFormatConverter@@@std@@QAE@XZ 00402c50 f i cinder:ImageSourceFileWic.obj
 0001:00001c50       ??1?$shared_ptr@UObj@Fbo@gl@cinder@@@std@@QAE@XZ 00402c50 f i CinderApp.obj
 0001:00001c50       ??1?$shared_ptr@UObj@Texture@gl@cinder@@@std@@QAE@XZ 00402c50 f i cinder:gl.obj
 0001:00001c50       ??1Fbo@gl@cinder@@QAE@XZ   00402c50 f i CinderApp.obj
 0001:00001c50       ??1?$shared_ptr@VImageTarget@cinder@@@std@@QAE@XZ 00402c50 f i cinder:Surface.obj
 0001:00001c50       ??1?$ChannelT@E@cinder@@QAE@XZ 00402c50 f i cinder:Surface.obj
 0001:00001c50       ??1?$shared_ptr@UIWICBitmapEncoder@@@std@@QAE@XZ 00402c50 f i cinder:ImageTargetFileWic.obj
 0001:00001c50       ??1?$shared_ptr@E@std@@QAE@XZ 00402c50 f i cinder:Font.obj
 0001:00001c50       ??1?$shared_ptr@VDataSource@cinder@@@std@@QAE@XZ 00402c50 f i CinderApp.obj
 0001:00001c50       ??1?$shared_ptr@VIStreamFile@cinder@@@std@@QAE@XZ 00402c50 f i cinder:DataSource.obj
 0001:00001c50       ??1?$shared_ptr@UIWICBitmapFrameDecode@@@std@@QAE@XZ 00402c50 f i cinder:ImageSourceFileWic.obj
 0001:00001c50       ??1?$shared_ptr@D@std@@QAE@XZ 00402c50 f i cinder:GlslProg.obj
 0001:00001c50       ??1?$shared_ptr@UIWICImagingFactory@@@std@@QAE@XZ 00402c50 f i cinder:ImageSourceFileWic.obj
 0001:00001c50       ??1?$shared_ptr@UIWICBitmapDecoder@@@std@@QAE@XZ 00402c50 f i cinder:ImageSourceFileWic.obj
 0001:00001c50       ??1?$shared_ptr@UIWICStream@@@std@@QAE@XZ 00402c50 f i cinder:ImageSourceFileWic.obj
 0001:00001c50       ??1FullScreenOptions@app@cinder@@QAE@XZ 00402c50 f i CinderApp.obj
 0001:00001c50       ??1?$shared_ptr@V?$basic_ostream@DU?$char_traits@D@std@@@std@@@std@@QAE@XZ 00402c50 f i cinder:AppBasic.obj
 0001:00001c50       ??1Buffer@cinder@@QAE@XZ   00402c50 f i cinder:App.obj
 0001:00001c50       ??1?$shared_ptr@VComOStream@msw@cinder@@@std@@QAE@XZ 00402c50 f i cinder:ImageTargetFileWic.obj
 0001:00001c50       ??1?$shared_ptr@UObj@?$SurfaceT@E@cinder@@@std@@QAE@XZ 00402c50 f i cinder:Renderer.obj
 0001:00001c50       ??1Renderbuffer@gl@cinder@@QAE@XZ 00402c50 f i cinder:Fbo.obj
 0001:00001c50       ??1?$shared_ptr@UObj@GlslProg@gl@cinder@@@std@@QAE@XZ 00402c50 f i CinderApp.obj
 0001:00001c50       ??1?$shared_ptr@VIStream@cinder@@@std@@QAE@XZ 00402c50 f i CinderApp.obj
 0001:00001c50       ??1?$shared_ptr@VFont@Gdiplus@@@std@@QAE@XZ 00402c50 f i cinder:Font.obj
 0001:00001c50       ??1?$shared_ptr@UtagTOUCHINPUT@@@std@@QAE@XZ 00402c50 f i cinder:AppImplMsw.obj
 0001:00001c50       ??1?$shared_ptr@UIWICBitmapFrameEncode@@@std@@QAE@XZ 00402c50 f i cinder:ImageTargetFileWic.obj
 0001:00001c50       ??1?$SurfaceT@E@cinder@@QAE@XZ 00402c50 f i cinder:Renderer.obj
 0001:00001c50       ??1?$shared_ptr@VTimeline@cinder@@@std@@QAE@XZ 00402c50 f i cinder:App.obj
 0001:00001c50       ??1Font@cinder@@QAE@XZ     00402c50 f i CinderApp.obj
 0001:00001c50       ??1GlslProg@gl@cinder@@QAE@XZ 00402c50 f i CinderApp.obj
 0001:00001c50       ??1?$shared_ptr@X@std@@QAE@XZ 00402c50 f i cinder:App.obj
 0001:00001c50       ??1?$shared_ptr@VWindow@app@cinder@@@std@@QAE@XZ 00402c50 f i CinderApp.obj
 0001:00001c50       ??1?$shared_ptr@VRenderer@app@cinder@@@std@@QAE@XZ 00402c50 f i CinderApp.obj
 0001:00001c90       ??1MouseEvent@app@cinder@@UAE@XZ 00402c90 f i CinderApp.obj
 0001:00001c90       ??1Event@app@cinder@@UAE@XZ 00402c90 f i CinderApp.obj
 0001:00001cd0       ??_GMouseEvent@app@cinder@@UAEPAXI@Z 00402cd0 f i cinder:Window.obj
 0001:00001cd0       ??_EMouseEvent@app@cinder@@UAEPAXI@Z 00402cd0 f i cinder:Window.obj
 0001:00001cd0       ??_EEvent@app@cinder@@UAEPAXI@Z 00402cd0 f i * CIL library *:* CIL module *
 0001:00001cd0       ??_GEvent@app@cinder@@UAEPAXI@Z 00402cd0 f i CinderApp.obj
 0001:00001d30       ??1TouchEvent@app@cinder@@UAE@XZ 00402d30 f i CinderApp.obj
 0001:00001d90       ??1KeyEvent@app@cinder@@UAE@XZ 00402d90 f i CinderApp.obj
 0001:00001e00       ??1FileDropEvent@app@cinder@@UAE@XZ 00402e00 f i CinderApp.obj
 0001:00001e70       ?name@_Future_error_category@std@@UBEPBDXZ 00402e70 f i CinderApp.obj
 0001:00001e80       ?message@_Future_error_category@std@@UBE?AV?$basic_string@DU?$char_traits@D@std@@V?$allocator@D@2@@2@H@Z 00402e80 f i CinderApp.obj
 0001:00001f10       ?mouseWheel@App@app@cinder@@UAEXVMouseEvent@23@@Z 00402f10 f i CinderApp.obj
 0001:00001f10       ?mouseMove@App@app@cinder@@UAEXVMouseEvent@23@@Z 00402f10 f i cinder:AppBasic.obj
 0001:00001f10       ?mouseUp@CinderApp@@UAEXVMouseEvent@app@cinder@@@Z 00402f10 f i CinderApp.obj
 0001:00001f10       ?mouseDown@App@app@cinder@@UAEXVMouseEvent@23@@Z 00402f10 f i cinder:AppBasic.obj
 0001:00001f10       ?mouseUp@App@app@cinder@@UAEXVMouseEvent@23@@Z 00402f10 f i cinder:AppBasic.obj
 0001:00001f10       ?mouseDrag@App@app@cinder@@UAEXVMouseEvent@23@@Z 00402f10 f i cinder:AppBasic.obj
 0001:00001f50       ?touchesMoved@App@app@cinder@@UAEXVTouchEvent@23@@Z 00402f50 f i CinderApp.obj
 0001:00001f50       ?touchesBegan@App@app@cinder@@UAEXVTouchEvent@23@@Z 00402f50 f i CinderApp.obj
 0001:00001f50       ?touchesEnded@App@app@cinder@@UAEXVTouchEvent@23@@Z 00402f50 f i CinderApp.obj
 0001:00001fc0       ?fileDrop@App@app@cinder@@UAEXVFileDropEvent@23@@Z 00402fc0 f i CinderApp.obj
 0001:00001fd0       ?enablePowerManagement@App@app@cinder@@UAEX_N@Z 00402fd0 f i CinderApp.obj
 0001:00001fe0       ?isPowerManagementEnabled@App@app@cinder@@UBE_NXZ 00402fe0 f i CinderApp.obj
 0001:00001ff0       ?getWindowHeight@App@app@cinder@@QBEHXZ 00402ff0 f i CinderApp.obj
 0001:00002080       ?getWindowAspectRatio@App@app@cinder@@QBEMXZ 00403080 f i CinderApp.obj
 0001:00002180       ?getWindowBounds@App@app@cinder@@QBE?AVArea@3@XZ 00403180 f i CinderApp.obj
 0001:00002280       ?setWindowPos@App@app@cinder@@UAEXABV?$Vec2@H@3@@Z 00403280 f i CinderApp.obj
 0001:00002310       ?isFullScreen@App@app@cinder@@QBE_NXZ 00403310 f i CinderApp.obj
 0001:000023a0       ?setFullScreen@App@app@cinder@@QAEX_NABUFullScreenOptions@23@@Z 004033a0 f i CinderApp.obj
 0001:00002430       ?getSettings@AppBasic@app@cinder@@UBEABVSettings@123@XZ 00403430 f i CinderApp.obj
 0001:00002440       ??0Light@gl@cinder@@QAE@HH@Z 00403440 f i CinderApp.obj
 0001:00002510       ??6@YAAAV?$basic_ostream@DU?$char_traits@D@std@@@std@@AAV01@ABVVoxel@@@Z 00403510 f i CinderApp.obj
 0001:00002640       ?prepareSettings@CinderApp@@UAEXPAVSettings@AppBasic@app@cinder@@@Z 00403640 f   CinderApp.obj
 0001:00002710       ?setup@CinderApp@@UAEXXZ   00403710 f   CinderApp.obj
 0001:00002ab0       ??4Font@cinder@@QAEAAV01@ABV01@@Z 00403ab0 f i CinderApp.obj
 0001:00002b10       ?shutdown@CinderApp@@UAEXXZ 00403b10 f   CinderApp.obj
 0001:00002bd0       ?draw@CinderApp@@UAEXXZ    00403bd0 f   CinderApp.obj
 0001:00003170       ??_D?$basic_ostringstream@DU?$char_traits@D@std@@V?$allocator@D@2@@std@@QAEXXZ 00404170 f i CinderApp.obj
 0001:000031d0       ??0Font@cinder@@QAE@ABV01@@Z 004041d0 f i CinderApp.obj
 0001:00003240       ?mouseMove@CinderApp@@UAEXVMouseEvent@app@cinder@@@Z 00404240 f   CinderApp.obj
 0001:000032d0       ?mouseDown@CinderApp@@UAEXVMouseEvent@app@cinder@@@Z 004042d0 f   CinderApp.obj
 0001:00003360       ?mouseDrag@CinderApp@@UAEXVMouseEvent@app@cinder@@@Z 00404360 f   CinderApp.obj
 0001:00003610       ?keyDown@CinderApp@@UAEXVKeyEvent@app@cinder@@@Z 00404610 f   CinderApp.obj
 0001:00003750       ?keyUp@CinderApp@@UAEXVKeyEvent@app@cinder@@@Z 00404750 f   CinderApp.obj
 0001:00003750       ?keyUp@App@app@cinder@@UAEXVKeyEvent@23@@Z 00404750 f   cinder:AppBasic.obj
 0001:00003750       ?keyDown@App@app@cinder@@UAEXVKeyEvent@23@@Z 00404750 f   cinder:AppBasic.obj
 0001:00003760       ?resize@CinderApp@@UAEXXZ  00404760 f   CinderApp.obj
 0001:00003c80       ??0Camera@cinder@@QAE@ABV01@@Z 00404c80 f i CinderApp.obj
 0001:00003de0       ?render@CinderApp@@QAEXXZ  00404de0 f   CinderApp.obj
 0001:00004470       ??1Light@gl@cinder@@QAE@XZ 00405470 f i CinderApp.obj
 0001:00004480       ?pickVoxel@CinderApp@@QAEXABV?$Vec2@H@cinder@@@Z 00405480 f   CinderApp.obj
 0001:00004a30       ??1?$map@IIU?$less@I@std@@V?$allocator@U?$pair@$$CBII@std@@@2@@std@@QAE@XZ 00405a30 f i CinderApp.obj
 0001:00004a60       ?pickFace@CinderApp@@QAEXABV?$Vec2@H@cinder@@@Z 00405a60 f   CinderApp.obj
 0001:00004fc0       ?loadShaders@CinderApp@@QAEXXZ 00405fc0 f   CinderApp.obj
 0001:00005170       ?initFbo@CinderApp@@QAEXAAVFbo@gl@cinder@@VArea@4@@Z 00406170 f   CinderApp.obj
 0001:00005280       _WinMain@16                00406280 f   CinderApp.obj
 0001:00005390       ??0CinderApp@@QAE@XZ       00406390 f i CinderApp.obj
 0001:000054e0       ??_GCinderApp@@UAEPAXI@Z   004064e0 f i CinderApp.obj
 0001:000054e0       ??_ECinderApp@@UAEPAXI@Z   004064e0 f i * CIL library *:* CIL module *
 0001:00005510       ??1MayaCamUI@cinder@@QAE@XZ 00406510 f i CinderApp.obj
 0001:00005530       ??1CinderApp@@UAE@XZ       00406530 f i CinderApp.obj
 0001:000056d0       ??0?$basic_string@DU?$char_traits@D@std@@V?$allocator@D@2@@std@@QAE@PBD@Z 004066d0 f i CinderApp.obj
 0001:00005730       ??0?$basic_string@DU?$char_traits@D@std@@V?$allocator@D@2@@std@@QAE@$$QAV01@@Z 00406730 f i CinderApp.obj
 0001:000057a0       ??1?$pair@V?$basic_string@DU?$char_traits@D@std@@V?$allocator@D@2@@std@@H@std@@QAE@XZ 004067a0 f i cinder:GlslProg.obj
 0001:000057a0       ??1?$pair@V?$basic_string@DU?$char_traits@D@std@@V?$allocator@D@2@@std@@_N@std@@QAE@XZ 004067a0 f i cinder:gl.obj
 0001:000057a0       ??1Url@cinder@@QAE@XZ      004067a0 f i cinder:DataTarget.obj
 0001:000057a0       ??1?$basic_string@DU?$char_traits@D@std@@V?$allocator@D@2@@std@@QAE@XZ 004067a0 f i CinderApp.obj
 0001:000057a0       ??1?$pair@V?$basic_string@DU?$char_traits@D@std@@V?$allocator@D@2@@std@@PBU_GUID@@@std@@QAE@XZ 004067a0 f i cinder:ImageTargetFileWic.obj
 0001:000057d0       ??4?$basic_string@DU?$char_traits@D@std@@V?$allocator@D@2@@std@@QAEAAV01@PBD@Z 004067d0 f i CinderApp.obj
 0001:00005810       ?c_str@?$basic_string@DU?$char_traits@D@std@@V?$allocator@D@2@@std@@QBEPBDXZ 00406810 f i CinderApp.obj
 0001:00005820       ??1?$_Yarn@_W@std@@QAE@XZ  00406820 f i CinderApp.obj
 0001:00005820       ??1?$_Yarn@D@std@@QAE@XZ   00406820 f i CinderApp.obj
 0001:00005840       ??0?$basic_ostream@DU?$char_traits@D@std@@@std@@QAE@PAV?$basic_streambuf@DU?$char_traits@D@std@@@1@_N@Z 00406840 f i CinderApp.obj
 0001:000058e0       ??1?$basic_ostream@DU?$char_traits@D@std@@@std@@UAE@XZ 004068e0 f i CinderApp.obj
 0001:00005900       ??6?$basic_ostream@DU?$char_traits@D@std@@@std@@QAEAAV01@K@Z 00406900 f i CinderApp.obj
 0001:00005aa0       ??6?$basic_ostream@DU?$char_traits@D@std@@@std@@QAEAAV01@M@Z 00406aa0 f i CinderApp.obj
 0001:00005c40       ?put@?$basic_ostream@DU?$char_traits@D@std@@@std@@QAEAAV12@D@Z 00406c40 f i CinderApp.obj
 0001:00005dc0       ?flush@?$basic_ostream@DU?$char_traits@D@std@@@std@@QAEAAV12@XZ 00406dc0 f i CinderApp.obj
 0001:00005e90       ??1?$basic_ios@DU?$char_traits@D@std@@@std@@UAE@XZ 00406e90 f i CinderApp.obj
 0001:00005ea0       ??1?$basic_streambuf@DU?$char_traits@D@std@@@std@@UAE@XZ 00406ea0 f i CinderApp.obj
 0001:00005ed0       ?pbackfail@?$basic_streambuf@DU?$char_traits@D@std@@@std@@MAEHH@Z 00406ed0 f i CinderApp.obj
 0001:00005ed0       ?overflow@?$basic_streambuf@DU?$char_traits@D@std@@@std@@MAEHH@Z 00406ed0 f i CinderApp.obj
 0001:00005ee0       ?showmanyc@?$basic_streambuf@DU?$char_traits@D@std@@@std@@MAE_JXZ 00406ee0 f i CinderApp.obj
 0001:00005ef0       ?underflow@?$basic_streambuf@DU?$char_traits@D@std@@@std@@MAEHXZ 00406ef0 f i CinderApp.obj
 0001:00005f00       ?uflow@?$basic_streambuf@DU?$char_traits@D@std@@@std@@MAEHXZ 00406f00 f i CinderApp.obj
 0001:00005f30       ?xsgetn@?$basic_streambuf@DU?$char_traits@D@std@@@std@@MAE_JPAD_J@Z 00406f30 f i CinderApp.obj
 0001:00006040       ?xsputn@?$basic_streambuf@DU?$char_traits@D@std@@@std@@MAE_JPBD_J@Z 00407040 f i CinderApp.obj
 0001:00006150       ?seekoff@?$basic_streambuf@DU?$char_traits@D@std@@@std@@MAE?AV?$fpos@H@2@_JHH@Z 00407150 f i CinderApp.obj
 0001:00006180       ?seekpos@?$basic_streambuf@DU?$char_traits@D@std@@@std@@MAE?AV?$fpos@H@2@V32@H@Z 00407180 f i CinderApp.obj
 0001:000061b0       ?setbuf@?$basic_streambuf@DU?$char_traits@D@std@@@std@@MAEPAV12@PAD_J@Z 004071b0 f i CinderApp.obj
 0001:000061c0       ?get_untyped_deleter@?$sp_counted_impl_p@Vinvocation_state@?$signal1_impl@XAAVMouseEvent@app@cinder@@U?$EventCombiner@VMouseEvent@app@cinder@@@23@HU?$less@H@std@@V?$function@$$A6AXAAVMouseEvent@app@cinder@@@Z@boost@@V?$function@$$A6AXABVconnection@signals2@boost@@AAVMouseEvent@app@cinder@@@Z@8@Vmutex@signals2@8@@detail@signals2@boost@@@detail@boost@@UAEPAXXZ 004071c0 f i cinder:Window.obj
 0001:000061c0       ?get_untyped_deleter@?$sp_counted_impl_p@Vinvocation_state@?$signal0_impl@XV?$optional_last_value@X@signals2@boost@@HU?$less@H@std@@V?$function@$$A6AXXZ@3@V?$function@$$A6AXABVconnection@signals2@boost@@@Z@3@Vmutex@23@@detail@signals2@boost@@@detail@boost@@UAEPAXXZ 004071c0 f i cinder:Window.obj
 0001:000061c0       ?get_untyped_deleter@?$sp_counted_impl_p@V?$signal1_impl@XAAVKeyEvent@app@cinder@@U?$EventCombiner@VKeyEvent@app@cinder@@@23@HU?$less@H@std@@V?$function@$$A6AXAAVKeyEvent@app@cinder@@@Z@boost@@V?$function@$$A6AXABVconnection@signals2@boost@@AAVKeyEvent@app@cinder@@@Z@8@Vmutex@signals2@8@@detail@signals2@boost@@@detail@boost@@UAEPAXXZ 004071c0 f i cinder:AppImplMsw.obj
 0001:000061c0       ?get_untyped_deleter@?$sp_counted_impl_p@U?$EventCombiner@VTouchEvent@app@cinder@@@app@cinder@@@detail@boost@@UAEPAXXZ 004071c0 f i cinder:Window.obj
 0001:000061c0       ?get_untyped_deleter@?$sp_counted_impl_p@Vinvocation_state@?$signal0_impl@_NUBooleanAndEventCombiner@app@cinder@@HU?$less@H@std@@V?$function@$$A6A_NXZ@boost@@V?$function@$$A6A_NABVconnection@signals2@boost@@@Z@7@Vmutex@signals2@7@@detail@signals2@boost@@@detail@boost@@UAEPAXXZ 004071c0 f i cinder:AppBasic.obj
 0001:000061c0       ?get_untyped_deleter@?$sp_counted_impl_p@V?$grouped_list@HU?$less@H@std@@V?$shared_ptr@V?$connection_body@U?$pair@W4slot_meta_group@detail@signals2@boost@@V?$optional@H@4@@std@@V?$slot1@XAAVMouseEvent@app@cinder@@V?$function@$$A6AXAAVMouseEvent@app@cinder@@@Z@boost@@@signals2@boost@@Vmutex@45@@detail@signals2@boost@@@boost@@@detail@signals2@boost@@@detail@boost@@UAEPAXXZ 004071c0 f i cinder:Window.obj
 0001:000061c0       ?get_untyped_deleter@?$sp_counted_impl_p@V?$clone_impl@Ubad_exception_@exception_detail@boost@@@exception_detail@boost@@@detail@boost@@UAEPAXXZ 004071c0 f i libboost_thread-vc110-mt-s-1_53:thread.obj
 0001:000061c0       ?get_untyped_deleter@?$sp_counted_impl_p@U?$EventCombiner@VMouseEvent@app@cinder@@@app@cinder@@@detail@boost@@UAEPAXXZ 004071c0 f i cinder:Window.obj
 0001:000061c0       ?sync@?$basic_streambuf@DU?$char_traits@D@std@@@std@@MAEHXZ 004071c0 f i CinderApp.obj
 0001:000061c0       ?get_untyped_deleter@?$sp_counted_impl_p@UBooleanAndEventCombiner@app@cinder@@@detail@boost@@UAEPAXXZ 004071c0 f i cinder:AppBasic.obj
 0001:000061c0       ?get_untyped_deleter@?$sp_counted_impl_p@Vinvocation_state@?$signal1_impl@XAAVTouchEvent@app@cinder@@U?$EventCombiner@VTouchEvent@app@cinder@@@23@HU?$less@H@std@@V?$function@$$A6AXAAVTouchEvent@app@cinder@@@Z@boost@@V?$function@$$A6AXABVconnection@signals2@boost@@AAVTouchEvent@app@cinder@@@Z@8@Vmutex@signals2@8@@detail@signals2@boost@@@detail@boost@@UAEPAXXZ 004071c0 f i cinder:Window.obj
 0001:000061c0       ?get_untyped_deleter@?$sp_counted_impl_p@V?$signal1_impl@XAAVTouchEvent@app@cinder@@U?$EventCombiner@VTouchEvent@app@cinder@@@23@HU?$less@H@std@@V?$function@$$A6AXAAVTouchEvent@app@cinder@@@Z@boost@@V?$function@$$A6AXABVconnection@signals2@boost@@AAVTouchEvent@app@cinder@@@Z@8@Vmutex@signals2@8@@detail@signals2@boost@@@detail@boost@@UAEPAXXZ 004071c0 f i cinder:AppImplMsw.obj
 0001:000061c0       ?get_untyped_deleter@?$sp_counted_impl_p@Vinvocation_state@?$signal1_impl@XAAVKeyEvent@app@cinder@@U?$EventCombiner@VKeyEvent@app@cinder@@@23@HU?$less@H@std@@V?$function@$$A6AXAAVKeyEvent@app@cinder@@@Z@boost@@V?$function@$$A6AXABVconnection@signals2@boost@@AAVKeyEvent@app@cinder@@@Z@8@Vmutex@signals2@8@@detail@signals2@boost@@@detail@boost@@UAEPAXXZ 004071c0 f i cinder:Window.obj
 0001:000061c0       ?get_untyped_deleter@?$sp_counted_impl_p@Vinvocation_state@?$signal1_impl@XAAVFileDropEvent@app@cinder@@U?$EventCombiner@VFileDropEvent@app@cinder@@@23@HU?$less@H@std@@V?$function@$$A6AXAAVFileDropEvent@app@cinder@@@Z@boost@@V?$function@$$A6AXABVconnection@signals2@boost@@AAVFileDropEvent@app@cinder@@@Z@8@Vmutex@signals2@8@@detail@signals2@boost@@@detail@boost@@UAEPAXXZ 004071c0 f i cinder:Window.obj
 0001:000061c0       ?get_untyped_deleter@?$sp_counted_impl_p@V?$optional_last_value@X@signals2@boost@@@detail@boost@@UAEPAXXZ 004071c0 f i cinder:App.obj
 0001:000061c0       ?get_untyped_deleter@?$sp_counted_impl_p@V?$signal1_impl@XAAVFileDropEvent@app@cinder@@U?$EventCombiner@VFileDropEvent@app@cinder@@@23@HU?$less@H@std@@V?$function@$$A6AXAAVFileDropEvent@app@cinder@@@Z@boost@@V?$function@$$A6AXABVconnection@signals2@boost@@AAVFileDropEvent@app@cinder@@@Z@8@Vmutex@signals2@8@@detail@signals2@boost@@@detail@boost@@UAEPAXXZ 004071c0 f i cinder:AppImplMsw.obj
 0001:000061c0       ?get_untyped_deleter@?$sp_counted_impl_p@V?$grouped_list@HU?$less@H@std@@V?$shared_ptr@V?$connection_body@U?$pair@W4slot_meta_group@detail@signals2@boost@@V?$optional@H@4@@std@@V?$slot1@XAAVFileDropEvent@app@cinder@@V?$function@$$A6AXAAVFileDropEvent@app@cinder@@@Z@boost@@@signals2@boost@@Vmutex@45@@detail@signals2@boost@@@boost@@@detail@signals2@boost@@@detail@boost@@UAEPAXXZ 004071c0 f i cinder:Window.obj
 0001:000061c0       ?get_untyped_deleter@?$sp_counted_impl_p@Um_imp@filesystem_error@filesystem@boost@@@detail@boost@@UAEPAXXZ 004071c0 f i libboost_filesystem-vc110-mt-s-1_53:operations.obj
 0001:000061c0       ?do_max_length@windows_file_codecvt@@MBEHXZ 004071c0 f i libboost_filesystem-vc110-mt-s-1_53:path.obj
 0001:000061c0       ?get_untyped_deleter@?$sp_counted_impl_p@V?$signal1_impl@XAAVMouseEvent@app@cinder@@U?$EventCombiner@VMouseEvent@app@cinder@@@23@HU?$less@H@std@@V?$function@$$A6AXAAVMouseEvent@app@cinder@@@Z@boost@@V?$function@$$A6AXABVconnection@signals2@boost@@AAVMouseEvent@app@cinder@@@Z@8@Vmutex@signals2@8@@detail@signals2@boost@@@detail@boost@@UAEPAXXZ 004071c0 f i cinder:AppImplMsw.obj
 0001:000061c0       ?get_untyped_deleter@?$sp_counted_impl_p@V?$grouped_list@HU?$less@H@std@@V?$shared_ptr@V?$connection_body@U?$pair@W4slot_meta_group@detail@signals2@boost@@V?$optional@H@4@@std@@V?$slot0@_NV?$function@$$A6A_NXZ@boost@@@signals2@boost@@Vmutex@45@@detail@signals2@boost@@@boost@@@detail@signals2@boost@@@detail@boost@@UAEPAXXZ 004071c0 f i cinder:AppBasic.obj
 0001:000061c0       ?get_untyped_deleter@?$sp_counted_impl_p@V?$grouped_list@HU?$less@H@std@@V?$shared_ptr@V?$connection_body@U?$pair@W4slot_meta_group@detail@signals2@boost@@V?$optional@H@4@@std@@V?$slot1@XAAVTouchEvent@app@cinder@@V?$function@$$A6AXAAVTouchEvent@app@cinder@@@Z@boost@@@signals2@boost@@Vmutex@45@@detail@signals2@boost@@@boost@@@detail@signals2@boost@@@detail@boost@@UAEPAXXZ 004071c0 f i cinder:Window.obj
 0001:000061c0       ?get_untyped_deleter@?$sp_counted_impl_p@V?$grouped_list@HU?$less@H@std@@V?$shared_ptr@V?$connection_body@U?$pair@W4slot_meta_group@detail@signals2@boost@@V?$optional@H@4@@std@@V?$slot0@XV?$function@$$A6AXXZ@boost@@@signals2@boost@@Vmutex@45@@detail@signals2@boost@@@boost@@@detail@signals2@boost@@@detail@boost@@UAEPAXXZ 004071c0 f i cinder:Window.obj
 0001:000061c0       ?get_untyped_deleter@?$sp_counted_impl_p@U?$EventCombiner@VKeyEvent@app@cinder@@@app@cinder@@@detail@boost@@UAEPAXXZ 004071c0 f i cinder:Window.obj
 0001:000061c0       ?get_untyped_deleter@?$sp_counted_impl_p@V?$clone_impl@Ubad_alloc_@exception_detail@boost@@@exception_detail@boost@@@detail@boost@@UAEPAXXZ 004071c0 f i libboost_thread-vc110-mt-s-1_53:thread.obj
 0001:000061c0       ?get_untyped_deleter@?$sp_counted_impl_p@V?$signal0_impl@XV?$optional_last_value@X@signals2@boost@@HU?$less@H@std@@V?$function@$$A6AXXZ@3@V?$function@$$A6AXABVconnection@signals2@boost@@@Z@3@Vmutex@23@@detail@signals2@boost@@@detail@boost@@UAEPAXXZ 004071c0 f i cinder:App.obj
 0001:000061c0       ?do_encoding@windows_file_codecvt@@MBEHXZ 004071c0 f i libboost_filesystem-vc110-mt-s-1_53:path.obj
 0001:000061c0       ?get_untyped_deleter@?$sp_counted_impl_p@V?$signal0_impl@_NUBooleanAndEventCombiner@app@cinder@@HU?$less@H@std@@V?$function@$$A6A_NXZ@boost@@V?$function@$$A6A_NABVconnection@signals2@boost@@@Z@7@Vmutex@signals2@7@@detail@signals2@boost@@@detail@boost@@UAEPAXXZ 004071c0 f i cinder:AppBasic.obj
 0001:000061c0       ?get_untyped_deleter@?$sp_counted_impl_p@V?$grouped_list@HU?$less@H@std@@V?$shared_ptr@V?$connection_body@U?$pair@W4slot_meta_group@detail@signals2@boost@@V?$optional@H@4@@std@@V?$slot1@XAAVKeyEvent@app@cinder@@V?$function@$$A6AXAAVKeyEvent@app@cinder@@@Z@boost@@@signals2@boost@@Vmutex@45@@detail@signals2@boost@@@boost@@@detail@signals2@boost@@@detail@boost@@UAEPAXXZ 004071c0 f i cinder:Window.obj
 0001:000061c0       ?get_untyped_deleter@?$sp_counted_impl_p@U?$EventCombiner@VFileDropEvent@app@cinder@@@app@cinder@@@detail@boost@@UAEPAXXZ 004071c0 f i cinder:Window.obj
 0001:000061c0       ?getDc@Renderer@app@cinder@@UAEPAUHDC__@@XZ 004071c0 f i cinder:Renderer.obj
 0001:000061d0       ??$destroy@PAU?$_Tree_node@U?$pair@$$CBV?$basic_string@DU?$char_traits@D@std@@V?$allocator@D@2@@std@@_N@std@@PAX@std@@@?$_Wrap_alloc@V?$allocator@U?$_Tree_node@U?$pair@$$CBV?$basic_string@DU?$char_traits@D@std@@V?$allocator@D@2@@std@@_N@std@@PAX@std@@@std@@@std@@QAEXPAPAU?$_Tree_node@U?$pair@$$CBV?$basic_string@DU?$char_traits@D@std@@V?$allocator@D@2@@std@@_N@std@@PAX@1@@Z 004071d0 f i cinder:gl.obj
 0001:000061d0       ??$destroy@PAU?$_Tree_node@U?$pair@$$CBIPAVVoxel@@@std@@PAX@std@@@?$_Wrap_alloc@V?$allocator@U?$_Tree_node@U?$pair@$$CBIPAVVoxel@@@std@@PAX@std@@@std@@@std@@QAEXPAPAU?$_Tree_node@U?$pair@$$CBIPAVVoxel@@@std@@PAX@1@@Z 004071d0 f i Voxel.obj
 0001:000061d0       ?fork_service@service@io_service@asio@boost@@EAEXW4fork_event@234@@Z 004071d0 f i cinder:App.obj
 0001:000061d0       ??$destroy@PAD@?$_Wrap_alloc@V?$allocator@D@std@@@std@@QAEXPAPAD@Z 004071d0 f i CinderApp.obj
 0001:000061d0       ?imbue@?$basic_streambuf@DU?$char_traits@D@std@@@std@@MAEXABVlocale@2@@Z 004071d0 f i CinderApp.obj
 0001:000061d0       ?apc_function@detail@asio@boost@@YGXK@Z 004071d0 f i cinder:App.obj
 0001:000061d0       ?prepareSettings@AppBasic@app@cinder@@UAEXPAVSettings@123@@Z 004071d0 f i cinder:AppBasic.obj
 0001:000061d0       ?start@Timeline@cinder@@MAEX_N@Z 004071d0 f i cinder:Timeline.obj
 0001:000061d0       ??$destroy@PA_W@?$_Wrap_alloc@V?$allocator@_W@std@@@std@@QAEXPAPA_W@Z 004071d0 f i CinderApp.obj
 0001:000061d0       ?complete@Timeline@cinder@@MAEX_N@Z 004071d0 f i cinder:Timeline.obj
 0001:000061e0       ??0?$basic_string@_WU?$char_traits@_W@std@@V?$allocator@_W@2@@std@@QAE@ABV01@@Z 004071e0 f i CinderApp.obj
 0001:00006210       ??1?$vector@U?$pair@PAVcondition_variable@boost@@PAVmutex@2@@std@@V?$allocator@U?$pair@PAVcondition_variable@boost@@PAVmutex@2@@std@@@2@@std@@QAE@XZ 00407210 f i libboost_thread-vc110-mt-s-1_53:thread.obj
 0001:00006210       ??1?$vector@U?$pair@GG@std@@V?$allocator@U?$pair@GG@std@@@2@@std@@QAE@XZ 00407210 f i cinder:Font.obj
 0001:00006210       ?_Tidy@?$vector@VTouch@TouchEvent@app@cinder@@V?$allocator@VTouch@TouchEvent@app@cinder@@@std@@@std@@IAEXXZ 00407210 f i CinderApp.obj
 0001:00006210       ??1?$vector@IV?$allocator@I@std@@@std@@QAE@XZ 00407210 f i cinder:gl.obj
 0001:00006210       ??1?$vector@_WV?$allocator@_W@std@@@std@@QAE@XZ 00407210 f i cinder:Utilities.obj
 0001:00006210       ??1?$vector@DV?$allocator@D@std@@@std@@QAE@XZ 00407210 f i cinder:Utilities.obj
 0001:00006210       ??1?$vector@VTouch@TouchEvent@app@cinder@@V?$allocator@VTouch@TouchEvent@app@cinder@@@std@@@std@@QAE@XZ 00407210 f i CinderApp.obj
 0001:00006240       ?_Tidy@?$vector@Vpath@filesystem@boost@@V?$allocator@Vpath@filesystem@boost@@@std@@@std@@IAEXXZ 00407240 f i CinderApp.obj
 0001:00006240       ??1?$vector@Vpath@filesystem@boost@@V?$allocator@Vpath@filesystem@boost@@@std@@@std@@QAE@XZ 00407240 f i CinderApp.obj
 0001:00006280       ??1?$basic_stringbuf@DU?$char_traits@D@std@@V?$allocator@D@2@@std@@UAE@XZ 00407280 f i CinderApp.obj
 0001:00006310       ?overflow@?$basic_stringbuf@DU?$char_traits@D@std@@V?$allocator@D@2@@std@@MAEHH@Z 00407310 f i CinderApp.obj
 0001:00006510       ?pbackfail@?$basic_stringbuf@DU?$char_traits@D@std@@V?$allocator@D@2@@std@@MAEHH@Z 00407510 f i CinderApp.obj
 0001:00006570       ?underflow@?$basic_stringbuf@DU?$char_traits@D@std@@V?$allocator@D@2@@std@@MAEHXZ 00407570 f i CinderApp.obj
 0001:000065d0       ?seekoff@?$basic_stringbuf@DU?$char_traits@D@std@@V?$allocator@D@2@@std@@MAE?AV?$fpos@H@2@_JHH@Z 004075d0 f i CinderApp.obj
 0001:000067a0       ?seekpos@?$basic_stringbuf@DU?$char_traits@D@std@@V?$allocator@D@2@@std@@MAE?AV?$fpos@H@2@V32@H@Z 004077a0 f i CinderApp.obj
 0001:000068d0       ?clear@?$_Tree@V?$_Tmap_traits@IPAVVoxel@@U?$less@I@std@@V?$allocator@U?$pair@$$CBIPAVVoxel@@@std@@@3@$0A@@std@@@std@@QAEXXZ 004078d0 f i CinderApp.obj
 0001:00006930       ?push_back@?$vector@PAVVoxel@@V?$allocator@PAVVoxel@@@std@@@std@@QAEXABQAVVoxel@@@Z 00407930 f i CinderApp.obj
 0001:000069a0       ??0?$basic_ostringstream@DU?$char_traits@D@std@@V?$allocator@D@2@@std@@QAE@H@Z 004079a0 f i CinderApp.obj
 0001:00006b00       ?str@?$basic_ostringstream@DU?$char_traits@D@std@@V?$allocator@D@2@@std@@QBE?AV?$basic_string@DU?$char_traits@D@std@@V?$allocator@D@2@@2@XZ 00407b00 f i CinderApp.obj
 0001:00006b20       ??E?$_Tree_unchecked_const_iterator@V?$_Tree_val@U?$_Tree_simple_types@U?$pair@$$CBU?$pair@W4slot_meta_group@detail@signals2@boost@@V?$optional@H@4@@std@@V?$_List_iterator@V?$_List_val@U?$_List_simple_types@V?$shared_ptr@V?$connection_body@U?$pair@W4slot_meta_group@detail@signals2@boost@@V?$optional@H@4@@std@@V?$slot1@XAAVMouseEvent@app@cinder@@V?$function@$$A6AXAAVMouseEvent@app@cinder@@@Z@boost@@@signals2@boost@@Vmutex@45@@detail@signals2@boost@@@boost@@@std@@@std@@@2@@std@@@std@@@std@@U_Iterator_base0@2@@std@@QAEAAV01@XZ 00407b20 f i cinder:Window.obj
 0001:00006b20       ??E?$_Tree_unchecked_const_iterator@V?$_Tree_val@U?$_Tree_simple_types@U?$pair@$$CBHU?$pair@P6A?AV?$shared_ptr@VImageTarget@cinder@@@std@@V?$shared_ptr@VDataTarget@cinder@@@2@V?$shared_ptr@VImageSource@cinder@@@2@VOptions@ImageTarget@cinder@@ABV?$basic_string@DU?$char_traits@D@std@@V?$allocator@D@2@@2@@ZV82@@std@@@std@@@std@@@std@@U_Iterator_base0@2@@std@@QAEAAV01@XZ 00407b20 f i cinder:ImageIo.obj
 0001:00006b20       ??E?$_Tree_unchecked_const_iterator@V?$_Tree_val@U?$_Tree_simple_types@U?$pair@QAXV?$shared_ptr@VTimelineItem@cinder@@@std@@@std@@@std@@@std@@U_Iterator_base0@2@@std@@QAEAAV01@XZ 00407b20 f i cinder:Timeline.obj
 0001:00006b20       ??E?$_Tree_unchecked_const_iterator@V?$_Tree_val@U?$_Tree_simple_types@U?$pair@$$CBV?$basic_string@DU?$char_traits@D@std@@V?$allocator@D@2@@std@@V?$multimap@HP6A?AV?$shared_ptr@VImageSource@cinder@@@std@@V?$shared_ptr@VDataSource@cinder@@@2@VOptions@ImageSource@cinder@@@ZU?$less@H@2@V?$allocator@U?$pair@$$CBHP6A?AV?$shared_ptr@VImageSource@cinder@@@std@@V?$shared_ptr@VDataSource@cinder@@@2@VOptions@ImageSource@cinder@@@Z@std@@@2@@2@@std@@@std@@@std@@U_Iterator_base0@2@@std@@QAEAAV01@XZ 00407b20 f i cinder:ImageIo.obj
 0001:00006b20       ??E?$_Tree_unchecked_const_iterator@V?$_Tree_val@U?$_Tree_simple_types@U?$pair@QBXUtss_data_node@detail@boost@@@std@@@std@@@std@@U_Iterator_base0@2@@std@@QAEAAV01@XZ 00407b20 f i libboost_thread-vc110-mt-s-1_53:thread.obj
 0001:00006b20       ??E?$_Tree_unchecked_const_iterator@V?$_Tree_val@U?$_Tree_simple_types@U?$pair@$$CBV?$basic_string@DU?$char_traits@D@std@@V?$allocator@D@2@@std@@PBU_GUID@@@std@@@std@@@std@@U_Iterator_base0@2@@std@@QAEAAV01@XZ 00407b20 f i cinder:ImageTargetFileWic.obj
 0001:00006b20       ??E?$_Tree_unchecked_const_iterator@V?$_Tree_val@U?$_Tree_simple_types@U?$pair@$$CBV?$basic_string@DU?$char_traits@D@std@@V?$allocator@D@2@@std@@V?$multimap@HU?$pair@P6A?AV?$shared_ptr@VImageTarget@cinder@@@std@@V?$shared_ptr@VDataTarget@cinder@@@2@V?$shared_ptr@VImageSource@cinder@@@2@VOptions@ImageTarget@cinder@@ABV?$basic_string@DU?$char_traits@D@std@@V?$allocator@D@2@@2@@ZV82@@std@@U?$less@H@2@V?$allocator@U?$pair@$$CBHU?$pair@P6A?AV?$shared_ptr@VImageTarget@cinder@@@std@@V?$shared_ptr@VDataTarget@cinder@@@2@V?$shared_ptr@VImageSource@cinder@@@2@VOptions@ImageTarget@cinder@@ABV?$basic_string@DU?$char_traits@D@std@@V?$allocator@D@2@@2@@ZV82@@std@@@std@@@2@@2@@std@@@std@@@std@@U_Iterator_base0@2@@std@@QAEAAV01@XZ 00407b20 f i cinder:ImageIo.obj
 0001:00006b20       ??E?$_Tree_const_iterator@V?$_Tree_val@U?$_Tree_simple_types@U?$pair@$$CBIPAVVoxel@@@std@@@std@@@std@@@std@@QAEAAV01@XZ 00407b20 f i CinderApp.obj
 0001:00006b20       ??E?$_Tree_unchecked_const_iterator@V?$_Tree_val@U?$_Tree_simple_types@U?$pair@$$CBKV?$Vec2@M@cinder@@@std@@@std@@@std@@U_Iterator_base0@2@@std@@QAEAAV01@XZ 00407b20 f i cinder:AppImplMsw.obj
 0001:00006b20       ??E?$_Tree_unchecked_const_iterator@V?$_Tree_val@U?$_Tree_simple_types@U?$pair@$$CBU?$pair@W4slot_meta_group@detail@signals2@boost@@V?$optional@H@4@@std@@V?$_List_iterator@V?$_List_val@U?$_List_simple_types@V?$shared_ptr@V?$connection_body@U?$pair@W4slot_meta_group@detail@signals2@boost@@V?$optional@H@4@@std@@V?$slot0@XV?$function@$$A6AXXZ@boost@@@signals2@boost@@Vmutex@45@@detail@signals2@boost@@@boost@@@std@@@std@@@2@@std@@@std@@@std@@U_Iterator_base0@2@@std@@QAEAAV01@XZ 00407b20 f i cinder:Window.obj
 0001:00006b20       ??E?$_Tree_unchecked_const_iterator@V?$_Tree_val@U?$_Tree_simple_types@U?$pair@$$CBU?$pair@W4slot_meta_group@detail@signals2@boost@@V?$optional@H@4@@std@@V?$_List_iterator@V?$_List_val@U?$_List_simple_types@V?$shared_ptr@V?$connection_body@U?$pair@W4slot_meta_group@detail@signals2@boost@@V?$optional@H@4@@std@@V?$slot0@_NV?$function@$$A6A_NXZ@boost@@@signals2@boost@@Vmutex@45@@detail@signals2@boost@@@boost@@@std@@@std@@@2@@std@@@std@@@std@@U_Iterator_base0@2@@std@@QAEAAV01@XZ 00407b20 f i cinder:AppBasic.obj
 0001:00006b20       ??E?$_Tree_unchecked_const_iterator@V?$_Tree_val@U?$_Tree_simple_types@U?$pair@$$CBHP6A?AV?$shared_ptr@VImageSource@cinder@@@std@@V?$shared_ptr@VDataSource@cinder@@@2@VOptions@ImageSource@cinder@@@Z@std@@@std@@@std@@U_Iterator_base0@2@@std@@QAEAAV01@XZ 00407b20 f i cinder:ImageIo.obj
 0001:00006b20       ??E?$_Tree_const_iterator@V?$_Tree_val@U?$_Tree_simple_types@U?$pair@$$CBII@std@@@std@@@std@@@std@@QAEAAV01@XZ 00407b20 f i CinderApp.obj
 0001:00006b20       ??E?$_Tree_unchecked_const_iterator@V?$_Tree_val@U?$_Tree_simple_types@U?$pair@$$CBV?$basic_string@DU?$char_traits@D@std@@V?$allocator@D@2@@std@@H@std@@@std@@@std@@U_Iterator_base0@2@@std@@QAEAAV01@XZ 00407b20 f i cinder:GlslProg.obj
 0001:00006b20       ??E?$_Tree_unchecked_const_iterator@V?$_Tree_val@U?$_Tree_simple_types@U?$pair@$$CBV?$basic_string@DU?$char_traits@D@std@@V?$allocator@D@2@@std@@_N@std@@@std@@@std@@U_Iterator_base0@2@@std@@QAEAAV01@XZ 00407b20 f i cinder:gl.obj
 0001:00006b20       ??E?$_Tree_unchecked_const_iterator@V?$_Tree_val@U?$_Tree_simple_types@U?$pair@$$CBU?$pair@W4slot_meta_group@detail@signals2@boost@@V?$optional@H@4@@std@@V?$_List_iterator@V?$_List_val@U?$_List_simple_types@V?$shared_ptr@V?$connection_body@U?$pair@W4slot_meta_group@detail@signals2@boost@@V?$optional@H@4@@std@@V?$slot1@XAAVKeyEvent@app@cinder@@V?$function@$$A6AXAAVKeyEvent@app@cinder@@@Z@boost@@@signals2@boost@@Vmutex@45@@detail@signals2@boost@@@boost@@@std@@@std@@@2@@std@@@std@@@std@@U_Iterator_base0@2@@std@@QAEAAV01@XZ 00407b20 f i cinder:Window.obj
 0001:00006b20       ??E?$_Tree_unchecked_const_iterator@V?$_Tree_val@U?$_Tree_simple_types@U?$pair@$$CBU?$pair@W4slot_meta_group@detail@signals2@boost@@V?$optional@H@4@@std@@V?$_List_iterator@V?$_List_val@U?$_List_simple_types@V?$shared_ptr@V?$connection_body@U?$pair@W4slot_meta_group@detail@signals2@boost@@V?$optional@H@4@@std@@V?$slot1@XAAVFileDropEvent@app@cinder@@V?$function@$$A6AXAAVFileDropEvent@app@cinder@@@Z@boost@@@signals2@boost@@Vmutex@45@@detail@signals2@boost@@@boost@@@std@@@std@@@2@@std@@@std@@@std@@U_Iterator_base0@2@@std@@QAEAAV01@XZ 00407b20 f i cinder:Window.obj
 0001:00006b20       ??E?$_Tree_unchecked_const_iterator@V?$_Tree_val@U?$_Tree_simple_types@U?$pair@$$CBU?$pair@W4slot_meta_group@detail@signals2@boost@@V?$optional@H@4@@std@@V?$_List_iterator@V?$_List_val@U?$_List_simple_types@V?$shared_ptr@V?$connection_body@U?$pair@W4slot_meta_group@detail@signals2@boost@@V?$optional@H@4@@std@@V?$slot1@XAAVTouchEvent@app@cinder@@V?$function@$$A6AXAAVTouchEvent@app@cinder@@@Z@boost@@@signals2@boost@@Vmutex@45@@detail@signals2@boost@@@boost@@@std@@@std@@@2@@std@@@std@@@std@@U_Iterator_base0@2@@std@@QAEAAV01@XZ 00407b20 f i cinder:Window.obj
 0001:00006b70       ??_G?$basic_ostream@DU?$char_traits@D@std@@@std@@UAEPAXI@Z 00407b70 f i CinderApp.obj
 0001:00006b70       ??_E?$basic_ostream@DU?$char_traits@D@std@@@std@@UAEPAXI@Z 00407b70 f i * CIL library *:* CIL module *
 0001:00006bc0       ??_G?$basic_streambuf@DU?$char_traits@D@std@@@std@@UAEPAXI@Z 00407bc0 f i CinderApp.obj
 0001:00006bc0       ??_E?$basic_streambuf@DU?$char_traits@D@std@@@std@@UAEPAXI@Z 00407bc0 f i * CIL library *:* CIL module *
 0001:00006c10       ??_E?$basic_stringbuf@DU?$char_traits@D@std@@V?$allocator@D@2@@std@@UAEPAXI@Z 00407c10 f i * CIL library *:* CIL module *
 0001:00006c10       ??_G?$basic_stringbuf@DU?$char_traits@D@std@@V?$allocator@D@2@@std@@UAEPAXI@Z 00407c10 f i CinderApp.obj
 0001:00006c40       ??_G?$basic_ostringstream@DU?$char_traits@D@std@@V?$allocator@D@2@@std@@UAEPAXI@Z 00407c40 f i CinderApp.obj
 0001:00006c40       ??_E?$basic_ostringstream@DU?$char_traits@D@std@@V?$allocator@D@2@@std@@UAEPAXI@Z 00407c40 f i * CIL library *:* CIL module *
 0001:00006cb0       ?assign@?$basic_string@DU?$char_traits@D@std@@V?$allocator@D@2@@std@@QAEAAV12@$$QAV12@@Z 00407cb0 f i CinderApp.obj
 0001:00006d30       ?_Assign_rv@?$basic_string@DU?$char_traits@D@std@@V?$allocator@D@2@@std@@QAEX$$QAV12@@Z 00407d30 f i CinderApp.obj
 0001:00006d90       ?assign@?$basic_string@DU?$char_traits@D@std@@V?$allocator@D@2@@std@@QAEAAV12@ABV12@II@Z 00407d90 f i CinderApp.obj
 0001:00006ec0       ?compare@?$basic_string@DU?$char_traits@D@std@@V?$allocator@D@2@@std@@QBEHIIPBDI@Z 00407ec0 f i CinderApp.obj
 0001:00006f30       ?init@?$basic_ios@DU?$char_traits@D@std@@@std@@IAEXPAV?$basic_streambuf@DU?$char_traits@D@std@@@2@_N@Z 00407f30 f i CinderApp.obj
 0001:00006ff0       ?_Gnavail@?$basic_streambuf@DU?$char_traits@D@std@@@std@@IBE_JXZ 00407ff0 f i CinderApp.obj
 0001:00007010       ?_Pnavail@?$basic_streambuf@DU?$char_traits@D@std@@@std@@IBE_JXZ 00408010 f i CinderApp.obj
 0001:00007030       ?assign@?$basic_string@_WU?$char_traits@_W@std@@V?$allocator@_W@2@@std@@QAEAAV12@ABV12@II@Z 00408030 f i CinderApp.obj
 0001:00007150       ?_Eos@?$basic_string@_WU?$char_traits@_W@std@@V?$allocator@_W@2@@std@@QAEXI@Z 00408150 f i CinderApp.obj
 0001:00007180       ?_Tidy@?$basic_string@_WU?$char_traits@_W@std@@V?$allocator@_W@2@@std@@QAEX_NI@Z 00408180 f i CinderApp.obj
 0001:000071d0       ?_Myptr@?$_String_val@U?$_Simple_types@_W@std@@@std@@QBEPB_WXZ 004081d0 f i CinderApp.obj
 0001:000071e0       ?str@?$basic_stringbuf@DU?$char_traits@D@std@@V?$allocator@D@2@@std@@QBE?AV?$basic_string@DU?$char_traits@D@std@@V?$allocator@D@2@@2@XZ 004081e0 f i CinderApp.obj
 0001:00007310       ?_Tidy@?$basic_stringbuf@DU?$char_traits@D@std@@V?$allocator@D@2@@std@@IAEXXZ 00408310 f i CinderApp.obj
 0001:00007370       ?_Erase@?$_Tree@V?$_Tmap_traits@HP6A?AV?$shared_ptr@VImageSource@cinder@@@std@@V?$shared_ptr@VDataSource@cinder@@@2@VOptions@ImageSource@cinder@@@ZU?$less@H@2@V?$allocator@U?$pair@$$CBHP6A?AV?$shared_ptr@VImageSource@cinder@@@std@@V?$shared_ptr@VDataSource@cinder@@@2@VOptions@ImageSource@cinder@@@Z@std@@@2@$0A@@std@@@std@@IAEXPAU?$_Tree_node@U?$pair@$$CBHP6A?AV?$shared_ptr@VImageSource@cinder@@@std@@V?$shared_ptr@VDataSource@cinder@@@2@VOptions@ImageSource@cinder@@@Z@std@@PAX@2@@Z 00408370 f i cinder:ImageIo.obj
 0001:00007370       ?_Erase@?$_Tree@V?$_Tmap_traits@IIU?$less@I@std@@V?$allocator@U?$pair@$$CBII@std@@@2@$0A@@std@@@std@@IAEXPAU?$_Tree_node@U?$pair@$$CBII@std@@PAX@2@@Z 00408370 f i CinderApp.obj
 0001:00007370       ?_Erase@?$_Tree@V?$_Tmap_traits@KV?$Vec2@M@cinder@@U?$less@K@std@@V?$allocator@U?$pair@$$CBKV?$Vec2@M@cinder@@@std@@@4@$0A@@std@@@std@@IAEXPAU?$_Tree_node@U?$pair@$$CBKV?$Vec2@M@cinder@@@std@@PAX@2@@Z 00408370 f i cinder:AppImplMsw.obj
 0001:00007370       ?_Erase@?$_Tree@V?$_Tmap_traits@IPAVVoxel@@U?$less@I@std@@V?$allocator@U?$pair@$$CBIPAVVoxel@@@std@@@3@$0A@@std@@@std@@IAEXPAU?$_Tree_node@U?$pair@$$CBIPAVVoxel@@@std@@PAX@2@@Z 00408370 f i CinderApp.obj
 0001:00007370       ?_Erase@?$_Tree@V?$_Tmap_traits@HP6A?AV?$shared_ptr@VImageSource@cinder@@@std@@V?$shared_ptr@VDataSource@cinder@@@2@VOptions@ImageSource@cinder@@@ZU?$less@H@2@V?$allocator@U?$pair@$$CBHP6A?AV?$shared_ptr@VImageSource@cinder@@@std@@V?$shared_ptr@VDataSource@cinder@@@2@VOptions@ImageSource@cinder@@@Z@std@@@2@$00@std@@@std@@IAEXPAU?$_Tree_node@U?$pair@$$CBHP6A?AV?$shared_ptr@VImageSource@cinder@@@std@@V?$shared_ptr@VDataSource@cinder@@@2@VOptions@ImageSource@cinder@@@Z@std@@PAX@2@@Z 00408370 f i cinder:ImageIo.obj
 0001:000073b0       ?_Reserve@?$vector@PAVVoxel@@V?$allocator@PAVVoxel@@@std@@@std@@IAEXI@Z 004083b0 f i CinderApp.obj
 0001:00007420       ??0sentry@?$basic_ostream@DU?$char_traits@D@std@@@std@@QAE@AAV12@@Z 00408420 f i CinderApp.obj
 0001:000074b0       ??1sentry@?$basic_ostream@DU?$char_traits@D@std@@@std@@QAE@XZ 004084b0 f i CinderApp.obj
 0001:000074e0       ?put@?$num_put@DV?$ostreambuf_iterator@DU?$char_traits@D@std@@@std@@@std@@QBE?AV?$ostreambuf_iterator@DU?$char_traits@D@std@@@2@V32@AAVios_base@2@DK@Z 004084e0 f i CinderApp.obj
 0001:00007510       ?put@?$num_put@DV?$ostreambuf_iterator@DU?$char_traits@D@std@@@std@@@std@@QBE?AV?$ostreambuf_iterator@DU?$char_traits@D@std@@@2@V32@AAVios_base@2@DN@Z 00408510 f i CinderApp.obj
 0001:00007540       ?do_put@?$num_put@DV?$ostreambuf_iterator@DU?$char_traits@D@std@@@std@@@std@@MBE?AV?$ostreambuf_iterator@DU?$char_traits@D@std@@@2@V32@AAVios_base@2@D_N@Z 00408540 f i CinderApp.obj
 0001:00007730       ?do_put@?$num_put@DV?$ostreambuf_iterator@DU?$char_traits@D@std@@@std@@@std@@MBE?AV?$ostreambuf_iterator@DU?$char_traits@D@std@@@2@V32@AAVios_base@2@DJ@Z 00408730 f i CinderApp.obj
 0001:000077b0       ?do_put@?$num_put@DV?$ostreambuf_iterator@DU?$char_traits@D@std@@@std@@@std@@MBE?AV?$ostreambuf_iterator@DU?$char_traits@D@std@@@2@V32@AAVios_base@2@DK@Z 004087b0 f i CinderApp.obj
 0001:00007830       ?do_put@?$num_put@DV?$ostreambuf_iterator@DU?$char_traits@D@std@@@std@@@std@@MBE?AV?$ostreambuf_iterator@DU?$char_traits@D@std@@@2@V32@AAVios_base@2@D_J@Z 00408830 f i CinderApp.obj
 0001:000078b0       ?do_put@?$num_put@DV?$ostreambuf_iterator@DU?$char_traits@D@std@@@std@@@std@@MBE?AV?$ostreambuf_iterator@DU?$char_traits@D@std@@@2@V32@AAVios_base@2@D_K@Z 004088b0 f i CinderApp.obj
 0001:00007930       ?do_put@?$num_put@DV?$ostreambuf_iterator@DU?$char_traits@D@std@@@std@@@std@@MBE?AV?$ostreambuf_iterator@DU?$char_traits@D@std@@@2@V32@AAVios_base@2@DN@Z 00408930 f i CinderApp.obj
 0001:00007b70       ?do_put@?$num_put@DV?$ostreambuf_iterator@DU?$char_traits@D@std@@@std@@@std@@MBE?AV?$ostreambuf_iterator@DU?$char_traits@D@std@@@2@V32@AAVios_base@2@DO@Z 00408b70 f i CinderApp.obj
 0001:00007da0       ?do_put@?$num_put@DV?$ostreambuf_iterator@DU?$char_traits@D@std@@@std@@@std@@MBE?AV?$ostreambuf_iterator@DU?$char_traits@D@std@@@2@V32@AAVios_base@2@DPBX@Z 00408da0 f i CinderApp.obj
 0001:00007e10       ?falsename@?$numpunct@D@std@@QBE?AV?$basic_string@DU?$char_traits@D@std@@V?$allocator@D@2@@2@XZ 00408e10 f i CinderApp.obj
 0001:00007e30       ?truename@?$numpunct@D@std@@QBE?AV?$basic_string@DU?$char_traits@D@std@@V?$allocator@D@2@@2@XZ 00408e30 f i CinderApp.obj
 0001:00007e50       ?do_decimal_point@?$numpunct@D@std@@MBEDXZ 00408e50 f i CinderApp.obj
 0001:00007e60       ?do_thousands_sep@?$numpunct@D@std@@MBEDXZ 00408e60 f i CinderApp.obj
 0001:00007e70       ?do_grouping@?$numpunct@D@std@@MBE?AV?$basic_string@DU?$char_traits@D@std@@V?$allocator@D@2@@2@XZ 00408e70 f i CinderApp.obj
 0001:00007ed0       ?do_falsename@?$numpunct@D@std@@MBE?AV?$basic_string@DU?$char_traits@D@std@@V?$allocator@D@2@@2@XZ 00408ed0 f i CinderApp.obj
 0001:00007f30       ?do_truename@?$numpunct@D@std@@MBE?AV?$basic_string@DU?$char_traits@D@std@@V?$allocator@D@2@@2@XZ 00408f30 f i CinderApp.obj
 0001:00007f90       ??_G?$numpunct@D@std@@MAEPAXI@Z 00408f90 f i CinderApp.obj
 0001:00007f90       ??_E?$numpunct@D@std@@MAEPAXI@Z 00408f90 f i * CIL library *:* CIL module *
 0001:00007fe0       ?assign@?$basic_string@DU?$char_traits@D@std@@V?$allocator@D@2@@std@@QAEAAV12@PBDI@Z 00408fe0 f i CinderApp.obj
 0001:000080e0       ?insert@?$basic_string@DU?$char_traits@D@std@@V?$allocator@D@2@@std@@QAEAAV12@IID@Z 004090e0 f i CinderApp.obj
 0001:000081f0       ?erase@?$basic_string@DU?$char_traits@D@std@@V?$allocator@D@2@@std@@QAEAAV12@I@Z 004091f0 f i CinderApp.obj
 0001:00008230       ?erase@?$basic_string@DU?$char_traits@D@std@@V?$allocator@D@2@@std@@QAEAAV12@II@Z 00409230 f i CinderApp.obj
 0001:000082d0       ?_Eos@?$basic_string@DU?$char_traits@D@std@@V?$allocator@D@2@@std@@QAEXI@Z 004092d0 f i CinderApp.obj
 0001:00008300       ??0?$_Wrap_alloc@V?$allocator@U?$_Tree_node@U?$pair@$$CBV?$basic_string@DU?$char_traits@D@std@@V?$allocator@D@2@@std@@_N@std@@PAX@std@@@std@@@std@@QAE@XZ 00409300 f i cinder:gl.obj
 0001:00008300       ??0?$_Wrap_alloc@V?$allocator@D@std@@@std@@QAE@XZ 00409300 f i CinderApp.obj
 0001:00008300       ??0?$service_id@Vselect_reactor@detail@asio@boost@@@detail@asio@boost@@QAE@XZ 00409300 f i cinder:App.obj
 0001:00008300       ??0?$service_id@Vwin_iocp_io_service@detail@asio@boost@@@detail@asio@boost@@QAE@XZ 00409300 f i cinder:App.obj
 0001:00008300       ??0?$service_id@Vstrand_service@detail@asio@boost@@@detail@asio@boost@@QAE@XZ 00409300 f i cinder:App.obj
 0001:00008300       ??0?$_Wrap_alloc@V?$allocator@U?$_Tree_node@U?$pair@$$CBIPAVVoxel@@@std@@PAX@std@@@std@@@std@@QAE@XZ 00409300 f i CinderApp.obj
 0001:00008300       ??0?$_Wrap_alloc@V?$allocator@V?$shared_ptr@VDisplay@cinder@@@std@@@std@@@std@@QAE@XZ 00409300 f i cinder:Display.obj
 0001:00008300       ??0?$_Wrap_alloc@V?$allocator@_W@std@@@std@@QAE@XZ 00409300 f i CinderApp.obj
 0001:00008310       ?_Osfx@?$basic_ostream@DU?$char_traits@D@std@@@std@@QAEXXZ 00409310 f i CinderApp.obj
 0001:000083a0       ??0?$basic_streambuf@DU?$char_traits@D@std@@@std@@IAE@XZ 004093a0 f i CinderApp.obj
 0001:00008430       ?erase@?$basic_string@_WU?$char_traits@_W@std@@V?$allocator@_W@2@@std@@QAEAAV12@I@Z 00409430 f i CinderApp.obj
 0001:00008470       ?erase@?$basic_string@_WU?$char_traits@_W@std@@V?$allocator@_W@2@@std@@QAEAAV12@II@Z 00409470 f i CinderApp.obj
 0001:00008520       ?_Grow@?$basic_string@_WU?$char_traits@_W@std@@V?$allocator@_W@2@@std@@QAE_NI_N@Z 00409520 f i CinderApp.obj
 0001:000085e0       ?_Destroy@?$vector@Vpath@filesystem@boost@@V?$allocator@Vpath@filesystem@boost@@@std@@@std@@IAEXPAVpath@filesystem@boost@@0@Z 004095e0 f i CinderApp.obj
 0001:00008620       ?_Init@?$basic_stringbuf@DU?$char_traits@D@std@@V?$allocator@D@2@@std@@IAEXPBDIH@Z 00409620 f i CinderApp.obj
 0001:000086e0       ?_Reallocate@?$vector@IV?$allocator@I@std@@@std@@IAEXI@Z 004096e0 f i cinder:ObjLoader.obj
 0001:000086e0       ?_Reallocate@?$vector@PAVVoxel@@V?$allocator@PAVVoxel@@@std@@@std@@IAEXI@Z 004096e0 f i CinderApp.obj
 0001:00008760       ?erase@?$_Tree@V?$_Tmap_traits@IIU?$less@I@std@@V?$allocator@U?$pair@$$CBII@std@@@2@$0A@@std@@@std@@QAE?AV?$_Tree_iterator@V?$_Tree_val@U?$_Tree_simple_types@U?$pair@$$CBII@std@@@std@@@std@@@2@V?$_Tree_const_iterator@V?$_Tree_val@U?$_Tree_simple_types@U?$pair@$$CBII@std@@@std@@@std@@@2@0@Z 00409760 f i CinderApp.obj
 0001:00008800       ??1_Sentry_base@?$basic_ostream@DU?$char_traits@D@std@@@std@@QAE@XZ 00409800 f i CinderApp.obj
 0001:00008820       ?_Fput@?$num_put@DV?$ostreambuf_iterator@DU?$char_traits@D@std@@@std@@@std@@ABA?AV?$ostreambuf_iterator@DU?$char_traits@D@std@@@2@V32@AAVios_base@2@DPBDIIII@Z 00409820 f i CinderApp.obj
 0001:00008ca0       ?_Ifmt@?$num_put@DV?$ostreambuf_iterator@DU?$char_traits@D@std@@@std@@@std@@ABAPADPADPBDH@Z 00409ca0 f i CinderApp.obj
 0001:00008d30       ?_Iput@?$num_put@DV?$ostreambuf_iterator@DU?$char_traits@D@std@@@std@@@std@@ABA?AV?$ostreambuf_iterator@DU?$char_traits@D@std@@@2@V32@AAVios_base@2@DPADI@Z 00409d30 f i CinderApp.obj
 0001:000090d0       ?_Put@?$num_put@DV?$ostreambuf_iterator@DU?$char_traits@D@std@@@std@@@std@@ABA?AV?$ostreambuf_iterator@DU?$char_traits@D@std@@@2@V32@PBDI@Z 0040a0d0 f i CinderApp.obj
 0001:00009140       ?_Rep@?$num_put@DV?$ostreambuf_iterator@DU?$char_traits@D@std@@@std@@@std@@ABA?AV?$ostreambuf_iterator@DU?$char_traits@D@std@@@2@V32@DI@Z 0040a140 f i CinderApp.obj
 0001:000091b0       ?grouping@?$numpunct@D@std@@QBE?AV?$basic_string@DU?$char_traits@D@std@@V?$allocator@D@2@@2@XZ 0040a1b0 f i CinderApp.obj
 0001:000091d0       ?_Tidy@?$numpunct@D@std@@AAEXXZ 0040a1d0 f i CinderApp.obj
 0001:000091f0       ?assign@?$basic_string@DU?$char_traits@D@std@@V?$allocator@D@2@@std@@QAEAAV12@ID@Z 0040a1f0 f i CinderApp.obj
 0001:000092c0       ?_Chassign@?$basic_string@DU?$char_traits@D@std@@V?$allocator@D@2@@std@@QAEXIID@Z 0040a2c0 f i CinderApp.obj
 0001:00009310       ?_Copy@?$basic_string@DU?$char_traits@D@std@@V?$allocator@D@2@@std@@QAEXII@Z 0040a310 f i CinderApp.obj
 0001:00009460       ?_Init@?$basic_streambuf@DU?$char_traits@D@std@@@std@@IAEXXZ 0040a460 f i CinderApp.obj
 0001:000094c0       ?_Copy@?$basic_string@_WU?$char_traits@_W@std@@V?$allocator@_W@2@@std@@QAEXII@Z 0040a4c0 f i CinderApp.obj
 0001:00009620       ?erase@?$_Tree@V?$_Tmap_traits@IIU?$less@I@std@@V?$allocator@U?$pair@$$CBII@std@@@2@$0A@@std@@@std@@QAE?AV?$_Tree_iterator@V?$_Tree_val@U?$_Tree_simple_types@U?$pair@$$CBII@std@@@std@@@std@@@2@V?$_Tree_const_iterator@V?$_Tree_val@U?$_Tree_simple_types@U?$pair@$$CBII@std@@@std@@@std@@@2@@Z 0040a620 f i CinderApp.obj
 0001:00009880       ?clear@?$_Tree@V?$_Tmap_traits@HP6A?AV?$shared_ptr@VImageSource@cinder@@@std@@V?$shared_ptr@VDataSource@cinder@@@2@VOptions@ImageSource@cinder@@@ZU?$less@H@2@V?$allocator@U?$pair@$$CBHP6A?AV?$shared_ptr@VImageSource@cinder@@@std@@V?$shared_ptr@VDataSource@cinder@@@2@VOptions@ImageSource@cinder@@@Z@std@@@2@$0A@@std@@@std@@QAEXXZ 0040a880 f i cinder:ImageIo.obj
 0001:00009880       ?clear@?$_Tree@V?$_Tmap_traits@KV?$Vec2@M@cinder@@U?$less@K@std@@V?$allocator@U?$pair@$$CBKV?$Vec2@M@cinder@@@std@@@4@$0A@@std@@@std@@QAEXXZ 0040a880 f i cinder:AppImplMsw.obj
 0001:00009880       ?clear@?$_Tree@V?$_Tmap_traits@IIU?$less@I@std@@V?$allocator@U?$pair@$$CBII@std@@@2@$0A@@std@@@std@@QAEXXZ 0040a880 f i CinderApp.obj
 0001:00009880       ?clear@?$_Tree@V?$_Tmap_traits@HP6A?AV?$shared_ptr@VImageSource@cinder@@@std@@V?$shared_ptr@VDataSource@cinder@@@2@VOptions@ImageSource@cinder@@@ZU?$less@H@2@V?$allocator@U?$pair@$$CBHP6A?AV?$shared_ptr@VImageSource@cinder@@@std@@V?$shared_ptr@VDataSource@cinder@@@2@VOptions@ImageSource@cinder@@@Z@std@@@2@$00@std@@@std@@QAEXXZ 0040a880 f i cinder:ImageIo.obj
 0001:000098d0       ??4?$ostreambuf_iterator@DU?$char_traits@D@std@@@std@@QAEAAV01@D@Z 0040a8d0 f i CinderApp.obj
 0001:00009920       ?allocate@?$_Wrap_alloc@V?$allocator@D@std@@@std@@QAEPADI@Z 0040a920 f i CinderApp.obj
 0001:00009950       ?allocate@?$_Wrap_alloc@V?$allocator@_W@std@@@std@@QAEPA_WI@Z 0040a950 f i CinderApp.obj
 0001:00009980       ?_Lrotate@?$_Tree@V?$_Tmap_traits@U?$pair@W4slot_meta_group@detail@signals2@boost@@V?$optional@H@4@@std@@V?$_List_iterator@V?$_List_val@U?$_List_simple_types@V?$shared_ptr@V?$connection_body@U?$pair@W4slot_meta_group@detail@signals2@boost@@V?$optional@H@4@@std@@V?$slot1@XAAVKeyEvent@app@cinder@@V?$function@$$A6AXAAVKeyEvent@app@cinder@@@Z@boost@@@signals2@boost@@Vmutex@45@@detail@signals2@boost@@@boost@@@std@@@std@@@2@V?$group_key_less@HU?$less@H@std@@@detail@signals2@boost@@V?$allocator@U?$pair@$$CBU?$pair@W4slot_meta_group@detail@signals2@boost@@V?$optional@H@4@@std@@V?$_List_iterator@V?$_List_val@U?$_List_simple_types@V?$shared_ptr@V?$connection_body@U?$pair@W4slot_meta_group@detail@signals2@boost@@V?$optional@H@4@@std@@V?$slot1@XAAVKeyEvent@app@cinder@@V?$function@$$A6AXAAVKeyEvent@app@cinder@@@Z@boost@@@signals2@boost@@Vmutex@45@@detail@signals2@boost@@@boost@@@std@@@std@@@2@@std@@@2@$0A@@std@@@std@@IAEXPAU?$_Tree_node@U?$pair@$$CBU?$pair@W4slot_meta_group@detail@signals2@boost@@V?$optional@H@4@@std@@V?$_List_iterator@V?$_List_val@U?$_List_simple_types@V?$shared_ptr@V?$connection_body@U?$pair@W4slot_meta_group@detail@signals2@boost@@V?$optional@H@4@@std@@V?$slot1@XAAVKeyEvent@app@cinder@@V?$function@$$A6AXAAVKeyEvent@app@cinder@@@Z@boost@@@signals2@boost@@Vmutex@45@@detail@signals2@boost@@@boost@@@std@@@std@@@2@@std@@PAX@2@@Z 0040a980 f i cinder:Window.obj
 0001:00009980       ?_Lrotate@?$_Tree@V?$_Tmap_traits@U?$pair@W4slot_meta_group@detail@signals2@boost@@V?$optional@H@4@@std@@V?$_List_iterator@V?$_List_val@U?$_List_simple_types@V?$shared_ptr@V?$connection_body@U?$pair@W4slot_meta_group@detail@signals2@boost@@V?$optional@H@4@@std@@V?$slot0@XV?$function@$$A6AXXZ@boost@@@signals2@boost@@Vmutex@45@@detail@signals2@boost@@@boost@@@std@@@std@@@2@V?$group_key_less@HU?$less@H@std@@@detail@signals2@boost@@V?$allocator@U?$pair@$$CBU?$pair@W4slot_meta_group@detail@signals2@boost@@V?$optional@H@4@@std@@V?$_List_iterator@V?$_List_val@U?$_List_simple_types@V?$shared_ptr@V?$connection_body@U?$pair@W4slot_meta_group@detail@signals2@boost@@V?$optional@H@4@@std@@V?$slot0@XV?$function@$$A6AXXZ@boost@@@signals2@boost@@Vmutex@45@@detail@signals2@boost@@@boost@@@std@@@std@@@2@@std@@@2@$0A@@std@@@std@@IAEXPAU?$_Tree_node@U?$pair@$$CBU?$pair@W4slot_meta_group@detail@signals2@boost@@V?$optional@H@4@@std@@V?$_List_iterator@V?$_List_val@U?$_List_simple_types@V?$shared_ptr@V?$connection_body@U?$pair@W4slot_meta_group@detail@signals2@boost@@V?$optional@H@4@@std@@V?$slot0@XV?$function@$$A6AXXZ@boost@@@signals2@boost@@Vmutex@45@@detail@signals2@boost@@@boost@@@std@@@std@@@2@@std@@PAX@2@@Z 0040a980 f i cinder:Window.obj
 0001:00009980       ?_Lrotate@?$_Tree@V?$_Tmap_traits@U?$pair@W4slot_meta_group@detail@signals2@boost@@V?$optional@H@4@@std@@V?$_List_iterator@V?$_List_val@U?$_List_simple_types@V?$shared_ptr@V?$connection_body@U?$pair@W4slot_meta_group@detail@signals2@boost@@V?$optional@H@4@@std@@V?$slot1@XAAVMouseEvent@app@cinder@@V?$function@$$A6AXAAVMouseEvent@app@cinder@@@Z@boost@@@signals2@boost@@Vmutex@45@@detail@signals2@boost@@@boost@@@std@@@std@@@2@V?$group_key_less@HU?$less@H@std@@@detail@signals2@boost@@V?$allocator@U?$pair@$$CBU?$pair@W4slot_meta_group@detail@signals2@boost@@V?$optional@H@4@@std@@V?$_List_iterator@V?$_List_val@U?$_List_simple_types@V?$shared_ptr@V?$connection_body@U?$pair@W4slot_meta_group@detail@signals2@boost@@V?$optional@H@4@@std@@V?$slot1@XAAVMouseEvent@app@cinder@@V?$function@$$A6AXAAVMouseEvent@app@cinder@@@Z@boost@@@signals2@boost@@Vmutex@45@@detail@signals2@boost@@@boost@@@std@@@std@@@2@@std@@@2@$0A@@std@@@std@@IAEXPAU?$_Tree_node@U?$pair@$$CBU?$pair@W4slot_meta_group@detail@signals2@boost@@V?$optional@H@4@@std@@V?$_List_iterator@V?$_List_val@U?$_List_simple_types@V?$shared_ptr@V?$connection_body@U?$pair@W4slot_meta_group@detail@signals2@boost@@V?$optional@H@4@@std@@V?$slot1@XAAVMouseEvent@app@cinder@@V?$function@$$A6AXAAVMouseEvent@app@cinder@@@Z@boost@@@signals2@boost@@Vmutex@45@@detail@signals2@boost@@@boost@@@std@@@std@@@2@@std@@PAX@2@@Z 0040a980 f i cinder:Window.obj
 0001:00009980       ?_Lrotate@?$_Tree@V?$_Tmap_traits@HP6A?AV?$shared_ptr@VImageSource@cinder@@@std@@V?$shared_ptr@VDataSource@cinder@@@2@VOptions@ImageSource@cinder@@@ZU?$less@H@2@V?$allocator@U?$pair@$$CBHP6A?AV?$shared_ptr@VImageSource@cinder@@@std@@V?$shared_ptr@VDataSource@cinder@@@2@VOptions@ImageSource@cinder@@@Z@std@@@2@$0A@@std@@@std@@IAEXPAU?$_Tree_node@U?$pair@$$CBHP6A?AV?$shared_ptr@VImageSource@cinder@@@std@@V?$shared_ptr@VDataSource@cinder@@@2@VOptions@ImageSource@cinder@@@Z@std@@PAX@2@@Z 0040a980 f i cinder:ImageIo.obj
 0001:00009980       ?_Lrotate@?$_Tree@V?$_Tmap_traits@KV?$Vec2@M@cinder@@U?$less@K@std@@V?$allocator@U?$pair@$$CBKV?$Vec2@M@cinder@@@std@@@4@$0A@@std@@@std@@IAEXPAU?$_Tree_node@U?$pair@$$CBKV?$Vec2@M@cinder@@@std@@PAX@2@@Z 0040a980 f i cinder:AppImplMsw.obj
 0001:00009980       ?_Lrotate@?$_Tree@V?$_Tmap_traits@V?$basic_string@DU?$char_traits@D@std@@V?$allocator@D@2@@std@@PBU_GUID@@U?$less@V?$basic_string@DU?$char_traits@D@std@@V?$allocator@D@2@@std@@@2@V?$allocator@U?$pair@$$CBV?$basic_string@DU?$char_traits@D@std@@V?$allocator@D@2@@std@@PBU_GUID@@@std@@@2@$0A@@std@@@std@@IAEXPAU?$_Tree_node@U?$pair@$$CBV?$basic_string@DU?$char_traits@D@std@@V?$allocator@D@2@@std@@PBU_GUID@@@std@@PAX@2@@Z 0040a980 f i cinder:ImageTargetFileWic.obj
 0001:00009980       ?_Lrotate@?$_Tree@V?$_Tmap_traits@IIU?$less@I@std@@V?$allocator@U?$pair@$$CBII@std@@@2@$0A@@std@@@std@@IAEXPAU?$_Tree_node@U?$pair@$$CBII@std@@PAX@2@@Z 0040a980 f i CinderApp.obj
 0001:00009980       ?_Lrotate@?$_Tree@V?$_Tmap_traits@V?$basic_string@DU?$char_traits@D@std@@V?$allocator@D@2@@std@@HU?$less@V?$basic_string@DU?$char_traits@D@std@@V?$allocator@D@2@@std@@@2@V?$allocator@U?$pair@$$CBV?$basic_string@DU?$char_traits@D@std@@V?$allocator@D@2@@std@@H@std@@@2@$0A@@std@@@std@@IAEXPAU?$_Tree_node@U?$pair@$$CBV?$basic_string@DU?$char_traits@D@std@@V?$allocator@D@2@@std@@H@std@@PAX@2@@Z 0040a980 f i cinder:GlslProg.obj
 0001:00009980       ?_Lrotate@?$_Tree@V?$_Tmap_traits@HP6A?AV?$shared_ptr@VImageSource@cinder@@@std@@V?$shared_ptr@VDataSource@cinder@@@2@VOptions@ImageSource@cinder@@@ZU?$less@H@2@V?$allocator@U?$pair@$$CBHP6A?AV?$shared_ptr@VImageSource@cinder@@@std@@V?$shared_ptr@VDataSource@cinder@@@2@VOptions@ImageSource@cinder@@@Z@std@@@2@$00@std@@@std@@IAEXPAU?$_Tree_node@U?$pair@$$CBHP6A?AV?$shared_ptr@VImageSource@cinder@@@std@@V?$shared_ptr@VDataSource@cinder@@@2@VOptions@ImageSource@cinder@@@Z@std@@PAX@2@@Z 0040a980 f i cinder:ImageIo.obj
 0001:00009980       ?_Lrotate@?$_Tree@V?$_Tmap_traits@U?$pair@W4slot_meta_group@detail@signals2@boost@@V?$optional@H@4@@std@@V?$_List_iterator@V?$_List_val@U?$_List_simple_types@V?$shared_ptr@V?$connection_body@U?$pair@W4slot_meta_group@detail@signals2@boost@@V?$optional@H@4@@std@@V?$slot0@_NV?$function@$$A6A_NXZ@boost@@@signals2@boost@@Vmutex@45@@detail@signals2@boost@@@boost@@@std@@@std@@@2@V?$group_key_less@HU?$less@H@std@@@detail@signals2@boost@@V?$allocator@U?$pair@$$CBU?$pair@W4slot_meta_group@detail@signals2@boost@@V?$optional@H@4@@std@@V?$_List_iterator@V?$_List_val@U?$_List_simple_types@V?$shared_ptr@V?$connection_body@U?$pair@W4slot_meta_group@detail@signals2@boost@@V?$optional@H@4@@std@@V?$slot0@_NV?$function@$$A6A_NXZ@boost@@@signals2@boost@@Vmutex@45@@detail@signals2@boost@@@boost@@@std@@@std@@@2@@std@@@2@$0A@@std@@@std@@IAEXPAU?$_Tree_node@U?$pair@$$CBU?$pair@W4slot_meta_group@detail@signals2@boost@@V?$optional@H@4@@std@@V?$_List_iterator@V?$_List_val@U?$_List_simple_types@V?$shared_ptr@V?$connection_body@U?$pair@W4slot_meta_group@detail@signals2@boost@@V?$optional@H@4@@std@@V?$slot0@_NV?$function@$$A6A_NXZ@boost@@@signals2@boost@@Vmutex@45@@detail@signals2@boost@@@boost@@@std@@@std@@@2@@std@@PAX@2@@Z 0040a980 f i cinder:AppBasic.obj
 0001:00009980       ?_Lrotate@?$_Tree@V?$_Tmap_traits@V?$basic_string@DU?$char_traits@D@std@@V?$allocator@D@2@@std@@V?$multimap@HP6A?AV?$shared_ptr@VImageSource@cinder@@@std@@V?$shared_ptr@VDataSource@cinder@@@2@VOptions@ImageSource@cinder@@@ZU?$less@H@2@V?$allocator@U?$pair@$$CBHP6A?AV?$shared_ptr@VImageSource@cinder@@@std@@V?$shared_ptr@VDataSource@cinder@@@2@VOptions@ImageSource@cinder@@@Z@std@@@2@@2@U?$less@V?$basic_string@DU?$char_traits@D@std@@V?$allocator@D@2@@std@@@2@V?$allocator@U?$pair@$$CBV?$basic_string@DU?$char_traits@D@std@@V?$allocator@D@2@@std@@V?$multimap@HP6A?AV?$shared_ptr@VImageSource@cinder@@@std@@V?$shared_ptr@VDataSource@cinder@@@2@VOptions@ImageSource@cinder@@@ZU?$less@H@2@V?$allocator@U?$pair@$$CBHP6A?AV?$shared_ptr@VImageSource@cinder@@@std@@V?$shared_ptr@VDataSource@cinder@@@2@VOptions@ImageSource@cinder@@@Z@std@@@2@@2@@std@@@2@$0A@@std@@@std@@IAEXPAU?$_Tree_node@U?$pair@$$CBV?$basic_string@DU?$char_traits@D@std@@V?$allocator@D@2@@std@@V?$multimap@HP6A?AV?$shared_ptr@VImageSource@cinder@@@std@@V?$shared_ptr@VDataSource@cinder@@@2@VOptions@ImageSource@cinder@@@ZU?$less@H@2@V?$allocator@U?$pair@$$CBHP6A?AV?$shared_ptr@VImageSource@cinder@@@std@@V?$shared_ptr@VDataSource@cinder@@@2@VOptions@ImageSource@cinder@@@Z@std@@@2@@2@@std@@PAX@2@@Z 0040a980 f i cinder:ImageIo.obj
 0001:00009980       ?_Lrotate@?$_Tree@V?$_Tmap_traits@HU?$pair@P6A?AV?$shared_ptr@VImageTarget@cinder@@@std@@V?$shared_ptr@VDataTarget@cinder@@@2@V?$shared_ptr@VImageSource@cinder@@@2@VOptions@ImageTarget@cinder@@ABV?$basic_string@DU?$char_traits@D@std@@V?$allocator@D@2@@2@@ZV82@@std@@U?$less@H@2@V?$allocator@U?$pair@$$CBHU?$pair@P6A?AV?$shared_ptr@VImageTarget@cinder@@@std@@V?$shared_ptr@VDataTarget@cinder@@@2@V?$shared_ptr@VImageSource@cinder@@@2@VOptions@ImageTarget@cinder@@ABV?$basic_string@DU?$char_traits@D@std@@V?$allocator@D@2@@2@@ZV82@@std@@@std@@@2@$00@std@@@std@@IAEXPAU?$_Tree_node@U?$pair@$$CBHU?$pair@P6A?AV?$shared_ptr@VImageTarget@cinder@@@std@@V?$shared_ptr@VDataTarget@cinder@@@2@V?$shared_ptr@VImageSource@cinder@@@2@VOptions@ImageTarget@cinder@@ABV?$basic_string@DU?$char_traits@D@std@@V?$allocator@D@2@@2@@ZV82@@std@@@std@@PAX@2@@Z 0040a980 f i cinder:ImageIo.obj
 0001:00009980       ?_Lrotate@?$_Tree@V?$_Tmap_traits@U?$pair@W4slot_meta_group@detail@signals2@boost@@V?$optional@H@4@@std@@V?$_List_iterator@V?$_List_val@U?$_List_simple_types@V?$shared_ptr@V?$connection_body@U?$pair@W4slot_meta_group@detail@signals2@boost@@V?$optional@H@4@@std@@V?$slot1@XAAVFileDropEvent@app@cinder@@V?$function@$$A6AXAAVFileDropEvent@app@cinder@@@Z@boost@@@signals2@boost@@Vmutex@45@@detail@signals2@boost@@@boost@@@std@@@std@@@2@V?$group_key_less@HU?$less@H@std@@@detail@signals2@boost@@V?$allocator@U?$pair@$$CBU?$pair@W4slot_meta_group@detail@signals2@boost@@V?$optional@H@4@@std@@V?$_List_iterator@V?$_List_val@U?$_List_simple_types@V?$shared_ptr@V?$connection_body@U?$pair@W4slot_meta_group@detail@signals2@boost@@V?$optional@H@4@@std@@V?$slot1@XAAVFileDropEvent@app@cinder@@V?$function@$$A6AXAAVFileDropEvent@app@cinder@@@Z@boost@@@signals2@boost@@Vmutex@45@@detail@signals2@boost@@@boost@@@std@@@std@@@2@@std@@@2@$0A@@std@@@std@@IAEXPAU?$_Tree_node@U?$pair@$$CBU?$pair@W4slot_meta_group@detail@signals2@boost@@V?$optional@H@4@@std@@V?$_List_iterator@V?$_List_val@U?$_List_simple_types@V?$shared_ptr@V?$connection_body@U?$pair@W4slot_meta_group@detail@signals2@boost@@V?$optional@H@4@@std@@V?$slot1@XAAVFileDropEvent@app@cinder@@V?$function@$$A6AXAAVFileDropEvent@app@cinder@@@Z@boost@@@signals2@boost@@Vmutex@45@@detail@signals2@boost@@@boost@@@std@@@std@@@2@@std@@PAX@2@@Z 0040a980 f i cinder:Window.obj
 0001:00009980       ?_Lrotate@?$_Tree@V?$_Tmap_traits@U?$pair@W4slot_meta_group@detail@signals2@boost@@V?$optional@H@4@@std@@V?$_List_iterator@V?$_List_val@U?$_List_simple_types@V?$shared_ptr@V?$connection_body@U?$pair@W4slot_meta_group@detail@signals2@boost@@V?$optional@H@4@@std@@V?$slot1@XAAVTouchEvent@app@cinder@@V?$function@$$A6AXAAVTouchEvent@app@cinder@@@Z@boost@@@signals2@boost@@Vmutex@45@@detail@signals2@boost@@@boost@@@std@@@std@@@2@V?$group_key_less@HU?$less@H@std@@@detail@signals2@boost@@V?$allocator@U?$pair@$$CBU?$pair@W4slot_meta_group@detail@signals2@boost@@V?$optional@H@4@@std@@V?$_List_iterator@V?$_List_val@U?$_List_simple_types@V?$shared_ptr@V?$connection_body@U?$pair@W4slot_meta_group@detail@signals2@boost@@V?$optional@H@4@@std@@V?$slot1@XAAVTouchEvent@app@cinder@@V?$function@$$A6AXAAVTouchEvent@app@cinder@@@Z@boost@@@signals2@boost@@Vmutex@45@@detail@signals2@boost@@@boost@@@std@@@std@@@2@@std@@@2@$0A@@std@@@std@@IAEXPAU?$_Tree_node@U?$pair@$$CBU?$pair@W4slot_meta_group@detail@signals2@boost@@V?$optional@H@4@@std@@V?$_List_iterator@V?$_List_val@U?$_List_simple_types@V?$shared_ptr@V?$connection_body@U?$pair@W4slot_meta_group@detail@signals2@boost@@V?$optional@H@4@@std@@V?$slot1@XAAVTouchEvent@app@cinder@@V?$function@$$A6AXAAVTouchEvent@app@cinder@@@Z@boost@@@signals2@boost@@Vmutex@45@@detail@signals2@boost@@@boost@@@std@@@std@@@2@@std@@PAX@2@@Z 0040a980 f i cinder:Window.obj
 0001:00009980       ?_Lrotate@?$_Tree@V?$_Tmap_traits@V?$basic_string@DU?$char_traits@D@std@@V?$allocator@D@2@@std@@_NU?$less@V?$basic_string@DU?$char_traits@D@std@@V?$allocator@D@2@@std@@@2@V?$allocator@U?$pair@$$CBV?$basic_string@DU?$char_traits@D@std@@V?$allocator@D@2@@std@@_N@std@@@2@$0A@@std@@@std@@IAEXPAU?$_Tree_node@U?$pair@$$CBV?$basic_string@DU?$char_traits@D@std@@V?$allocator@D@2@@std@@_N@std@@PAX@2@@Z 0040a980 f i cinder:gl.obj
 0001:00009980       ?_Lrotate@?$_Tree@V?$_Tmap_traits@PAXV?$shared_ptr@VTimelineItem@cinder@@@std@@U?$less@PAX@2@V?$allocator@U?$pair@QAXV?$shared_ptr@VTimelineItem@cinder@@@std@@@std@@@2@$00@std@@@std@@IAEXPAU?$_Tree_node@U?$pair@QAXV?$shared_ptr@VTimelineItem@cinder@@@std@@@std@@PAX@2@@Z 0040a980 f i cinder:Timeline.obj
 0001:00009980       ?_Lrotate@?$_Tree@V?$_Tmap_traits@V?$basic_string@DU?$char_traits@D@std@@V?$allocator@D@2@@std@@V?$multimap@HU?$pair@P6A?AV?$shared_ptr@VImageTarget@cinder@@@std@@V?$shared_ptr@VDataTarget@cinder@@@2@V?$shared_ptr@VImageSource@cinder@@@2@VOptions@ImageTarget@cinder@@ABV?$basic_string@DU?$char_traits@D@std@@V?$allocator@D@2@@2@@ZV82@@std@@U?$less@H@2@V?$allocator@U?$pair@$$CBHU?$pair@P6A?AV?$shared_ptr@VImageTarget@cinder@@@std@@V?$shared_ptr@VDataTarget@cinder@@@2@V?$shared_ptr@VImageSource@cinder@@@2@VOptions@ImageTarget@cinder@@ABV?$basic_string@DU?$char_traits@D@std@@V?$allocator@D@2@@2@@ZV82@@std@@@std@@@2@@2@U?$less@V?$basic_string@DU?$char_traits@D@std@@V?$allocator@D@2@@std@@@2@V?$allocator@U?$pair@$$CBV?$basic_string@DU?$char_traits@D@std@@V?$allocator@D@2@@std@@V?$multimap@HU?$pair@P6A?AV?$shared_ptr@VImageTarget@cinder@@@std@@V?$shared_ptr@VDataTarget@cinder@@@2@V?$shared_ptr@VImageSource@cinder@@@2@VOptions@ImageTarget@cinder@@ABV?$basic_string@DU?$char_traits@D@std@@V?$allocator@D@2@@2@@ZV82@@std@@U?$less@H@2@V?$allocator@U?$pair@$$CBHU?$pair@P6A?AV?$shared_ptr@VImageTarget@cinder@@@std@@V?$shared_ptr@VDataTarget@cinder@@@2@V?$shared_ptr@VImageSource@cinder@@@2@VOptions@ImageTarget@cinder@@ABV?$basic_string@DU?$char_traits@D@std@@V?$allocator@D@2@@2@@ZV82@@std@@@std@@@2@@2@@std@@@2@$0A@@std@@@std@@IAEXPAU?$_Tree_node@U?$pair@$$CBV?$basic_string@DU?$char_traits@D@std@@V?$allocator@D@2@@std@@V?$multimap@HU?$pair@P6A?AV?$shared_ptr@VImageTarget@cinder@@@std@@V?$shared_ptr@VDataTarget@cinder@@@2@V?$shared_ptr@VImageSource@cinder@@@2@VOptions@ImageTarget@cinder@@ABV?$basic_string@DU?$char_traits@D@std@@V?$allocator@D@2@@2@@ZV82@@std@@U?$less@H@2@V?$allocator@U?$pair@$$CBHU?$pair@P6A?AV?$shared_ptr@VImageTarget@cinder@@@std@@V?$shared_ptr@VDataTarget@cinder@@@2@V?$shared_ptr@VImageSource@cinder@@@2@VOptions@ImageTarget@cinder@@ABV?$basic_string@DU?$char_traits@D@std@@V?$allocator@D@2@@2@@ZV82@@std@@@std@@@2@@2@@std@@PAX@2@@Z 0040a980 f i cinder:ImageIo.obj
 0001:000099e0       ?_Rrotate@?$_Tree@V?$_Tmap_traits@V?$basic_string@DU?$char_traits@D@std@@V?$allocator@D@2@@std@@V?$multimap@HU?$pair@P6A?AV?$shared_ptr@VImageTarget@cinder@@@std@@V?$shared_ptr@VDataTarget@cinder@@@2@V?$shared_ptr@VImageSource@cinder@@@2@VOptions@ImageTarget@cinder@@ABV?$basic_string@DU?$char_traits@D@std@@V?$allocator@D@2@@2@@ZV82@@std@@U?$less@H@2@V?$allocator@U?$pair@$$CBHU?$pair@P6A?AV?$shared_ptr@VImageTarget@cinder@@@std@@V?$shared_ptr@VDataTarget@cinder@@@2@V?$shared_ptr@VImageSource@cinder@@@2@VOptions@ImageTarget@cinder@@ABV?$basic_string@DU?$char_traits@D@std@@V?$allocator@D@2@@2@@ZV82@@std@@@std@@@2@@2@U?$less@V?$basic_string@DU?$char_traits@D@std@@V?$allocator@D@2@@std@@@2@V?$allocator@U?$pair@$$CBV?$basic_string@DU?$char_traits@D@std@@V?$allocator@D@2@@std@@V?$multimap@HU?$pair@P6A?AV?$shared_ptr@VImageTarget@cinder@@@std@@V?$shared_ptr@VDataTarget@cinder@@@2@V?$shared_ptr@VImageSource@cinder@@@2@VOptions@ImageTarget@cinder@@ABV?$basic_string@DU?$char_traits@D@std@@V?$allocator@D@2@@2@@ZV82@@std@@U?$less@H@2@V?$allocator@U?$pair@$$CBHU?$pair@P6A?AV?$shared_ptr@VImageTarget@cinder@@@std@@V?$shared_ptr@VDataTarget@cinder@@@2@V?$shared_ptr@VImageSource@cinder@@@2@VOptions@ImageTarget@cinder@@ABV?$basic_string@DU?$char_traits@D@std@@V?$allocator@D@2@@2@@ZV82@@std@@@std@@@2@@2@@std@@@2@$0A@@std@@@std@@IAEXPAU?$_Tree_node@U?$pair@$$CBV?$basic_string@DU?$char_traits@D@std@@V?$allocator@D@2@@std@@V?$multimap@HU?$pair@P6A?AV?$shared_ptr@VImageTarget@cinder@@@std@@V?$shared_ptr@VDataTarget@cinder@@@2@V?$shared_ptr@VImageSource@cinder@@@2@VOptions@ImageTarget@cinder@@ABV?$basic_string@DU?$char_traits@D@std@@V?$allocator@D@2@@2@@ZV82@@std@@U?$less@H@2@V?$allocator@U?$pair@$$CBHU?$pair@P6A?AV?$shared_ptr@VImageTarget@cinder@@@std@@V?$shared_ptr@VDataTarget@cinder@@@2@V?$shared_ptr@VImageSource@cinder@@@2@VOptions@ImageTarget@cinder@@ABV?$basic_string@DU?$char_traits@D@std@@V?$allocator@D@2@@2@@ZV82@@std@@@std@@@2@@2@@std@@PAX@2@@Z 0040a9e0 f i cinder:ImageIo.obj
 0001:000099e0       ?_Rrotate@?$_Tree@V?$_Tmap_traits@HP6A?AV?$shared_ptr@VImageSource@cinder@@@std@@V?$shared_ptr@VDataSource@cinder@@@2@VOptions@ImageSource@cinder@@@ZU?$less@H@2@V?$allocator@U?$pair@$$CBHP6A?AV?$shared_ptr@VImageSource@cinder@@@std@@V?$shared_ptr@VDataSource@cinder@@@2@VOptions@ImageSource@cinder@@@Z@std@@@2@$00@std@@@std@@IAEXPAU?$_Tree_node@U?$pair@$$CBHP6A?AV?$shared_ptr@VImageSource@cinder@@@std@@V?$shared_ptr@VDataSource@cinder@@@2@VOptions@ImageSource@cinder@@@Z@std@@PAX@2@@Z 0040a9e0 f i cinder:ImageIo.obj
 0001:000099e0       ?_Rrotate@?$_Tree@V?$_Tmap_traits@HU?$pair@P6A?AV?$shared_ptr@VImageTarget@cinder@@@std@@V?$shared_ptr@VDataTarget@cinder@@@2@V?$shared_ptr@VImageSource@cinder@@@2@VOptions@ImageTarget@cinder@@ABV?$basic_string@DU?$char_traits@D@std@@V?$allocator@D@2@@2@@ZV82@@std@@U?$less@H@2@V?$allocator@U?$pair@$$CBHU?$pair@P6A?AV?$shared_ptr@VImageTarget@cinder@@@std@@V?$shared_ptr@VDataTarget@cinder@@@2@V?$shared_ptr@VImageSource@cinder@@@2@VOptions@ImageTarget@cinder@@ABV?$basic_string@DU?$char_traits@D@std@@V?$allocator@D@2@@2@@ZV82@@std@@@std@@@2@$00@std@@@std@@IAEXPAU?$_Tree_node@U?$pair@$$CBHU?$pair@P6A?AV?$shared_ptr@VImageTarget@cinder@@@std@@V?$shared_ptr@VDataTarget@cinder@@@2@V?$shared_ptr@VImageSource@cinder@@@2@VOptions@ImageTarget@cinder@@ABV?$basic_string@DU?$char_traits@D@std@@V?$allocator@D@2@@2@@ZV82@@std@@@std@@PAX@2@@Z 0040a9e0 f i cinder:ImageIo.obj
 0001:000099e0       ?_Rrotate@?$_Tree@V?$_Tmap_traits@V?$basic_string@DU?$char_traits@D@std@@V?$allocator@D@2@@std@@V?$multimap@HP6A?AV?$shared_ptr@VImageSource@cinder@@@std@@V?$shared_ptr@VDataSource@cinder@@@2@VOptions@ImageSource@cinder@@@ZU?$less@H@2@V?$allocator@U?$pair@$$CBHP6A?AV?$shared_ptr@VImageSource@cinder@@@std@@V?$shared_ptr@VDataSource@cinder@@@2@VOptions@ImageSource@cinder@@@Z@std@@@2@@2@U?$less@V?$basic_string@DU?$char_traits@D@std@@V?$allocator@D@2@@std@@@2@V?$allocator@U?$pair@$$CBV?$basic_string@DU?$char_traits@D@std@@V?$allocator@D@2@@std@@V?$multimap@HP6A?AV?$shared_ptr@VImageSource@cinder@@@std@@V?$shared_ptr@VDataSource@cinder@@@2@VOptions@ImageSource@cinder@@@ZU?$less@H@2@V?$allocator@U?$pair@$$CBHP6A?AV?$shared_ptr@VImageSource@cinder@@@std@@V?$shared_ptr@VDataSource@cinder@@@2@VOptions@ImageSource@cinder@@@Z@std@@@2@@2@@std@@@2@$0A@@std@@@std@@IAEXPAU?$_Tree_node@U?$pair@$$CBV?$basic_string@DU?$char_traits@D@std@@V?$allocator@D@2@@std@@V?$multimap@HP6A?AV?$shared_ptr@VImageSource@cinder@@@std@@V?$shared_ptr@VDataSource@cinder@@@2@VOptions@ImageSource@cinder@@@ZU?$less@H@2@V?$allocator@U?$pair@$$CBHP6A?AV?$shared_ptr@VImageSource@cinder@@@std@@V?$shared_ptr@VDataSource@cinder@@@2@VOptions@ImageSource@cinder@@@Z@std@@@2@@2@@std@@PAX@2@@Z 0040a9e0 f i cinder:ImageIo.obj
 0001:000099e0       ?_Rrotate@?$_Tree@V?$_Tmap_traits@PAXV?$shared_ptr@VTimelineItem@cinder@@@std@@U?$less@PAX@2@V?$allocator@U?$pair@QAXV?$shared_ptr@VTimelineItem@cinder@@@std@@@std@@@2@$00@std@@@std@@IAEXPAU?$_Tree_node@U?$pair@QAXV?$shared_ptr@VTimelineItem@cinder@@@std@@@std@@PAX@2@@Z 0040a9e0 f i cinder:Timeline.obj
 0001:000099e0       ?_Rrotate@?$_Tree@V?$_Tmap_traits@U?$pair@W4slot_meta_group@detail@signals2@boost@@V?$optional@H@4@@std@@V?$_List_iterator@V?$_List_val@U?$_List_simple_types@V?$shared_ptr@V?$connection_body@U?$pair@W4slot_meta_group@detail@signals2@boost@@V?$optional@H@4@@std@@V?$slot1@XAAVKeyEvent@app@cinder@@V?$function@$$A6AXAAVKeyEvent@app@cinder@@@Z@boost@@@signals2@boost@@Vmutex@45@@detail@signals2@boost@@@boost@@@std@@@std@@@2@V?$group_key_less@HU?$less@H@std@@@detail@signals2@boost@@V?$allocator@U?$pair@$$CBU?$pair@W4slot_meta_group@detail@signals2@boost@@V?$optional@H@4@@std@@V?$_List_iterator@V?$_List_val@U?$_List_simple_types@V?$shared_ptr@V?$connection_body@U?$pair@W4slot_meta_group@detail@signals2@boost@@V?$optional@H@4@@std@@V?$slot1@XAAVKeyEvent@app@cinder@@V?$function@$$A6AXAAVKeyEvent@app@cinder@@@Z@boost@@@signals2@boost@@Vmutex@45@@detail@signals2@boost@@@boost@@@std@@@std@@@2@@std@@@2@$0A@@std@@@std@@IAEXPAU?$_Tree_node@U?$pair@$$CBU?$pair@W4slot_meta_group@detail@signals2@boost@@V?$optional@H@4@@std@@V?$_List_iterator@V?$_List_val@U?$_List_simple_types@V?$shared_ptr@V?$connection_body@U?$pair@W4slot_meta_group@detail@signals2@boost@@V?$optional@H@4@@std@@V?$slot1@XAAVKeyEvent@app@cinder@@V?$function@$$A6AXAAVKeyEvent@app@cinder@@@Z@boost@@@signals2@boost@@Vmutex@45@@detail@signals2@boost@@@boost@@@std@@@std@@@2@@std@@PAX@2@@Z 0040a9e0 f i cinder:Window.obj
 0001:000099e0       ?_Rrotate@?$_Tree@V?$_Tmap_traits@V?$basic_string@DU?$char_traits@D@std@@V?$allocator@D@2@@std@@_NU?$less@V?$basic_string@DU?$char_traits@D@std@@V?$allocator@D@2@@std@@@2@V?$allocator@U?$pair@$$CBV?$basic_string@DU?$char_traits@D@std@@V?$allocator@D@2@@std@@_N@std@@@2@$0A@@std@@@std@@IAEXPAU?$_Tree_node@U?$pair@$$CBV?$basic_string@DU?$char_traits@D@std@@V?$allocator@D@2@@std@@_N@std@@PAX@2@@Z 0040a9e0 f i cinder:gl.obj
 0001:000099e0       ?_Rrotate@?$_Tree@V?$_Tmap_traits@HP6A?AV?$shared_ptr@VImageSource@cinder@@@std@@V?$shared_ptr@VDataSource@cinder@@@2@VOptions@ImageSource@cinder@@@ZU?$less@H@2@V?$allocator@U?$pair@$$CBHP6A?AV?$shared_ptr@VImageSource@cinder@@@std@@V?$shared_ptr@VDataSource@cinder@@@2@VOptions@ImageSource@cinder@@@Z@std@@@2@$0A@@std@@@std@@IAEXPAU?$_Tree_node@U?$pair@$$CBHP6A?AV?$shared_ptr@VImageSource@cinder@@@std@@V?$shared_ptr@VDataSource@cinder@@@2@VOptions@ImageSource@cinder@@@Z@std@@PAX@2@@Z 0040a9e0 f i cinder:ImageIo.obj
 0001:000099e0       ?_Rrotate@?$_Tree@V?$_Tmap_traits@KV?$Vec2@M@cinder@@U?$less@K@std@@V?$allocator@U?$pair@$$CBKV?$Vec2@M@cinder@@@std@@@4@$0A@@std@@@std@@IAEXPAU?$_Tree_node@U?$pair@$$CBKV?$Vec2@M@cinder@@@std@@PAX@2@@Z 0040a9e0 f i cinder:AppImplMsw.obj
 0001:000099e0       ?_Rrotate@?$_Tree@V?$_Tmap_traits@U?$pair@W4slot_meta_group@detail@signals2@boost@@V?$optional@H@4@@std@@V?$_List_iterator@V?$_List_val@U?$_List_simple_types@V?$shared_ptr@V?$connection_body@U?$pair@W4slot_meta_group@detail@signals2@boost@@V?$optional@H@4@@std@@V?$slot0@XV?$function@$$A6AXXZ@boost@@@signals2@boost@@Vmutex@45@@detail@signals2@boost@@@boost@@@std@@@std@@@2@V?$group_key_less@HU?$less@H@std@@@detail@signals2@boost@@V?$allocator@U?$pair@$$CBU?$pair@W4slot_meta_group@detail@signals2@boost@@V?$optional@H@4@@std@@V?$_List_iterator@V?$_List_val@U?$_List_simple_types@V?$shared_ptr@V?$connection_body@U?$pair@W4slot_meta_group@detail@signals2@boost@@V?$optional@H@4@@std@@V?$slot0@XV?$function@$$A6AXXZ@boost@@@signals2@boost@@Vmutex@45@@detail@signals2@boost@@@boost@@@std@@@std@@@2@@std@@@2@$0A@@std@@@std@@IAEXPAU?$_Tree_node@U?$pair@$$CBU?$pair@W4slot_meta_group@detail@signals2@boost@@V?$optional@H@4@@std@@V?$_List_iterator@V?$_List_val@U?$_List_simple_types@V?$shared_ptr@V?$connection_body@U?$pair@W4slot_meta_group@detail@signals2@boost@@V?$optional@H@4@@std@@V?$slot0@XV?$function@$$A6AXXZ@boost@@@signals2@boost@@Vmutex@45@@detail@signals2@boost@@@boost@@@std@@@std@@@2@@std@@PAX@2@@Z 0040a9e0 f i cinder:Window.obj
 0001:000099e0       ?_Rrotate@?$_Tree@V?$_Tmap_traits@U?$pair@W4slot_meta_group@detail@signals2@boost@@V?$optional@H@4@@std@@V?$_List_iterator@V?$_List_val@U?$_List_simple_types@V?$shared_ptr@V?$connection_body@U?$pair@W4slot_meta_group@detail@signals2@boost@@V?$optional@H@4@@std@@V?$slot1@XAAVMouseEvent@app@cinder@@V?$function@$$A6AXAAVMouseEvent@app@cinder@@@Z@boost@@@signals2@boost@@Vmutex@45@@detail@signals2@boost@@@boost@@@std@@@std@@@2@V?$group_key_less@HU?$less@H@std@@@detail@signals2@boost@@V?$allocator@U?$pair@$$CBU?$pair@W4slot_meta_group@detail@signals2@boost@@V?$optional@H@4@@std@@V?$_List_iterator@V?$_List_val@U?$_List_simple_types@V?$shared_ptr@V?$connection_body@U?$pair@W4slot_meta_group@detail@signals2@boost@@V?$optional@H@4@@std@@V?$slot1@XAAVMouseEvent@app@cinder@@V?$function@$$A6AXAAVMouseEvent@app@cinder@@@Z@boost@@@signals2@boost@@Vmutex@45@@detail@signals2@boost@@@boost@@@std@@@std@@@2@@std@@@2@$0A@@std@@@std@@IAEXPAU?$_Tree_node@U?$pair@$$CBU?$pair@W4slot_meta_group@detail@signals2@boost@@V?$optional@H@4@@std@@V?$_List_iterator@V?$_List_val@U?$_List_simple_types@V?$shared_ptr@V?$connection_body@U?$pair@W4slot_meta_group@detail@signals2@boost@@V?$optional@H@4@@std@@V?$slot1@XAAVMouseEvent@app@cinder@@V?$function@$$A6AXAAVMouseEvent@app@cinder@@@Z@boost@@@signals2@boost@@Vmutex@45@@detail@signals2@boost@@@boost@@@std@@@std@@@2@@std@@PAX@2@@Z 0040a9e0 f i cinder:Window.obj
 0001:000099e0       ?_Rrotate@?$_Tree@V?$_Tmap_traits@U?$pair@W4slot_meta_group@detail@signals2@boost@@V?$optional@H@4@@std@@V?$_List_iterator@V?$_List_val@U?$_List_simple_types@V?$shared_ptr@V?$connection_body@U?$pair@W4slot_meta_group@detail@signals2@boost@@V?$optional@H@4@@std@@V?$slot0@_NV?$function@$$A6A_NXZ@boost@@@signals2@boost@@Vmutex@45@@detail@signals2@boost@@@boost@@@std@@@std@@@2@V?$group_key_less@HU?$less@H@std@@@detail@signals2@boost@@V?$allocator@U?$pair@$$CBU?$pair@W4slot_meta_group@detail@signals2@boost@@V?$optional@H@4@@std@@V?$_List_iterator@V?$_List_val@U?$_List_simple_types@V?$shared_ptr@V?$connection_body@U?$pair@W4slot_meta_group@detail@signals2@boost@@V?$optional@H@4@@std@@V?$slot0@_NV?$function@$$A6A_NXZ@boost@@@signals2@boost@@Vmutex@45@@detail@signals2@boost@@@boost@@@std@@@std@@@2@@std@@@2@$0A@@std@@@std@@IAEXPAU?$_Tree_node@U?$pair@$$CBU?$pair@W4slot_meta_group@detail@signals2@boost@@V?$optional@H@4@@std@@V?$_List_iterator@V?$_List_val@U?$_List_simple_types@V?$shared_ptr@V?$connection_body@U?$pair@W4slot_meta_group@detail@signals2@boost@@V?$optional@H@4@@std@@V?$slot0@_NV?$function@$$A6A_NXZ@boost@@@signals2@boost@@Vmutex@45@@detail@signals2@boost@@@boost@@@std@@@std@@@2@@std@@PAX@2@@Z 0040a9e0 f i cinder:AppBasic.obj
 0001:000099e0       ?_Rrotate@?$_Tree@V?$_Tmap_traits@U?$pair@W4slot_meta_group@detail@signals2@boost@@V?$optional@H@4@@std@@V?$_List_iterator@V?$_List_val@U?$_List_simple_types@V?$shared_ptr@V?$connection_body@U?$pair@W4slot_meta_group@detail@signals2@boost@@V?$optional@H@4@@std@@V?$slot1@XAAVFileDropEvent@app@cinder@@V?$function@$$A6AXAAVFileDropEvent@app@cinder@@@Z@boost@@@signals2@boost@@Vmutex@45@@detail@signals2@boost@@@boost@@@std@@@std@@@2@V?$group_key_less@HU?$less@H@std@@@detail@signals2@boost@@V?$allocator@U?$pair@$$CBU?$pair@W4slot_meta_group@detail@signals2@boost@@V?$optional@H@4@@std@@V?$_List_iterator@V?$_List_val@U?$_List_simple_types@V?$shared_ptr@V?$connection_body@U?$pair@W4slot_meta_group@detail@signals2@boost@@V?$optional@H@4@@std@@V?$slot1@XAAVFileDropEvent@app@cinder@@V?$function@$$A6AXAAVFileDropEvent@app@cinder@@@Z@boost@@@signals2@boost@@Vmutex@45@@detail@signals2@boost@@@boost@@@std@@@std@@@2@@std@@@2@$0A@@std@@@std@@IAEXPAU?$_Tree_node@U?$pair@$$CBU?$pair@W4slot_meta_group@detail@signals2@boost@@V?$optional@H@4@@std@@V?$_List_iterator@V?$_List_val@U?$_List_simple_types@V?$shared_ptr@V?$connection_body@U?$pair@W4slot_meta_group@detail@signals2@boost@@V?$optional@H@4@@std@@V?$slot1@XAAVFileDropEvent@app@cinder@@V?$function@$$A6AXAAVFileDropEvent@app@cinder@@@Z@boost@@@signals2@boost@@Vmutex@45@@detail@signals2@boost@@@boost@@@std@@@std@@@2@@std@@PAX@2@@Z 0040a9e0 f i cinder:Window.obj
 0001:000099e0       ?_Rrotate@?$_Tree@V?$_Tmap_traits@IIU?$less@I@std@@V?$allocator@U?$pair@$$CBII@std@@@2@$0A@@std@@@std@@IAEXPAU?$_Tree_node@U?$pair@$$CBII@std@@PAX@2@@Z 0040a9e0 f i CinderApp.obj
 0001:000099e0       ?_Rrotate@?$_Tree@V?$_Tmap_traits@U?$pair@W4slot_meta_group@detail@signals2@boost@@V?$optional@H@4@@std@@V?$_List_iterator@V?$_List_val@U?$_List_simple_types@V?$shared_ptr@V?$connection_body@U?$pair@W4slot_meta_group@detail@signals2@boost@@V?$optional@H@4@@std@@V?$slot1@XAAVTouchEvent@app@cinder@@V?$function@$$A6AXAAVTouchEvent@app@cinder@@@Z@boost@@@signals2@boost@@Vmutex@45@@detail@signals2@boost@@@boost@@@std@@@std@@@2@V?$group_key_less@HU?$less@H@std@@@detail@signals2@boost@@V?$allocator@U?$pair@$$CBU?$pair@W4slot_meta_group@detail@signals2@boost@@V?$optional@H@4@@std@@V?$_List_iterator@V?$_List_val@U?$_List_simple_types@V?$shared_ptr@V?$connection_body@U?$pair@W4slot_meta_group@detail@signals2@boost@@V?$optional@H@4@@std@@V?$slot1@XAAVTouchEvent@app@cinder@@V?$function@$$A6AXAAVTouchEvent@app@cinder@@@Z@boost@@@signals2@boost@@Vmutex@45@@detail@signals2@boost@@@boost@@@std@@@std@@@2@@std@@@2@$0A@@std@@@std@@IAEXPAU?$_Tree_node@U?$pair@$$CBU?$pair@W4slot_meta_group@detail@signals2@boost@@V?$optional@H@4@@std@@V?$_List_iterator@V?$_List_val@U?$_List_simple_types@V?$shared_ptr@V?$connection_body@U?$pair@W4slot_meta_group@detail@signals2@boost@@V?$optional@H@4@@std@@V?$slot1@XAAVTouchEvent@app@cinder@@V?$function@$$A6AXAAVTouchEvent@app@cinder@@@Z@boost@@@signals2@boost@@Vmutex@45@@detail@signals2@boost@@@boost@@@std@@@std@@@2@@std@@PAX@2@@Z 0040a9e0 f i cinder:Window.obj
 0001:000099e0       ?_Rrotate@?$_Tree@V?$_Tmap_traits@V?$basic_string@DU?$char_traits@D@std@@V?$allocator@D@2@@std@@PBU_GUID@@U?$less@V?$basic_string@DU?$char_traits@D@std@@V?$allocator@D@2@@std@@@2@V?$allocator@U?$pair@$$CBV?$basic_string@DU?$char_traits@D@std@@V?$allocator@D@2@@std@@PBU_GUID@@@std@@@2@$0A@@std@@@std@@IAEXPAU?$_Tree_node@U?$pair@$$CBV?$basic_string@DU?$char_traits@D@std@@V?$allocator@D@2@@std@@PBU_GUID@@@std@@PAX@2@@Z 0040a9e0 f i cinder:ImageTargetFileWic.obj
 0001:000099e0       ?_Rrotate@?$_Tree@V?$_Tmap_traits@V?$basic_string@DU?$char_traits@D@std@@V?$allocator@D@2@@std@@HU?$less@V?$basic_string@DU?$char_traits@D@std@@V?$allocator@D@2@@std@@@2@V?$allocator@U?$pair@$$CBV?$basic_string@DU?$char_traits@D@std@@V?$allocator@D@2@@std@@H@std@@@2@$0A@@std@@@std@@IAEXPAU?$_Tree_node@U?$pair@$$CBV?$basic_string@DU?$char_traits@D@std@@V?$allocator@D@2@@std@@H@std@@PAX@2@@Z 0040a9e0 f i cinder:GlslProg.obj
 0001:00009a40       ?_Max@?$_Tree_val@U?$_Tree_simple_types@U?$pair@$$CBII@std@@@std@@@std@@SAPAU?$_Tree_node@U?$pair@$$CBII@std@@PAX@2@PAU32@@Z 0040aa40 f i CinderApp.obj
 0001:00009a40       ?_Max@?$_Tree_val@U?$_Tree_simple_types@U?$pair@$$CBIPAVVoxel@@@std@@@std@@@std@@SAPAU?$_Tree_node@U?$pair@$$CBIPAVVoxel@@@std@@PAX@2@PAU32@@Z 0040aa40 f i Voxel.obj
 0001:00009a60       ?_Buyheadnode@?$_Tree_alloc@$0A@U?$_Tree_base_types@U?$pair@$$CBII@std@@V?$allocator@U?$pair@$$CBII@std@@@2@@std@@@std@@QAEPAU?$_Tree_node@U?$pair@$$CBII@std@@PAX@2@XZ 0040aa60 f i CinderApp.obj
 0001:00009a60       ?_Buyheadnode@?$_Tree_alloc@$0A@U?$_Tree_base_types@U?$pair@$$CBIPAVVoxel@@@std@@V?$allocator@U?$pair@$$CBIPAVVoxel@@@std@@@2@@std@@@std@@QAEPAU?$_Tree_node@U?$pair@$$CBIPAVVoxel@@@std@@PAX@2@XZ 0040aa60 f i Voxel.obj
 0001:00009a60       ?_Buyheadnode@?$_Tree_alloc@$0A@U?$_Tree_base_types@U?$pair@$$CBHP6A?AV?$shared_ptr@VImageSource@cinder@@@std@@V?$shared_ptr@VDataSource@cinder@@@2@VOptions@ImageSource@cinder@@@Z@std@@V?$allocator@U?$pair@$$CBHP6A?AV?$shared_ptr@VImageSource@cinder@@@std@@V?$shared_ptr@VDataSource@cinder@@@2@VOptions@ImageSource@cinder@@@Z@std@@@2@@std@@@std@@QAEPAU?$_Tree_node@U?$pair@$$CBHP6A?AV?$shared_ptr@VImageSource@cinder@@@std@@V?$shared_ptr@VDataSource@cinder@@@2@VOptions@ImageSource@cinder@@@Z@std@@PAX@2@XZ 0040aa60 f i cinder:ImageIo.obj
 0001:00009a90       ??$use_facet@V?$ctype@D@std@@@std@@YAABV?$ctype@D@0@ABVlocale@0@@Z 0040aa90 f i CinderApp.obj
 0001:00009bb0       ??$?0V?$basic_string@DU?$char_traits@D@std@@V?$allocator@D@2@@std@@@path@filesystem@boost@@QAE@ABV?$basic_string@DU?$char_traits@D@std@@V?$allocator@D@2@@std@@PAX@Z 0040abb0 f i CinderApp.obj
 0001:00009c40       ??$?6U?$char_traits@D@std@@@std@@YAAAV?$basic_ostream@DU?$char_traits@D@std@@@0@AAV10@PBD@Z 0040ac40 f i CinderApp.obj
 0001:00009ef0       ??$?0$$BY0O@$$CBD@path@filesystem@boost@@QAE@AAY0O@$$CBDPAX@Z 0040aef0 f i CinderApp.obj
 0001:00009fc0       ??$?8DU?$char_traits@D@std@@V?$allocator@D@1@@std@@YA_NABV?$basic_string@DU?$char_traits@D@std@@V?$allocator@D@2@@0@PBD@Z 0040afc0 f i CinderApp.obj
 0001:0000a030       ??$?0$$BY0BN@$$CBD@path@filesystem@boost@@QAE@AAY0BN@$$CBDPAX@Z 0040b030 f i CinderApp.obj
 0001:0000a110       ??$use_facet@V?$num_put@DV?$ostreambuf_iterator@DU?$char_traits@D@std@@@std@@@std@@@std@@YAABV?$num_put@DV?$ostreambuf_iterator@DU?$char_traits@D@std@@@std@@@0@ABVlocale@0@@Z 0040b110 f i CinderApp.obj
 0001:0000a230       ??$use_facet@V?$numpunct@D@std@@@std@@YAABV?$numpunct@D@0@ABVlocale@0@@Z 0040b230 f i CinderApp.obj
 0001:0000a350       ??$_Reset@VWindow@app@cinder@@@?$_Ptr_base@VWindow@app@cinder@@@std@@QAEXABV01@@Z 0040b350 f i cinder:Window.obj
 0001:0000a350       ??$_Reset@UObj@Buffer@cinder@@@?$_Ptr_base@UObj@Buffer@cinder@@@std@@QAEXABV01@@Z 0040b350 f i cinder:GlslProg.obj
 0001:0000a350       ??$_Reset@UObj@Texture@gl@cinder@@@?$_Ptr_base@UObj@Texture@gl@cinder@@@std@@QAEXABV01@@Z 0040b350 f i cinder:Fbo.obj
 0001:0000a350       ??$_Reset@VDisplay@cinder@@@?$_Ptr_base@VDisplay@cinder@@@std@@QAEXABV01@@Z 0040b350 f i cinder:AppBasic.obj
 0001:0000a350       ??$_Reset@VObj@Font@cinder@@@?$_Ptr_base@VObj@Font@cinder@@@std@@QAEXABV01@@Z 0040b350 f i CinderApp.obj
 0001:0000a350       ??$_Reset@VRenderer@app@cinder@@@?$_Ptr_base@VRenderer@app@cinder@@@std@@QAEXABV01@@Z 0040b350 f i CinderApp.obj
 0001:0000a350       ??$_Reset@UObj@?$SurfaceT@E@cinder@@@?$_Ptr_base@UObj@?$SurfaceT@E@cinder@@@std@@QAEXABV01@@Z 0040b350 f i cinder:Renderer.obj
 0001:0000a3c0       ?sputn@?$basic_streambuf@DU?$char_traits@D@std@@@std@@QAE_JPBD_J@Z 0040b3c0 f i CinderApp.obj
 0001:0000a3e0       ?_Getcat@?$num_put@DV?$ostreambuf_iterator@DU?$char_traits@D@std@@@std@@@std@@SAIPAPBVfacet@locale@2@PBV42@@Z 0040b3e0 f i CinderApp.obj
 0001:0000a490       ?_Getcat@?$numpunct@D@std@@SAIPAPBVfacet@locale@2@PBV42@@Z 0040b490 f i CinderApp.obj
 0001:0000a550       ?_Init@?$numpunct@D@std@@IAEXABV_Locinfo@2@_N@Z 0040b550 f i CinderApp.obj
 0001:0000a6b0       ??$_Resetp@VRendererGl@app@cinder@@@?$shared_ptr@VRenderer@app@cinder@@@std@@AAEXPAVRendererGl@app@cinder@@@Z 0040b6b0 f i CinderApp.obj
 0001:0000a780       ??$_Distance2@V?$_Tree_const_iterator@V?$_Tree_val@U?$_Tree_simple_types@U?$pair@$$CBIPAVVoxel@@@std@@@std@@@std@@@std@@I@std@@YAXV?$_Tree_const_iterator@V?$_Tree_val@U?$_Tree_simple_types@U?$pair@$$CBIPAVVoxel@@@std@@@std@@@std@@@0@0AAIUbidirectional_iterator_tag@0@@Z 0040b780 f i CinderApp.obj
 0001:0000a7f0       ??$_Buynode@U?$pair@HP6A?AV?$shared_ptr@VImageSource@cinder@@@std@@V?$shared_ptr@VDataSource@cinder@@@2@VOptions@ImageSource@cinder@@@Z@std@@@?$_Tree_buy@U?$pair@$$CBHP6A?AV?$shared_ptr@VImageSource@cinder@@@std@@V?$shared_ptr@VDataSource@cinder@@@2@VOptions@ImageSource@cinder@@@Z@std@@V?$allocator@U?$pair@$$CBHP6A?AV?$shared_ptr@VImageSource@cinder@@@std@@V?$shared_ptr@VDataSource@cinder@@@2@VOptions@ImageSource@cinder@@@Z@std@@@2@@std@@QAEPAU?$_Tree_node@U?$pair@$$CBHP6A?AV?$shared_ptr@VImageSource@cinder@@@std@@V?$shared_ptr@VDataSource@cinder@@@2@VOptions@ImageSource@cinder@@@Z@std@@PAX@1@$$QAU?$pair@HP6A?AV?$shared_ptr@VImageSource@cinder@@@std@@V?$shared_ptr@VDataSource@cinder@@@2@VOptions@ImageSource@cinder@@@Z@1@@Z 0040b7f0 f i cinder:ImageIo.obj
 0001:0000a7f0       ??$_Buynode@U?$pair@II@std@@@?$_Tree_buy@U?$pair@$$CBII@std@@V?$allocator@U?$pair@$$CBII@std@@@2@@std@@QAEPAU?$_Tree_node@U?$pair@$$CBII@std@@PAX@1@$$QAU?$pair@II@1@@Z 0040b7f0 f i CinderApp.obj
 0001:0000a820       ??$_Insert_hint@AAU?$pair@$$CBII@std@@PAU?$_Tree_node@U?$pair@$$CBII@std@@PAX@2@@?$_Tree@V?$_Tmap_traits@IIU?$less@I@std@@V?$allocator@U?$pair@$$CBII@std@@@2@$0A@@std@@@std@@IAE?AV?$_Tree_iterator@V?$_Tree_val@U?$_Tree_simple_types@U?$pair@$$CBII@std@@@std@@@std@@@1@V?$_Tree_const_iterator@V?$_Tree_val@U?$_Tree_simple_types@U?$pair@$$CBII@std@@@std@@@std@@@1@AAU?$pair@$$CBII@1@PAU?$_Tree_node@U?$pair@$$CBII@std@@PAX@1@@Z 0040b820 f i CinderApp.obj
 0001:0000aa40       ??$_Destroy_range@U?$_Wrap_alloc@V?$allocator@Vpath@filesystem@boost@@@std@@@std@@@std@@YAXPAVpath@filesystem@boost@@0AAU?$_Wrap_alloc@V?$allocator@Vpath@filesystem@boost@@@std@@@0@U_Nonscalar_ptr_iterator_tag@0@@Z 0040ba40 f i CinderApp.obj
 0001:0000aa80       ??$_Maklocstr@D@std@@YAPADPBDPADABU_Cvtvec@@@Z 0040ba80 f i CinderApp.obj
 0001:0000aac0       ?_Buynode0@?$_Tree_buy@U?$pair@$$CBHP6A?AV?$shared_ptr@VImageSource@cinder@@@std@@V?$shared_ptr@VDataSource@cinder@@@2@VOptions@ImageSource@cinder@@@Z@std@@V?$allocator@U?$pair@$$CBHP6A?AV?$shared_ptr@VImageSource@cinder@@@std@@V?$shared_ptr@VDataSource@cinder@@@2@VOptions@ImageSource@cinder@@@Z@std@@@2@@std@@QAEPAU?$_Tree_node@U?$pair@$$CBHP6A?AV?$shared_ptr@VImageSource@cinder@@@std@@V?$shared_ptr@VDataSource@cinder@@@2@VOptions@ImageSource@cinder@@@Z@std@@PAX@2@XZ 0040bac0 f i cinder:ImageIo.obj
 0001:0000aac0       ?_Buynode0@?$_Tree_buy@U?$pair@$$CBII@std@@V?$allocator@U?$pair@$$CBII@std@@@2@@std@@QAEPAU?$_Tree_node@U?$pair@$$CBII@std@@PAX@2@XZ 0040bac0 f i CinderApp.obj
 0001:0000ab00       ?_Destroy@?$_Ref_count@VRendererGl@app@cinder@@@std@@EAEXXZ 0040bb00 f i CinderApp.obj
 0001:0000ab00       ?_Destroy@?$_Ref_count@VTimeline@cinder@@@std@@EAEXXZ 0040bb00 f i cinder:App.obj
 0001:0000ab00       ?dispose@?$sp_counted_impl_p@V?$clone_impl@Ubad_exception_@exception_detail@boost@@@exception_detail@boost@@@detail@boost@@UAEXXZ 0040bb00 f i libboost_thread-vc110-mt-s-1_53:thread.obj
 0001:0000ab00       ?dispose@?$sp_counted_impl_p@V?$clone_impl@Ubad_alloc_@exception_detail@boost@@@exception_detail@boost@@@detail@boost@@UAEXXZ 0040bb00 f i libboost_thread-vc110-mt-s-1_53:thread.obj
 0001:0000ab10       ?_Delete_this@?$_Ref_count@VImageSourceFileWic@cinder@@@std@@EAEXXZ 0040bb10 f i cinder:ImageSourceFileWic.obj
 0001:0000ab10       ?_Delete_this@?$_Ref_count@UInst@ImageIoRegistrar@cinder@@@std@@EAEXXZ 0040bb10 f i cinder:ImageIo.obj
 0001:0000ab10       ?_Delete_this@?$_Ref_count_del@UtagTOUCHINPUT@@U?$checked_array_deleter@UtagTOUCHINPUT@@@boost@@@std@@EAEXXZ 0040bb10 f i cinder:AppImplMsw.obj
 0001:0000ab10       ?_Delete_this@?$_Ref_count_del@XP6AXPAX@Z@std@@EAEXXZ 0040bb10 f i cinder:Font.obj
 0001:0000ab10       ?_Delete_this@?$_Ref_count_del@VComOStream@msw@cinder@@P6AXPAX@Z@std@@EAEXXZ 0040bb10 f i cinder:ImageTargetFileWic.obj
 0001:0000ab10       ?_Delete_this@?$_Ref_count_del@EU?$checked_array_deleter@E@boost@@@std@@EAEXXZ 0040bb10 f i cinder:Font.obj
 0001:0000ab10       ?_Delete_this@?$_Ref_count_del@UIWICBitmapDecoder@@P6AXPAX@Z@std@@EAEXXZ 0040bb10 f i cinder:ImageSourceFileWic.obj
 0001:0000ab10       ?_Delete_this@?$_Ref_count_del@EP6AXPAE@Z@std@@EAEXXZ 0040bb10 f i cinder:Texture.obj
 0001:0000ab10       ?_Delete_this@?$_Ref_count_del@UIWICBitmapFrameEncode@@P6AXPAX@Z@std@@EAEXXZ 0040bb10 f i cinder:ImageTargetFileWic.obj
 0001:0000ab10       ?_Delete_this@?$_Ref_count_del@UIWICStream@@P6AXPAX@Z@std@@EAEXXZ 0040bb10 f i cinder:ImageSourceFileWic.obj
 0001:0000ab10       ?_Delete_this@?$_Ref_count_del@UIWICBitmapEncoder@@P6AXPAX@Z@std@@EAEXXZ 0040bb10 f i cinder:ImageTargetFileWic.obj
 0001:0000ab10       ?_Delete_this@?$_Ref_count@UObj@?$ChannelT@E@cinder@@@std@@EAEXXZ 0040bb10 f i cinder:Channel.obj
 0001:0000ab10       ?_Delete_this@?$_Ref_count_del@DU?$checked_array_deleter@D@boost@@@std@@EAEXXZ 0040bb10 f i cinder:GlslProg.obj
 0001:0000ab10       ?_Delete_this@?$_Ref_count_del@UIWICBitmapFrameDecode@@P6AXPAX@Z@std@@EAEXXZ 0040bb10 f i cinder:ImageSourceFileWic.obj
 0001:0000ab10       ?_Delete_this@?$_Ref_count@VIStreamFile@cinder@@@std@@EAEXXZ 0040bb10 f i cinder:Stream.obj
 0001:0000ab10       ?_Delete_this@?$_Ref_count@UObj@?$SurfaceT@E@cinder@@@std@@EAEXXZ 0040bb10 f i cinder:Surface.obj
 0001:0000ab10       ?_Delete_this@?$_Ref_count@VBlankingWindow@app@cinder@@@std@@EAEXXZ 0040bb10 f i cinder:AppImplMswBasic.obj
 0001:0000ab10       ?_Delete_this@?$_Ref_count@UObj@Buffer@cinder@@@std@@EAEXXZ 0040bb10 f i cinder:Buffer.obj
 0001:0000ab10       ?_Delete_this@?$_Ref_count@UObj@GlslProg@gl@cinder@@@std@@EAEXXZ 0040bb10 f i cinder:GlslProg.obj
 0001:0000ab10       ?_Delete_this@?$_Ref_count@UObj@Texture@gl@cinder@@@std@@EAEXXZ 0040bb10 f i cinder:Texture.obj
 0001:0000ab10       ?_Delete_this@?$_Ref_count_del@UIWICImagingFactory@@P6AXPAX@Z@std@@EAEXXZ 0040bb10 f i cinder:ImageSourceFileWic.obj
 0001:0000ab10       ?_Delete_this@?$_Ref_count@Vwork@io_service@asio@boost@@@std@@EAEXXZ 0040bb10 f i cinder:App.obj
 0001:0000ab10       ?_Delete_this@?$_Ref_count@UObj@Fbo@gl@cinder@@@std@@EAEXXZ 0040bb10 f i cinder:Fbo.obj
 0001:0000ab10       ?_Delete_this@?$_Ref_count_del@UIWICFormatConverter@@P6AXPAX@Z@std@@EAEXXZ 0040bb10 f i cinder:ImageSourceFileWic.obj
 0001:0000ab10       ?_Delete_this@?$_Ref_count@VFont@Gdiplus@@@std@@EAEXXZ 0040bb10 f i cinder:Font.obj
 0001:0000ab10       ?_Delete_this@?$_Ref_count@VDataSourcePath@cinder@@@std@@EAEXXZ 0040bb10 f i cinder:DataSource.obj
 0001:0000ab10       ?_Delete_this@?$_Ref_count@Vio_service@asio@boost@@@std@@EAEXXZ 0040bb10 f i cinder:App.obj
 0001:0000ab10       ?_Delete_this@?$_Ref_count@VImageTargetFileWic@cinder@@@std@@EAEXXZ 0040bb10 f i cinder:ImageTargetFileWic.obj
 0001:0000ab10       ?_Delete_this@?$_Ref_count@UObj@Renderbuffer@gl@cinder@@@std@@EAEXXZ 0040bb10 f i cinder:Fbo.obj
 0001:0000ab10       ?_Delete_this@?$_Ref_count_del@V?$basic_ostream@DU?$char_traits@D@std@@@std@@V<lambda_69588d13dcacf0fdf4c116f96accf98f>@@@std@@EAEXXZ 0040bb10 f i cinder:AppBasic.obj
 0001:0000ab10       ?_Delete_this@?$_Ref_count@V?$basic_dostream@DU?$char_traits@D@std@@@msw@cinder@@@std@@EAEXXZ 0040bb10 f i cinder:App.obj
 0001:0000ab10       ?_Delete_this@?$_Ref_count@VDisplay@cinder@@@std@@EAEXXZ 0040bb10 f i cinder:Display.obj
 0001:0000ab10       ?_Delete_this@?$_Ref_count@VRendererGl@app@cinder@@@std@@EAEXXZ 0040bb10 f i CinderApp.obj
 0001:0000ab10       ?_Delete_this@?$_Ref_count@VWindow@app@cinder@@@std@@EAEXXZ 0040bb10 f i cinder:AppImplMsw.obj
 0001:0000ab10       ?_Delete_this@?$_Ref_count@V?$map@V?$basic_string@DU?$char_traits@D@std@@V?$allocator@D@2@@std@@PBU_GUID@@U?$less@V?$basic_string@DU?$char_traits@D@std@@V?$allocator@D@2@@std@@@2@V?$allocator@U?$pair@$$CBV?$basic_string@DU?$char_traits@D@std@@V?$allocator@D@2@@std@@PBU_GUID@@@std@@@2@@std@@@std@@EAEXXZ 0040bb10 f i cinder:ImageTargetFileWic.obj
 0001:0000ab10       ?_Delete_this@?$_Ref_count@VTimeline@cinder@@@std@@EAEXXZ 0040bb10 f i cinder:App.obj
 0001:0000ab10       ?_Delete_this@?$_Ref_count@VObj@Font@cinder@@@std@@EAEXXZ 0040bb10 f i cinder:Font.obj
 0001:0000ab20       ??F?$_Tree_unchecked_const_iterator@V?$_Tree_val@U?$_Tree_simple_types@U?$pair@$$CBII@std@@@std@@@std@@U_Iterator_base0@2@@std@@QAEAAV01@XZ 0040bb20 f i CinderApp.obj
 0001:0000ab20       ??F?$_Tree_unchecked_const_iterator@V?$_Tree_val@U?$_Tree_simple_types@U?$pair@$$CBU?$pair@W4slot_meta_group@detail@signals2@boost@@V?$optional@H@4@@std@@V?$_List_iterator@V?$_List_val@U?$_List_simple_types@V?$shared_ptr@V?$connection_body@U?$pair@W4slot_meta_group@detail@signals2@boost@@V?$optional@H@4@@std@@V?$slot1@XAAVTouchEvent@app@cinder@@V?$function@$$A6AXAAVTouchEvent@app@cinder@@@Z@boost@@@signals2@boost@@Vmutex@45@@detail@signals2@boost@@@boost@@@std@@@std@@@2@@std@@@std@@@std@@U_Iterator_base0@2@@std@@QAEAAV01@XZ 0040bb20 f i cinder:Window.obj
 0001:0000ab20       ??F?$_Tree_unchecked_const_iterator@V?$_Tree_val@U?$_Tree_simple_types@U?$pair@$$CBKV?$Vec2@M@cinder@@@std@@@std@@@std@@U_Iterator_base0@2@@std@@QAEAAV01@XZ 0040bb20 f i cinder:AppImplMsw.obj
 0001:0000ab20       ??F?$_Tree_unchecked_const_iterator@V?$_Tree_val@U?$_Tree_simple_types@U?$pair@$$CBHP6A?AV?$shared_ptr@VImageSource@cinder@@@std@@V?$shared_ptr@VDataSource@cinder@@@2@VOptions@ImageSource@cinder@@@Z@std@@@std@@@std@@U_Iterator_base0@2@@std@@QAEAAV01@XZ 0040bb20 f i cinder:ImageIo.obj
 0001:0000ab20       ??F?$_Tree_unchecked_const_iterator@V?$_Tree_val@U?$_Tree_simple_types@U?$pair@$$CBV?$basic_string@DU?$char_traits@D@std@@V?$allocator@D@2@@std@@V?$multimap@HU?$pair@P6A?AV?$shared_ptr@VImageTarget@cinder@@@std@@V?$shared_ptr@VDataTarget@cinder@@@2@V?$shared_ptr@VImageSource@cinder@@@2@VOptions@ImageTarget@cinder@@ABV?$basic_string@DU?$char_traits@D@std@@V?$allocator@D@2@@2@@ZV82@@std@@U?$less@H@2@V?$allocator@U?$pair@$$CBHU?$pair@P6A?AV?$shared_ptr@VImageTarget@cinder@@@std@@V?$shared_ptr@VDataTarget@cinder@@@2@V?$shared_ptr@VImageSource@cinder@@@2@VOptions@ImageTarget@cinder@@ABV?$basic_string@DU?$char_traits@D@std@@V?$allocator@D@2@@2@@ZV82@@std@@@std@@@2@@2@@std@@@std@@@std@@U_Iterator_base0@2@@std@@QAEAAV01@XZ 0040bb20 f i cinder:ImageIo.obj
 0001:0000ab20       ??F?$_Tree_unchecked_const_iterator@V?$_Tree_val@U?$_Tree_simple_types@U?$pair@$$CBIPAVVoxel@@@std@@@std@@@std@@U_Iterator_base0@2@@std@@QAEAAV01@XZ 0040bb20 f i Voxel.obj
 0001:0000ab20       ??F?$_Tree_unchecked_const_iterator@V?$_Tree_val@U?$_Tree_simple_types@U?$pair@$$CBV?$basic_string@DU?$char_traits@D@std@@V?$allocator@D@2@@std@@_N@std@@@std@@@std@@U_Iterator_base0@2@@std@@QAEAAV01@XZ 0040bb20 f i cinder:gl.obj
 0001:0000ab20       ??F?$_Tree_unchecked_const_iterator@V?$_Tree_val@U?$_Tree_simple_types@U?$pair@$$CBU?$pair@W4slot_meta_group@detail@signals2@boost@@V?$optional@H@4@@std@@V?$_List_iterator@V?$_List_val@U?$_List_simple_types@V?$shared_ptr@V?$connection_body@U?$pair@W4slot_meta_group@detail@signals2@boost@@V?$optional@H@4@@std@@V?$slot1@XAAVFileDropEvent@app@cinder@@V?$function@$$A6AXAAVFileDropEvent@app@cinder@@@Z@boost@@@signals2@boost@@Vmutex@45@@detail@signals2@boost@@@boost@@@std@@@std@@@2@@std@@@std@@@std@@U_Iterator_base0@2@@std@@QAEAAV01@XZ 0040bb20 f i cinder:Window.obj
 0001:0000ab20       ??F?$_Tree_unchecked_const_iterator@V?$_Tree_val@U?$_Tree_simple_types@U?$pair@$$CBU?$pair@W4slot_meta_group@detail@signals2@boost@@V?$optional@H@4@@std@@V?$_List_iterator@V?$_List_val@U?$_List_simple_types@V?$shared_ptr@V?$connection_body@U?$pair@W4slot_meta_group@detail@signals2@boost@@V?$optional@H@4@@std@@V?$slot1@XAAVMouseEvent@app@cinder@@V?$function@$$A6AXAAVMouseEvent@app@cinder@@@Z@boost@@@signals2@boost@@Vmutex@45@@detail@signals2@boost@@@boost@@@std@@@std@@@2@@std@@@std@@@std@@U_Iterator_base0@2@@std@@QAEAAV01@XZ 0040bb20 f i cinder:Window.obj
 0001:0000ab20       ??F?$_Tree_unchecked_const_iterator@V?$_Tree_val@U?$_Tree_simple_types@U?$pair@$$CBU?$pair@W4slot_meta_group@detail@signals2@boost@@V?$optional@H@4@@std@@V?$_List_iterator@V?$_List_val@U?$_List_simple_types@V?$shared_ptr@V?$connection_body@U?$pair@W4slot_meta_group@detail@signals2@boost@@V?$optional@H@4@@std@@V?$slot0@XV?$function@$$A6AXXZ@boost@@@signals2@boost@@Vmutex@45@@detail@signals2@boost@@@boost@@@std@@@std@@@2@@std@@@std@@@std@@U_Iterator_base0@2@@std@@QAEAAV01@XZ 0040bb20 f i cinder:Window.obj
 0001:0000ab20       ??F?$_Tree_unchecked_const_iterator@V?$_Tree_val@U?$_Tree_simple_types@U?$pair@QBXUtss_data_node@detail@boost@@@std@@@std@@@std@@U_Iterator_base0@2@@std@@QAEAAV01@XZ 0040bb20 f i libboost_thread-vc110-mt-s-1_53:thread.obj
 0001:0000ab20       ??F?$_Tree_unchecked_const_iterator@V?$_Tree_val@U?$_Tree_simple_types@U?$pair@$$CBV?$basic_string@DU?$char_traits@D@std@@V?$allocator@D@2@@std@@PBU_GUID@@@std@@@std@@@std@@U_Iterator_base0@2@@std@@QAEAAV01@XZ 0040bb20 f i cinder:ImageTargetFileWic.obj
 0001:0000ab20       ??F?$_Tree_unchecked_const_iterator@V?$_Tree_val@U?$_Tree_simple_types@U?$pair@$$CBV?$basic_string@DU?$char_traits@D@std@@V?$allocator@D@2@@std@@H@std@@@std@@@std@@U_Iterator_base0@2@@std@@QAEAAV01@XZ 0040bb20 f i cinder:GlslProg.obj
 0001:0000ab20       ??F?$_Tree_unchecked_const_iterator@V?$_Tree_val@U?$_Tree_simple_types@U?$pair@$$CBU?$pair@W4slot_meta_group@detail@signals2@boost@@V?$optional@H@4@@std@@V?$_List_iterator@V?$_List_val@U?$_List_simple_types@V?$shared_ptr@V?$connection_body@U?$pair@W4slot_meta_group@detail@signals2@boost@@V?$optional@H@4@@std@@V?$slot1@XAAVKeyEvent@app@cinder@@V?$function@$$A6AXAAVKeyEvent@app@cinder@@@Z@boost@@@signals2@boost@@Vmutex@45@@detail@signals2@boost@@@boost@@@std@@@std@@@2@@std@@@std@@@std@@U_Iterator_base0@2@@std@@QAEAAV01@XZ 0040bb20 f i cinder:Window.obj
 0001:0000ab80       ??$_Insert_at@AAU?$pair@$$CBII@std@@PAU?$_Tree_node@U?$pair@$$CBII@std@@PAX@2@@?$_Tree@V?$_Tmap_traits@IIU?$less@I@std@@V?$allocator@U?$pair@$$CBII@std@@@2@$0A@@std@@@std@@IAE?AV?$_Tree_iterator@V?$_Tree_val@U?$_Tree_simple_types@U?$pair@$$CBII@std@@@std@@@std@@@1@_NPAU?$_Tree_node@U?$pair@$$CBII@std@@PAX@1@AAU?$pair@$$CBII@1@1@Z 0040bb80 f i CinderApp.obj
 0001:0000ab80       ??$_Insert_at@AAU?$pair@$$CBHP6A?AV?$shared_ptr@VImageSource@cinder@@@std@@V?$shared_ptr@VDataSource@cinder@@@2@VOptions@ImageSource@cinder@@@Z@std@@PAU?$_Tree_node@U?$pair@$$CBHP6A?AV?$shared_ptr@VImageSource@cinder@@@std@@V?$shared_ptr@VDataSource@cinder@@@2@VOptions@ImageSource@cinder@@@Z@std@@PAX@2@@?$_Tree@V?$_Tmap_traits@HP6A?AV?$shared_ptr@VImageSource@cinder@@@std@@V?$shared_ptr@VDataSource@cinder@@@2@VOptions@ImageSource@cinder@@@ZU?$less@H@2@V?$allocator@U?$pair@$$CBHP6A?AV?$shared_ptr@VImageSource@cinder@@@std@@V?$shared_ptr@VDataSource@cinder@@@2@VOptions@ImageSource@cinder@@@Z@std@@@2@$0A@@std@@@std@@IAE?AV?$_Tree_iterator@V?$_Tree_val@U?$_Tree_simple_types@U?$pair@$$CBHP6A?AV?$shared_ptr@VImageSource@cinder@@@std@@V?$shared_ptr@VDataSource@cinder@@@2@VOptions@ImageSource@cinder@@@Z@std@@@std@@@std@@@1@_NPAU?$_Tree_node@U?$pair@$$CBHP6A?AV?$shared_ptr@VImageSource@cinder@@@std@@V?$shared_ptr@VDataSource@cinder@@@2@VOptions@ImageSource@cinder@@@Z@std@@PAX@1@AAU?$pair@$$CBHP6A?AV?$shared_ptr@VImageSource@cinder@@@std@@V?$shared_ptr@VDataSource@cinder@@@2@VOptions@ImageSource@cinder@@@Z@1@1@Z 0040bb80 f i cinder:ImageIo.obj
 0001:0000ad90       ??$_Insert_nohint@AAU?$pair@$$CBII@std@@PAU?$_Tree_node@U?$pair@$$CBII@std@@PAX@2@@?$_Tree@V?$_Tmap_traits@IIU?$less@I@std@@V?$allocator@U?$pair@$$CBII@std@@@2@$0A@@std@@@std@@IAE?AU?$pair@V?$_Tree_iterator@V?$_Tree_val@U?$_Tree_simple_types@U?$pair@$$CBII@std@@@std@@@std@@@std@@_N@1@_NAAU?$pair@$$CBII@1@PAU?$_Tree_node@U?$pair@$$CBII@std@@PAX@1@@Z 0040bd90 f i CinderApp.obj
 0001:0000aea0       ??$destroy@Vpath@filesystem@boost@@@?$_Wrap_alloc@V?$allocator@Vpath@filesystem@boost@@@std@@@std@@QAEXPAVpath@filesystem@boost@@@Z 0040bea0 f i CinderApp.obj
 0001:0000aecf       ?_Add_vtordisp2@?$basic_ostream@DU?$char_traits@D@std@@@std@@$4PPPPPPPM@A@AEXXZ 0040becf f i CinderApp.obj
 0001:0000aed7       ?_Add_vtordisp2@?$basic_ostream@DU?$char_traits@D@std@@@std@@$4PPPPPPPM@EI@AEXXZ 0040bed7 f i CinderApp.obj
 0001:0000aee2       ??_E?$basic_ostringstream@DU?$char_traits@D@std@@V?$allocator@D@2@@std@@$4PPPPPPPM@A@AEPAXI@Z 0040bee2 f i CinderApp.obj
 0001:0000aeea       ??_E?$basic_ostream@DU?$char_traits@D@std@@@std@@$4PPPPPPPM@A@AEPAXI@Z 0040beea f i CinderApp.obj
 0001:0000af00       ?init@Voxel@@AAEXV?$Vec3@M@cinder@@_N@Z 0040bf00 f   Voxel.obj
 0001:0000b070       ?erase@?$_Tree@V?$_Tmap_traits@IPAVVoxel@@U?$less@I@std@@V?$allocator@U?$pair@$$CBIPAVVoxel@@@std@@@3@$0A@@std@@@std@@QAE?AV?$_Tree_iterator@V?$_Tree_val@U?$_Tree_simple_types@U?$pair@$$CBIPAVVoxel@@@std@@@std@@@std@@@2@V?$_Tree_const_iterator@V?$_Tree_val@U?$_Tree_simple_types@U?$pair@$$CBIPAVVoxel@@@std@@@std@@@std@@@2@0@Z 0040c070 f i Voxel.obj
 0001:0000b110       ?erase@?$_Tree@V?$_Tmap_traits@IPAVVoxel@@U?$less@I@std@@V?$allocator@U?$pair@$$CBIPAVVoxel@@@std@@@3@$0A@@std@@@std@@QAE?AV?$_Tree_iterator@V?$_Tree_val@U?$_Tree_simple_types@U?$pair@$$CBIPAVVoxel@@@std@@@std@@@std@@@2@V?$_Tree_const_iterator@V?$_Tree_val@U?$_Tree_simple_types@U?$pair@$$CBIPAVVoxel@@@std@@@std@@@std@@@2@@Z 0040c110 f i Voxel.obj
 0001:0000b380       ?_Lrotate@?$_Tree@V?$_Tmap_traits@IPAVVoxel@@U?$less@I@std@@V?$allocator@U?$pair@$$CBIPAVVoxel@@@std@@@3@$0A@@std@@@std@@IAEXPAU?$_Tree_node@U?$pair@$$CBIPAVVoxel@@@std@@PAX@2@@Z 0040c380 f i Voxel.obj
 0001:0000b3e0       ?_Rrotate@?$_Tree@V?$_Tmap_traits@IPAVVoxel@@U?$less@I@std@@V?$allocator@U?$pair@$$CBIPAVVoxel@@@std@@@3@$0A@@std@@@std@@IAEXPAU?$_Tree_node@U?$pair@$$CBIPAVVoxel@@@std@@PAX@2@@Z 0040c3e0 f i Voxel.obj
 0001:0000b440       ??$_Buynode@U?$pair@IPAVVoxel@@@std@@@?$_Tree_buy@U?$pair@$$CBIPAVVoxel@@@std@@V?$allocator@U?$pair@$$CBIPAVVoxel@@@std@@@2@@std@@QAEPAU?$_Tree_node@U?$pair@$$CBIPAVVoxel@@@std@@PAX@1@$$QAU?$pair@IPAVVoxel@@@1@@Z 0040c440 f i Voxel.obj
 0001:0000b470       ??$_Insert_nohint@AAU?$pair@$$CBIPAVVoxel@@@std@@PAU?$_Tree_node@U?$pair@$$CBIPAVVoxel@@@std@@PAX@2@@?$_Tree@V?$_Tmap_traits@IPAVVoxel@@U?$less@I@std@@V?$allocator@U?$pair@$$CBIPAVVoxel@@@std@@@3@$0A@@std@@@std@@IAE?AU?$pair@V?$_Tree_iterator@V?$_Tree_val@U?$_Tree_simple_types@U?$pair@$$CBIPAVVoxel@@@std@@@std@@@std@@@std@@_N@1@_NAAU?$pair@$$CBIPAVVoxel@@@1@PAU?$_Tree_node@U?$pair@$$CBIPAVVoxel@@@std@@PAX@1@@Z 0040c470 f i Voxel.obj
 0001:0000b5a0       ?_Buynode0@?$_Tree_buy@U?$pair@$$CBIPAVVoxel@@@std@@V?$allocator@U?$pair@$$CBIPAVVoxel@@@std@@@2@@std@@QAEPAU?$_Tree_node@U?$pair@$$CBIPAVVoxel@@@std@@PAX@2@XZ 0040c5a0 f i Voxel.obj
 0001:0000b5e0       ??$_Insert_at@AAU?$pair@$$CBIPAVVoxel@@@std@@PAU?$_Tree_node@U?$pair@$$CBIPAVVoxel@@@std@@PAX@2@@?$_Tree@V?$_Tmap_traits@IPAVVoxel@@U?$less@I@std@@V?$allocator@U?$pair@$$CBIPAVVoxel@@@std@@@3@$0A@@std@@@std@@IAE?AV?$_Tree_iterator@V?$_Tree_val@U?$_Tree_simple_types@U?$pair@$$CBIPAVVoxel@@@std@@@std@@@std@@@1@_NPAU?$_Tree_node@U?$pair@$$CBIPAVVoxel@@@std@@PAX@1@AAU?$pair@$$CBIPAVVoxel@@@1@1@Z 0040c5e0 f i Voxel.obj
 0001:0000b810       _GLee_Lazy_glBinormal3ivEXT@4 0040c810 f   cinder:GLee.obj
 0001:0000b830       _GLee_Lazy_glWindowPos4ivMESA@4 0040c830 f   cinder:GLee.obj
 0001:0000b850       _GLee_Lazy_glGetAttribLocationARB@8 0040c850 f   cinder:GLee.obj
 0001:0000b880       _GLee_Lazy_wglAssociateImageBufferEventsI3D@20 0040c880 f   cinder:GLee.obj
 0001:0000b8c0       _GLee_Lazy_glVertexAttrib2dARB@20 0040c8c0 f   cinder:GLee.obj
 0001:0000b900       _GLee_Lazy_glBeginOcclusionQueryNV@4 0040c900 f   cinder:GLee.obj
 0001:0000b920       _GLee_Lazy_glStencilFuncSeparate@16 0040c920 f   cinder:GLee.obj
 0001:0000b950       _GLee_Lazy_glMultiTexParameterfEXT@16 0040c950 f   cinder:GLee.obj
 0001:0000b980       _GLee_Lazy_glUniform2uiEXT@12 0040c980 f   cinder:GLee.obj
 0001:0000b9b0       _GLee_Lazy_glMinmax@12     0040c9b0 f   cinder:GLee.obj
 0001:0000b9e0       _GLee_Lazy_glFragmentMaterialiEXT@12 0040c9e0 f   cinder:GLee.obj
 0001:0000ba10       _GLee_Lazy_glColorFragmentOp2ATI@40 0040ca10 f   cinder:GLee.obj
 0001:0000ba60       _GLee_Lazy_glEndOcclusionQueryNV@0 0040ca60 f   cinder:GLee.obj
 0001:0000ba80       _GLee_Lazy_glPrioritizeTexturesEXT@12 0040ca80 f   cinder:GLee.obj
 0001:0000bab0       _GLee_Lazy_glBinormal3sEXT@12 0040cab0 f   cinder:GLee.obj
 0001:0000bae0       _GLee_Lazy_glDrawBuffersARB@8 0040cae0 f   cinder:GLee.obj
 0001:0000bb10       _GLee_Lazy_glVertexAttrib2dvARB@8 0040cb10 f   cinder:GLee.obj
 0001:0000bb40       _GLee_Lazy_glResetHistogram@4 0040cb40 f   cinder:GLee.obj
 0001:0000bb60       _GLee_Lazy_glStencilMaskSeparate@8 0040cb60 f   cinder:GLee.obj
 0001:0000bb90       _GLee_Lazy_glWindowPos4sMESA@16 0040cb90 f   cinder:GLee.obj
 0001:0000bbc0       _GLee_Lazy_glVertexAttribI4ui@20 0040cbc0 f   cinder:GLee.obj
 0001:0000bbf0       _GLee_Lazy_wglReleaseImageBufferEventsI3D@12 0040cbf0 f   cinder:GLee.obj
 0001:0000bc20       _GLee_Lazy_glNamedProgramLocalParameterI4uiEXT@28 0040cc20 f   cinder:GLee.obj
 0001:0000bc60       _GLee_Lazy_glBinormal3svEXT@4 0040cc60 f   cinder:GLee.obj
 0001:0000bc80       _GLee_Lazy_glResetMinmax@4 0040cc80 f   cinder:GLee.obj
 0001:0000bca0       _GLee_Lazy_glFragmentMaterialfvEXT@12 0040cca0 f   cinder:GLee.obj
 0001:0000bcd0       _GLee_Lazy_glMultiTexParameterfvEXT@16 0040ccd0 f   cinder:GLee.obj
 0001:0000bd00       _GLee_Lazy_glUniform3uiEXT@16 0040cd00 f   cinder:GLee.obj
 0001:0000bd30       _GLee_Lazy_glClampColorARB@8 0040cd30 f   cinder:GLee.obj
 0001:0000bd60       _GLee_Lazy_glGetOcclusionQueryivNV@12 0040cd60 f   cinder:GLee.obj
 0001:0000bd90       _GLee_Lazy_glWindowPos4svMESA@4 0040cd90 f   cinder:GLee.obj
 0001:0000bdb0       _GLee_Lazy_glDetailTexFuncSGIS@12 0040cdb0 f   cinder:GLee.obj
 0001:0000bde0       _GLee_Lazy_wglEnableFrameLockI3D@0 0040cde0 f   cinder:GLee.obj
 0001:0000be00       _GLee_Lazy_glAttachShader@8 0040ce00 f   cinder:GLee.obj
 0001:0000be30       _GLee_Lazy_glVertexAttrib2fARB@12 0040ce30 f   cinder:GLee.obj
 0001:0000be70       _GLee_Lazy_glVertexAttribI1iv@8 0040ce70 f   cinder:GLee.obj
 0001:0000bea0       _GLee_Lazy_wglDisableFrameLockI3D@0 0040cea0 f   cinder:GLee.obj
 0001:0000bec0       _GLee_Lazy_glTangentPointerEXT@12 0040cec0 f   cinder:GLee.obj
 0001:0000bef0       _GLee_Lazy_glGetDetailTexFuncSGIS@8 0040cef0 f   cinder:GLee.obj
 0001:0000bf20       _GLee_Lazy_glFragmentMaterialivEXT@12 0040cf20 f   cinder:GLee.obj
 0001:0000bf50       _GLee_Lazy_glNamedProgramLocalParameterI4uivEXT@16 0040cf50 f   cinder:GLee.obj
 0001:0000bf80       _GLee_Lazy_glGetOcclusionQueryuivNV@12 0040cf80 f   cinder:GLee.obj
 0001:0000bfb0       _GLee_Lazy_glVertexAttrib2fvARB@8 0040cfb0 f   cinder:GLee.obj
 0001:0000bfe0       _GLee_Lazy_glVertexAttribI2iv@8 0040cfe0 f   cinder:GLee.obj
 0001:0000c010       _GLee_Lazy_glMultiTexParameteriEXT@16 0040d010 f   cinder:GLee.obj
 0001:0000c040       _GLee_Lazy_glDrawArraysInstancedARB@16 0040d040 f   cinder:GLee.obj
 0001:0000c070       _GLee_Lazy_glBindAttribLocation@12 0040d070 f   cinder:GLee.obj
 0001:0000c0a0       _GLee_Lazy_wglIsEnabledFrameLockI3D@4 0040d0a0 f   cinder:GLee.obj
 0001:0000c0d0       _GLee_Lazy_glUniform4uiEXT@20 0040d0d0 f   cinder:GLee.obj
 0001:0000c100       _GLee_Lazy_glMultiModeDrawArraysIBM@20 0040d100 f   cinder:GLee.obj
 0001:0000c130       _GLee_Lazy_glFragmentColorMaterialEXT@8 0040d130 f   cinder:GLee.obj
 0001:0000c160       _GLee_Lazy_glBinormalPointerEXT@12 0040d160 f   cinder:GLee.obj
 0001:0000c190       _GLee_Lazy_glCompileShader@4 0040d190 f   cinder:GLee.obj
 0001:0000c1b0       _GLee_Lazy_glPointParameteriNV@8 0040d1b0 f   cinder:GLee.obj
 0001:0000c1e0       _GLee_Lazy_glSharpenTexFuncSGIS@12 0040d1e0 f   cinder:GLee.obj
 0001:0000c210       _GLee_Lazy_glVertexAttribI3iv@8 0040d210 f   cinder:GLee.obj
 0001:0000c240       _GLee_Lazy_wglQueryFrameLockMasterI3D@4 0040d240 f   cinder:GLee.obj
 0001:0000c270       _GLee_Lazy_glVertexAttrib2sARB@12 0040d270 f   cinder:GLee.obj
 0001:0000c2a0       _GLee_Lazy_glColorFragmentOp3ATI@52 0040d2a0 f   cinder:GLee.obj
 0001:0000c2f0       _GLee_Lazy_glFinishTextureSUNX@0 0040d2f0 f   cinder:GLee.obj
 0001:0000c310       _GLee_Lazy_glCreateProgram@0 0040d310 f   cinder:GLee.obj
 0001:0000c330       _GLee_Lazy_glNamedProgramLocalParametersI4uivEXT@20 0040d330 f   cinder:GLee.obj
 0001:0000c360       _GLee_Lazy_glMultiTexParameterivEXT@16 0040d360 f   cinder:GLee.obj
 0001:0000c390       _GLee_Lazy_glUniform1uivEXT@12 0040d390 f   cinder:GLee.obj
 0001:0000c3c0       _GLee_Lazy_glTexImage3D@40 0040d3c0 f   cinder:GLee.obj
 0001:0000c410       _GLee_Lazy_glPointParameterivNV@8 0040d410 f   cinder:GLee.obj
 0001:0000c440       _GLee_Lazy_glGetSharpenTexFuncSGIS@8 0040d440 f   cinder:GLee.obj
 0001:0000c470       _GLee_Lazy_glDrawElementsInstancedARB@20 0040d470 f   cinder:GLee.obj
 0001:0000c4a0       _GLee_Lazy_glVertexAttribI4iv@8 0040d4a0 f   cinder:GLee.obj
 0001:0000c4d0       _GLee_Lazy_glGetFragmentMaterialfvEXT@12 0040d4d0 f   cinder:GLee.obj
 0001:0000c500       _GLee_Lazy_glGlobalAlphaFactorbSUN@4 0040d500 f   cinder:GLee.obj
 0001:0000c520       _GLee_Lazy_glVertexAttrib2svARB@8 0040d520 f   cinder:GLee.obj
 0001:0000c550       _GLee_Lazy_glCreateShader@4 0040d550 f   cinder:GLee.obj
 0001:0000c580       _GLee_Lazy_wglEnumerateVideoDevicesNV@8 0040d580 f   cinder:GLee.obj
 0001:0000c5b0       _GLee_Lazy_glActiveStencilFaceEXT@4 0040d5b0 f   cinder:GLee.obj
 0001:0000c5d0       _GLee_Lazy_glMultiModeDrawElementsIBM@24 0040d5d0 f   cinder:GLee.obj
 0001:0000c610       _GLee_Lazy_glIsRenderbuffer@4 0040d610 f   cinder:GLee.obj
 0001:0000c640       _GLee_Lazy_glGlobalAlphaFactorsSUN@4 0040d640 f   cinder:GLee.obj
 0001:0000c660       _GLee_Lazy_glUniform2uivEXT@12 0040d660 f   cinder:GLee.obj
 0001:0000c690       _GLee_Lazy_glSampleMaskSGIS@8 0040d690 f   cinder:GLee.obj
 0001:0000c6c0       _GLee_Lazy_glVertexAttribI1uiv@8 0040d6c0 f   cinder:GLee.obj
 0001:0000c6f0       _GLee_Lazy_glDeleteProgram@4 0040d6f0 f   cinder:GLee.obj
 0001:0000c710       _GLee_Lazy_glGetNamedProgramLocalParameterIivEXT@16 0040d710 f   cinder:GLee.obj
 0001:0000c740       _GLee_Lazy_glGetFragmentMaterialivEXT@12 0040d740 f   cinder:GLee.obj
 0001:0000c770       _GLee_Lazy_glAlphaFragmentOp1ATI@24 0040d770 f   cinder:GLee.obj
 0001:0000c7b0       _GLee_Lazy_glGlobalAlphaFactoriSUN@4 0040d7b0 f   cinder:GLee.obj
 0001:0000c7d0       _GLee_Lazy_glElementPointerAPPLE@8 0040d7d0 f   cinder:GLee.obj
 0001:0000c800       _GLee_Lazy_glSamplePatternSGIS@4 0040d800 f   cinder:GLee.obj
 0001:0000c820       _GLee_Lazy_glBindRenderbuffer@8 0040d820 f   cinder:GLee.obj
 0001:0000c850       _GLee_Lazy_glVertexAttrib3dARB@28 0040d850 f   cinder:GLee.obj
 0001:0000c8a0       _GLee_Lazy_glDeleteShader@4 0040d8a0 f   cinder:GLee.obj
 0001:0000c8c0       _GLee_Lazy_glVertexAttribI2uiv@8 0040d8c0 f   cinder:GLee.obj
 0001:0000c8f0       _GLee_Lazy_wglBindVideoDeviceNV@16 0040d8f0 f   cinder:GLee.obj
 0001:0000c920       _GLee_Lazy_glUniform3uivEXT@12 0040d920 f   cinder:GLee.obj
 0001:0000c950       _GLee_Lazy_glGlobalAlphaFactorfSUN@4 0040d950 f   cinder:GLee.obj
 0001:0000c980       _GLee_Lazy_glLightEnviEXT@8 0040d980 f   cinder:GLee.obj
 0001:0000c9b0       _GLee_Lazy_glBlendEquationEXT@4 0040d9b0 f   cinder:GLee.obj
 0001:0000c9d0       _GLee_Lazy_glColorPointerListIBM@20 0040d9d0 f   cinder:GLee.obj
 0001:0000ca00       _GLee_Lazy_glMultiTexImage1DEXT@36 0040da00 f   cinder:GLee.obj
 0001:0000ca40       _GLee_Lazy_glGetNamedProgramLocalParameterIuivEXT@16 0040da40 f   cinder:GLee.obj
 0001:0000ca70       _GLee_Lazy_glDeleteRenderbuffers@8 0040da70 f   cinder:GLee.obj
 0001:0000caa0       _GLee_Lazy_glVertexAttrib3dvARB@8 0040daa0 f   cinder:GLee.obj
 0001:0000cad0       _GLee_Lazy_glDetachShader@8 0040dad0 f   cinder:GLee.obj
 0001:0000cb00       _GLee_Lazy_glDrawElementArrayAPPLE@12 0040db00 f   cinder:GLee.obj
 0001:0000cb30       _GLee_Lazy_glGlobalAlphaFactordSUN@8 0040db30 f   cinder:GLee.obj
 0001:0000cb60       _GLee_Lazy_glVertexAttribI3uiv@8 0040db60 f   cinder:GLee.obj
 0001:0000cb90       _GLee_Lazy_wglQueryCurrentContextNV@8 0040db90 f   cinder:GLee.obj
 0001:0000cbc0       _GLee_Lazy_glTexSubImage3D@44 0040dbc0 f   cinder:GLee.obj
 0001:0000cc10       _GLee_Lazy_glSpriteParameterfSGIX@8 0040dc10 f   cinder:GLee.obj
 0001:0000cc40       _GLee_Lazy_glUniform4uivEXT@12 0040dc40 f   cinder:GLee.obj
 0001:0000cc70       _GLee_Lazy_glDisableVertexAttribArray@4 0040dc70 f   cinder:GLee.obj
 0001:0000cc90       _GLee_Lazy_glProgramParameteriEXT@12 0040dc90 f   cinder:GLee.obj
 0001:0000ccc0       _GLee_Lazy_glGlobalAlphaFactorubSUN@4 0040dcc0 f   cinder:GLee.obj
 0001:0000cce0       _GLee_Lazy_glGenRenderbuffers@8 0040dce0 f   cinder:GLee.obj
 0001:0000cd10       _GLee_Lazy_glVertexAttribI4uiv@8 0040dd10 f   cinder:GLee.obj
 0001:0000cd40       _GLee_Lazy_glEnableVertexAttribArray@4 0040dd40 f   cinder:GLee.obj
 0001:0000cd60       _GLee_Lazy_wglJoinSwapGroupNV@8 0040dd60 f   cinder:GLee.obj
 0001:0000cd90       _GLee_Lazy_glTextureParameterIivEXT@16 0040dd90 f   cinder:GLee.obj
 0001:0000cdc0       _GLee_Lazy_glSecondaryColorPointerListIBM@20 0040ddc0 f   cinder:GLee.obj
 0001:0000cdf0       _GLee_Lazy_glGlobalAlphaFactorusSUN@4 0040ddf0 f   cinder:GLee.obj
 0001:0000ce10       _GLee_Lazy_glSpriteParameterfvSGIX@8 0040de10 f   cinder:GLee.obj
 0001:0000ce40       _GLee_Lazy_glVertexAttrib3fARB@16 0040de40 f   cinder:GLee.obj
 0001:0000ce80       _GLee_Lazy_glAlphaFragmentOp2ATI@36 0040de80 f   cinder:GLee.obj
 0001:0000cec0       _GLee_Lazy_glDrawRangeElementArrayAPPLE@20 0040dec0 f   cinder:GLee.obj
 0001:0000cef0       _GLee_Lazy_glVertexAttribI4bv@8 0040def0 f   cinder:GLee.obj
 0001:0000cf20       _GLee_Lazy_glDrawArraysInstancedEXT@16 0040df20 f   cinder:GLee.obj
 0001:0000cf50       _GLee_Lazy_glGlobalAlphaFactoruiSUN@4 0040df50 f   cinder:GLee.obj
 0001:0000cf70       _GLee_Lazy_glFramebufferTextureEXT@16 0040df70 f   cinder:GLee.obj
 0001:0000cfa0       _GLee_Lazy_glSpriteParameteriSGIX@8 0040dfa0 f   cinder:GLee.obj
 0001:0000cfd0       _GLee_Lazy_glRenderbufferStorage@16 0040dfd0 f   cinder:GLee.obj
 0001:0000d000       _GLee_Lazy_glVertexAttrib3fvARB@8 0040e000 f   cinder:GLee.obj
 0001:0000d030       _GLee_Lazy_wglBindSwapBarrierNV@8 0040e030 f   cinder:GLee.obj
 0001:0000d060       _GLee_Lazy_glEdgeFlagPointerListIBM@12 0040e060 f   cinder:GLee.obj
 0001:0000d090       _GLee_Lazy_glReplacementCodeuiSUN@4 0040e090 f   cinder:GLee.obj
 0001:0000d0b0       _GLee_Lazy_glTextureParameterIuivEXT@16 0040e0b0 f   cinder:GLee.obj
 0001:0000d0e0       _GLee_Lazy_glMultiTexImage2DEXT@40 0040e0e0 f   cinder:GLee.obj
 0001:0000d130       _GLee_Lazy_glVertexAttribI4sv@8 0040e130 f   cinder:GLee.obj
 0001:0000d160       _GLee_Lazy_glCopyTexSubImage3D@36 0040e160 f   cinder:GLee.obj
 0001:0000d1a0       _GLee_Lazy_glMultiDrawElementArrayAPPLE@16 0040e1a0 f   cinder:GLee.obj
 0001:0000d1d0       _GLee_Lazy_glSpriteParameterivSGIX@8 0040e1d0 f   cinder:GLee.obj
 0001:0000d200       _GLee_Lazy_glReplacementCodeusSUN@4 0040e200 f   cinder:GLee.obj
 0001:0000d220       _GLee_Lazy_glGetRenderbufferParameteriv@12 0040e220 f   cinder:GLee.obj
 0001:0000d250       _GLee_Lazy_glGetActiveAttrib@28 0040e250 f   cinder:GLee.obj
 0001:0000d290       _GLee_Lazy_wglQuerySwapGroupNV@12 0040e290 f   cinder:GLee.obj
 0001:0000d2c0       _GLee_Lazy_glDrawElementsInstancedEXT@20 0040e2c0 f   cinder:GLee.obj
 0001:0000d2f0       _GLee_Lazy_glVertexAttrib3sARB@16 0040e2f0 f   cinder:GLee.obj
 0001:0000d320       _GLee_Lazy_glVertexAttribI4ubv@8 0040e320 f   cinder:GLee.obj
 0001:0000d350       _GLee_Lazy_glActiveTexture@4 0040e350 f   cinder:GLee.obj
 0001:0000d370       _GLee_Lazy_glFramebufferTextureLayerEXT@20 0040e370 f   cinder:GLee.obj
 0001:0000d3a0       _GLee_Lazy_glFogCoordPointerListIBM@16 0040e3a0 f   cinder:GLee.obj
 0001:0000d3d0       _GLee_Lazy_glReplacementCodeubSUN@4 0040e3d0 f   cinder:GLee.obj
 0001:0000d3f0       _GLee_Lazy_glPointParameterfEXT@8 0040e3f0 f   cinder:GLee.obj
 0001:0000d420       _GLee_Lazy_glIsFramebuffer@4 0040e420 f   cinder:GLee.obj
 0001:0000d450       _GLee_Lazy_glGetTextureParameterIivEXT@16 0040e450 f   cinder:GLee.obj
 0001:0000d480       _GLee_Lazy_glClientActiveTexture@4 0040e480 f   cinder:GLee.obj
 0001:0000d4a0       _GLee_Lazy_glReplacementCodeuivSUN@4 0040e4a0 f   cinder:GLee.obj
 0001:0000d4c0       _GLee_Lazy_glVertexAttrib3svARB@8 0040e4c0 f   cinder:GLee.obj
 0001:0000d4f0       _GLee_Lazy_glVertexAttribI4usv@8 0040e4f0 f   cinder:GLee.obj
 0001:0000d520       _GLee_Lazy_glTexBufferEXT@12 0040e520 f   cinder:GLee.obj
 0001:0000d550       _GLee_Lazy_wglQueryMaxSwapGroupsNV@12 0040e550 f   cinder:GLee.obj
 0001:0000d580       _GLee_Lazy_glAlphaFragmentOp3ATI@48 0040e580 f   cinder:GLee.obj
 0001:0000d5d0       _GLee_Lazy_glPointParameterfvEXT@8 0040e5d0 f   cinder:GLee.obj
 0001:0000d600       _GLee_Lazy_glMultiDrawRangeElementArrayAPPLE@24 0040e600 f   cinder:GLee.obj
 0001:0000d640       _GLee_Lazy_glBindFramebuffer@8 0040e640 f   cinder:GLee.obj
 0001:0000d670       _GLee_Lazy_glMultiTexSubImage1DEXT@32 0040e670 f   cinder:GLee.obj
 0001:0000d6b0       _GLee_Lazy_glReplacementCodeusvSUN@4 0040e6b0 f   cinder:GLee.obj
 0001:0000d6d0       _GLee_Lazy_glMultiTexCoord1d@12 0040e6d0 f   cinder:GLee.obj
 0001:0000d700       _GLee_Lazy_glIndexPointerListIBM@16 0040e700 f   cinder:GLee.obj
 0001:0000d730       _GLee_Lazy_glFramebufferTextureFaceEXT@20 0040e730 f   cinder:GLee.obj
 0001:0000d760       _GLee_Lazy_glVertexAttrib4NbvARB@8 0040e760 f   cinder:GLee.obj
 0001:0000d790       _GLee_Lazy_glGetTextureParameterIuivEXT@16 0040e790 f   cinder:GLee.obj
 0001:0000d7c0       _GLee_Lazy_glGetActiveUniform@28 0040e7c0 f   cinder:GLee.obj
 0001:0000d800       _GLee_Lazy_glDepthRangedNV@16 0040e800 f   cinder:GLee.obj
 0001:0000d840       _GLee_Lazy_glSetFragmentShaderConstantATI@8 0040e840 f   cinder:GLee.obj
 0001:0000d870       _GLee_Lazy_glReplacementCodeubvSUN@4 0040e870 f   cinder:GLee.obj
 0001:0000d890       _GLee_Lazy_glPointParameterfSGIS@8 0040e890 f   cinder:GLee.obj
 0001:0000d8c0       _GLee_Lazy_wglQueryFrameCountNV@8 0040e8c0 f   cinder:GLee.obj
 0001:0000d8f0       _GLee_Lazy_glBeginSceneEXT@0 0040e8f0 f   cinder:GLee.obj
 0001:0000d910       _GLee_Lazy_glGenFencesAPPLE@8 0040e910 f   cinder:GLee.obj
 0001:0000d940       _GLee_Lazy_glDeleteFramebuffers@8 0040e940 f   cinder:GLee.obj
 0001:0000d970       _GLee_Lazy_glMultiTexCoord1dv@8 0040e970 f   cinder:GLee.obj
 0001:0000d9a0       _GLee_Lazy_glVertexAttribIPointer@20 0040e9a0 f   cinder:GLee.obj
 0001:0000d9d0       _GLee_Lazy_glClearDepthdNV@8 0040e9d0 f   cinder:GLee.obj
 0001:0000da00       _GLee_Lazy_glVertexAttrib4NivARB@8 0040ea00 f   cinder:GLee.obj
 0001:0000da30       _GLee_Lazy_glEndSceneEXT@0 0040ea30 f   cinder:GLee.obj
 0001:0000da50       _GLee_Lazy_wglResetFrameCountNV@4 0040ea50 f   cinder:GLee.obj
 0001:0000da80       _GLee_Lazy_glPNTrianglesiATI@8 0040ea80 f   cinder:GLee.obj
 0001:0000dab0       _GLee_Lazy_glNormalPointerListIBM@16 0040eab0 f   cinder:GLee.obj
 0001:0000dae0       _GLee_Lazy_glPointParameterfvSGIS@8 0040eae0 f   cinder:GLee.obj
 0001:0000db10       _GLee_Lazy_glDeleteFencesAPPLE@8 0040eb10 f   cinder:GLee.obj
 0001:0000db40       _GLee_Lazy_glGenFramebuffers@8 0040eb40 f   cinder:GLee.obj
 0001:0000db70       _GLee_Lazy_glMultiTexParameterIivEXT@16 0040eb70 f   cinder:GLee.obj
 0001:0000dba0       _GLee_Lazy_glReplacementCodePointerSUN@12 0040eba0 f   cinder:GLee.obj
 0001:0000dbd0       _GLee_Lazy_glGetAttachedShaders@16 0040ebd0 f   cinder:GLee.obj
 0001:0000dc00       _GLee_Lazy_glMultiTexCoord1f@8 0040ec00 f   cinder:GLee.obj
 0001:0000dc30       _GLee_Lazy_glDepthBoundsdNV@16 0040ec30 f   cinder:GLee.obj
 0001:0000dc70       _GLee_Lazy_glGetInstrumentsSGIX@0 0040ec70 f   cinder:GLee.obj
 0001:0000dc90       _GLee_Lazy_glVertexAttrib4NsvARB@8 0040ec90 f   cinder:GLee.obj
 0001:0000dcc0       _GLee_Lazy_glGetVertexAttribIiv@12 0040ecc0 f   cinder:GLee.obj
 0001:0000dcf0       _GLee_Lazy_glSetFenceAPPLE@4 0040ecf0 f   cinder:GLee.obj
 0001:0000dd10       _GLee_Lazy_glCheckFramebufferStatus@4 0040ed10 f   cinder:GLee.obj
 0001:0000dd40       _GLee_Lazy_glPNTrianglesfATI@8 0040ed40 f   cinder:GLee.obj
 0001:0000dd70       _GLee_Lazy_wglEnumGpusNV@8 0040ed70 f   cinder:GLee.obj
 0001:0000dda0       _GLee_Lazy_glGetAttribLocation@8 0040eda0 f   cinder:GLee.obj
 0001:0000ddd0       _GLee_Lazy_glMultiTexCoord1fv@8 0040edd0 f   cinder:GLee.obj
 0001:0000de00       _GLee_Lazy_glMultiTexSubImage2DEXT@40 0040ee00 f   cinder:GLee.obj
 0001:0000de50       _GLee_Lazy_glIsFenceAPPLE@4 0040ee50 f   cinder:GLee.obj
 0001:0000de80       _GLee_Lazy_glInstrumentsBufferSGIX@8 0040ee80 f   cinder:GLee.obj
 0001:0000deb0       _GLee_Lazy_glProgramLocalParameterI4iNV@24 0040eeb0 f   cinder:GLee.obj
 0001:0000def0       _GLee_Lazy_glMultiTexParameterIuivEXT@16 0040eef0 f   cinder:GLee.obj
 0001:0000df20       _GLee_Lazy_glTexCoordPointerListIBM@20 0040ef20 f   cinder:GLee.obj
 0001:0000df50       _GLee_Lazy_glGetVertexAttribIuiv@12 0040ef50 f   cinder:GLee.obj
 0001:0000df80       _GLee_Lazy_glNewObjectBufferATI@12 0040ef80 f   cinder:GLee.obj
 0001:0000dfb0       _GLee_Lazy_glMultiTexCoord1i@8 0040efb0 f   cinder:GLee.obj
 0001:0000dfe0       _GLee_Lazy_glTestFenceAPPLE@4 0040efe0 f   cinder:GLee.obj
 0001:0000e010       _GLee_Lazy_glColor4ubVertex2fSUN@24 0040f010 f   cinder:GLee.obj
 0001:0000e060       _GLee_Lazy_glPollInstrumentsSGIX@4 0040f060 f   cinder:GLee.obj
 0001:0000e090       _GLee_Lazy_glVertexAttrib4NubARB@20 0040f090 f   cinder:GLee.obj
 0001:0000e0d0       _GLee_Lazy_wglEnumGpuDevicesNV@12 0040f0d0 f   cinder:GLee.obj
 0001:0000e100       _GLee_Lazy_glRenderbufferStorageMultisampleCoverageNV@24 0040f100 f   cinder:GLee.obj
 0001:0000e140       _GLee_Lazy_glGetProgramiv@12 0040f140 f   cinder:GLee.obj
 0001:0000e170       _GLee_Lazy_glFramebufferTexture1D@20 0040f170 f   cinder:GLee.obj
 0001:0000e1a0       _GLee_Lazy_glProgramLocalParameterI4ivNV@12 0040f1a0 f   cinder:GLee.obj
 0001:0000e1d0       _GLee_Lazy_glIsObjectBufferATI@4 0040f1d0 f   cinder:GLee.obj
 0001:0000e200       _GLee_Lazy_glFinishFenceAPPLE@4 0040f200 f   cinder:GLee.obj
 0001:0000e220       _GLee_Lazy_glReadInstrumentsSGIX@4 0040f220 f   cinder:GLee.obj
 0001:0000e240       _GLee_Lazy_glGetUniformuiv@12 0040f240 f   cinder:GLee.obj
 0001:0000e270       _GLee_Lazy_glMultiTexCoord1iv@8 0040f270 f   cinder:GLee.obj
 0001:0000e2a0       _GLee_Lazy_wglCreateAffinityDCNV@4 0040f2a0 f   cinder:GLee.obj
 0001:0000e2d0       _GLee_Lazy_glGetMultiTexParameterIivEXT@16 0040f2d0 f   cinder:GLee.obj
 0001:0000e300       _GLee_Lazy_glColor4ubVertex2fvSUN@8 0040f300 f   cinder:GLee.obj
 0001:0000e330       _GLee_Lazy_glVertexAttrib4NubvARB@8 0040f330 f   cinder:GLee.obj
 0001:0000e360       _GLee_Lazy_glVertexPointerListIBM@20 0040f360 f   cinder:GLee.obj
 0001:0000e390       _GLee_Lazy_glStartInstrumentsSGIX@0 0040f390 f   cinder:GLee.obj
 0001:0000e3b0       _GLee_Lazy_glCopyMultiTexImage1DEXT@32 0040f3b0 f   cinder:GLee.obj
 0001:0000e3f0       _GLee_Lazy_glTestObjectAPPLE@8 0040f3f0 f   cinder:GLee.obj
 0001:0000e420       _GLee_Lazy_glGetProgramInfoLog@16 0040f420 f   cinder:GLee.obj
 0001:0000e450       _GLee_Lazy_glMultiTexCoord1s@8 0040f450 f   cinder:GLee.obj
 0001:0000e480       _GLee_Lazy_glTbufferMask3DFX@4 0040f480 f   cinder:GLee.obj
 0001:0000e4a0       _GLee_Lazy_glVertexAttrib4NuivARB@8 0040f4a0 f   cinder:GLee.obj
 0001:0000e4d0       _GLee_Lazy_glProgramBufferParametersfvNV@20 0040f4d0 f   cinder:GLee.obj
 0001:0000e500       _GLee_Lazy_glStopInstrumentsSGIX@4 0040f500 f   cinder:GLee.obj
 0001:0000e520       _GLee_Lazy_glBindFragDataLocation@12 0040f520 f   cinder:GLee.obj
 0001:0000e550       _GLee_Lazy_glProgramLocalParametersI4ivNV@16 0040f550 f   cinder:GLee.obj
 0001:0000e580       _GLee_Lazy_glFramebufferTexture2D@20 0040f580 f   cinder:GLee.obj
 0001:0000e5b0       _GLee_Lazy_wglEnumGpusFromAffinityDCNV@12 0040f5b0 f   cinder:GLee.obj
 0001:0000e5e0       _GLee_Lazy_glGetMultiTexParameterIuivEXT@16 0040f5e0 f   cinder:GLee.obj
 0001:0000e610       _GLee_Lazy_glUpdateObjectBufferATI@20 0040f610 f   cinder:GLee.obj
 0001:0000e640       _GLee_Lazy_glFrameZoomSGIX@4 0040f640 f   cinder:GLee.obj
 0001:0000e660       _GLee_Lazy_glMultiTexCoord1sv@8 0040f660 f   cinder:GLee.obj
 0001:0000e690       _GLee_Lazy_glFinishObjectAPPLE@8 0040f690 f   cinder:GLee.obj
 0001:0000e6c0       _GLee_Lazy_glSampleMaskEXT@8 0040f6c0 f   cinder:GLee.obj
 0001:0000e6f0       _GLee_Lazy_glVertexAttrib4NusvARB@8 0040f6f0 f   cinder:GLee.obj
 0001:0000e720       _GLee_Lazy_glGetFragDataLocation@8 0040f720 f   cinder:GLee.obj
 0001:0000e750       _GLee_Lazy_glGetShaderiv@12 0040f750 f   cinder:GLee.obj
 0001:0000e780       _GLee_Lazy_wglDeleteDCNV@4 0040f780 f   cinder:GLee.obj
 0001:0000e7b0       _GLee_Lazy_glColor4ubVertex3fSUN@28 0040f7b0 f   cinder:GLee.obj
 0001:0000e800       _GLee_Lazy_glTagSampleBufferSGIX@0 0040f800 f   cinder:GLee.obj
 0001:0000e820       _GLee_Lazy_glBindVertexArrayAPPLE@4 0040f820 f   cinder:GLee.obj
 0001:0000e840       _GLee_Lazy_glSamplePatternEXT@4 0040f840 f   cinder:GLee.obj
 0001:0000e860       _GLee_Lazy_glProgramUniform1fEXT@12 0040f860 f   cinder:GLee.obj
 0001:0000e890       _GLee_Lazy_glProgramBufferParametersIivNV@20 0040f890 f   cinder:GLee.obj
 0001:0000e8c0       _GLee_Lazy_glGetObjectBufferfvATI@12 0040f8c0 f   cinder:GLee.obj
 0001:0000e8f0       _GLee_Lazy_glVertexAttrib4bvARB@8 0040f8f0 f   cinder:GLee.obj
 0001:0000e920       _GLee_Lazy_wglCreateDisplayColorTableEXT@4 0040f920 f   cinder:GLee.obj
 0001:0000e950       _GLee_Lazy_glMultiTexCoord2d@20 0040f950 f   cinder:GLee.obj
 0001:0000e990       _GLee_Lazy_glUniform1ui@8  0040f990 f   cinder:GLee.obj
 0001:0000e9c0       _GLee_Lazy_glProgramLocalParameterI4uiNV@24 0040f9c0 f   cinder:GLee.obj
 0001:0000ea00       _GLee_Lazy_glColor4ubVertex3fvSUN@8 0040fa00 f   cinder:GLee.obj
 0001:0000ea30       _GLee_Lazy_glFramebufferTexture3D@24 0040fa30 f   cinder:GLee.obj
 0001:0000ea70       _GLee_Lazy_glDeleteVertexArraysAPPLE@8 0040fa70 f   cinder:GLee.obj
 0001:0000eaa0       _GLee_Lazy_glGetShaderInfoLog@16 0040faa0 f   cinder:GLee.obj
 0001:0000ead0       _GLee_Lazy_glCopyMultiTexImage2DEXT@36 0040fad0 f   cinder:GLee.obj
 0001:0000eb10       _GLee_Lazy_glMultiTexCoord2dv@8 0040fb10 f   cinder:GLee.obj
 0001:0000eb40       _GLee_Lazy_wglLoadDisplayColorTableEXT@8 0040fb40 f   cinder:GLee.obj
 0001:0000eb70       _GLee_Lazy_glGetObjectBufferivATI@12 0040fb70 f   cinder:GLee.obj
 0001:0000eba0       _GLee_Lazy_glTextureColorMaskSGIS@16 0040fba0 f   cinder:GLee.obj
 0001:0000ebd0       _GLee_Lazy_glProgramUniform2fEXT@16 0040fbd0 f   cinder:GLee.obj
 0001:0000ec10       _GLee_Lazy_glUniform2ui@12 0040fc10 f   cinder:GLee.obj
 0001:0000ec40       _GLee_Lazy_glProgramLocalParameterI4uivNV@12 0040fc40 f   cinder:GLee.obj
 0001:0000ec70       _GLee_Lazy_glGenVertexArraysAPPLE@8 0040fc70 f   cinder:GLee.obj
 0001:0000eca0       _GLee_Lazy_glProgramBufferParametersIuivNV@20 0040fca0 f   cinder:GLee.obj
 0001:0000ecd0       _GLee_Lazy_glVertexAttrib4dARB@36 0040fcd0 f   cinder:GLee.obj
 0001:0000ed30       _GLee_Lazy_glFreeObjectBufferATI@4 0040fd30 f   cinder:GLee.obj
 0001:0000ed50       _GLee_Lazy_glFramebufferRenderbuffer@16 0040fd50 f   cinder:GLee.obj
 0001:0000ed80       _GLee_Lazy_wglBindDisplayColorTableEXT@4 0040fd80 f   cinder:GLee.obj
 0001:0000edb0       _GLee_Lazy_glDeleteFencesNV@8 0040fdb0 f   cinder:GLee.obj
 0001:0000ede0       _GLee_Lazy_glGetShaderSource@16 0040fde0 f   cinder:GLee.obj
 0001:0000ee10       _GLee_Lazy_glIsVertexArrayAPPLE@4 0040fe10 f   cinder:GLee.obj
 0001:0000ee40       _GLee_Lazy_glMultiTexCoord2f@12 0040fe40 f   cinder:GLee.obj
 0001:0000ee80       _GLee_Lazy_glColor3fVertex3fSUN@24 0040fe80 f   cinder:GLee.obj
 0001:0000eee0       _GLee_Lazy_glVertexAttrib4dvARB@8 0040fee0 f   cinder:GLee.obj
 0001:0000ef10       _GLee_Lazy_wglDestroyDisplayColorTableEXT@4 0040ff10 f   cinder:GLee.obj
 0001:0000ef30       _GLee_Lazy_glUniform3ui@16 0040ff30 f   cinder:GLee.obj
 0001:0000ef60       _GLee_Lazy_glProgramLocalParametersI4uivNV@16 0040ff60 f   cinder:GLee.obj
 0001:0000ef90       _GLee_Lazy_glProgramUniform3fEXT@20 0040ff90 f   cinder:GLee.obj
 0001:0000efe0       _GLee_Lazy_glCopyMultiTexSubImage1DEXT@28 0040ffe0 f   cinder:GLee.obj
 0001:0000f020       _GLee_Lazy_glGenFencesNV@8 00410020 f   cinder:GLee.obj
 0001:0000f050       _GLee_Lazy_glGetUniformLocation@8 00410050 f   cinder:GLee.obj
 0001:0000f080       _GLee_Lazy_glMultiTexCoord2fv@8 00410080 f   cinder:GLee.obj
 0001:0000f0b0       _GLee_Lazy_wglGetExtensionsStringEXT@0 004100b0 f   cinder:GLee.obj
 0001:0000f0d0       _GLee_Lazy_glVertexArrayRangeAPPLE@8 004100d0 f   cinder:GLee.obj
 0001:0000f100       _GLee_Lazy_glColor3fVertex3fvSUN@8 00410100 f   cinder:GLee.obj
 0001:0000f130       _GLee_Lazy_glGetFramebufferAttachmentParameteriv@16 00410130 f   cinder:GLee.obj
 0001:0000f160       _GLee_Lazy_glColorMaskIndexedEXT@20 00410160 f   cinder:GLee.obj
 0001:0000f1a0       _GLee_Lazy_glDeformationMap3dSGIX@80 004101a0 f   cinder:GLee.obj
 0001:0000f230       _GLee_Lazy_glIsFenceNV@4   00410230 f   cinder:GLee.obj
 0001:0000f260       _GLee_Lazy_glArrayObjectATI@24 00410260 f   cinder:GLee.obj
 0001:0000f2a0       _GLee_Lazy_glGenerateMipmap@4 004102a0 f   cinder:GLee.obj
 0001:0000f2c0       _GLee_Lazy_wglSwapIntervalEXT@4 004102c0 f   cinder:GLee.obj
 0001:0000f2f0       _GLee_Lazy_glFlushVertexArrayRangeAPPLE@8 004102f0 f   cinder:GLee.obj
 0001:0000f320       _GLee_Lazy_glVertexAttrib4fARB@20 00410320 f   cinder:GLee.obj
 0001:0000f370       _GLee_Lazy_glGetUniformfv@12 00410370 f   cinder:GLee.obj
 0001:0000f3a0       _GLee_Lazy_glMultiTexCoord2i@12 004103a0 f   cinder:GLee.obj
 0001:0000f3d0       _GLee_Lazy_glTestFenceNV@4 004103d0 f   cinder:GLee.obj
 0001:0000f400       _GLee_Lazy_glGetBooleanIndexedvEXT@12 00410400 f   cinder:GLee.obj
 0001:0000f430       _GLee_Lazy_glUniform4ui@20 00410430 f   cinder:GLee.obj
 0001:0000f460       _GLee_Lazy_wglGetSwapIntervalEXT@0 00410460 f   cinder:GLee.obj
 0001:0000f480       _GLee_Lazy_glProgramEnvParameterI4iNV@24 00410480 f   cinder:GLee.obj
 0001:0000f4c0       _GLee_Lazy_glProgramUniform4fEXT@24 004104c0 f   cinder:GLee.obj
 0001:0000f510       _GLee_Lazy_glGetArrayObjectfvATI@12 00410510 f   cinder:GLee.obj
 0001:0000f540       _GLee_Lazy_glVertexArrayParameteriAPPLE@8 00410540 f   cinder:GLee.obj
 0001:0000f570       _GLee_Lazy_glNormal3fVertex3fSUN@24 00410570 f   cinder:GLee.obj
 0001:0000f5d0       _GLee_Lazy_glVertexAttrib4fvARB@8 004105d0 f   cinder:GLee.obj
 0001:0000f600       _GLee_Lazy_glMultiTexCoord2iv@8 00410600 f   cinder:GLee.obj
 0001:0000f630       _GLee_Lazy_glGetUniformiv@12 00410630 f   cinder:GLee.obj
 0001:0000f660       _GLee_Lazy_glCopyMultiTexSubImage2DEXT@36 00410660 f   cinder:GLee.obj
 0001:0000f6a0       _GLee_Lazy_glGetIntegerIndexedvEXT@12 004106a0 f   cinder:GLee.obj
 0001:0000f6d0       _GLee_Lazy_glGetFenceivNV@12 004106d0 f   cinder:GLee.obj
 0001:0000f700       _GLee_Lazy_glUniform1uiv@12 00410700 f   cinder:GLee.obj
 0001:0000f730       _GLee_Lazy_glDrawBuffersATI@8 00410730 f   cinder:GLee.obj
 0001:0000f760       _GLee_Lazy_glProgramEnvParameterI4ivNV@12 00410760 f   cinder:GLee.obj
 0001:0000f790       _GLee_Lazy_glProgramUniform1iEXT@12 00410790 f   cinder:GLee.obj
 0001:0000f7c0       _GLee_Lazy_glGetArrayObjectivATI@12 004107c0 f   cinder:GLee.obj
 0001:0000f7f0       _GLee_Lazy_glNormal3fVertex3fvSUN@8 004107f0 f   cinder:GLee.obj
 0001:0000f820       _GLee_Lazy_glVertexAttrib4ivARB@8 00410820 f   cinder:GLee.obj
 0001:0000f850       _GLee_Lazy_wglAllocateMemoryNV@16 00410850 f   cinder:GLee.obj
 0001:0000f8a0       _GLee_Lazy_glFinishFenceNV@4 004108a0 f   cinder:GLee.obj
 0001:0000f8c0       _GLee_Lazy_glMultiTexCoord2s@12 004108c0 f   cinder:GLee.obj
 0001:0000f8f0       _GLee_Lazy_glEnableIndexedEXT@8 004108f0 f   cinder:GLee.obj
 0001:0000f920       _GLee_Lazy_glGetVertexAttribdv@12 00410920 f   cinder:GLee.obj
 0001:0000f950       _GLee_Lazy_glBlitFramebuffer@40 00410950 f   cinder:GLee.obj
 0001:0000f9a0       _GLee_Lazy_glUniform2uiv@12 004109a0 f   cinder:GLee.obj
 0001:0000f9d0       _GLee_Lazy_wglFreeMemoryNV@4 004109d0 f   cinder:GLee.obj
 0001:0000f9f0       _GLee_Lazy_glSetFenceNV@8  004109f0 f   cinder:GLee.obj
 0001:0000fa20       _GLee_Lazy_glMultiTexCoord2sv@8 00410a20 f   cinder:GLee.obj
 0001:0000fa50       _GLee_Lazy_glProgramEnvParametersI4ivNV@16 00410a50 f   cinder:GLee.obj
 0001:0000fa80       _GLee_Lazy_glProgramUniform2iEXT@16 00410a80 f   cinder:GLee.obj
 0001:0000fab0       _GLee_Lazy_glDisableIndexedEXT@8 00410ab0 f   cinder:GLee.obj
 0001:0000fae0       _GLee_Lazy_glDeformationMap3fSGIX@56 00410ae0 f   cinder:GLee.obj
 0001:0000fb60       _GLee_Lazy_glGetMultiTexImageEXT@24 00410b60 f   cinder:GLee.obj
 0001:0000fba0       _GLee_Lazy_glVariantArrayObjectATI@20 00410ba0 f   cinder:GLee.obj
 0001:0000fbd0       _GLee_Lazy_glVertexAttrib4sARB@20 00410bd0 f   cinder:GLee.obj
 0001:0000fc10       _GLee_Lazy_glGetVertexAttribfv@12 00410c10 f   cinder:GLee.obj
 0001:0000fc40       _GLee_Lazy_glUniform3uiv@12 00410c40 f   cinder:GLee.obj
 0001:0000fc70       _GLee_Lazy_glProgramNamedParameter4fNV@28 00410c70 f   cinder:GLee.obj
 0001:0000fcd0       _GLee_Lazy_glDeformSGIX@4  00410cd0 f   cinder:GLee.obj
 0001:0000fcf0       _GLee_Lazy_wglGetSyncValuesOML@16 00410cf0 f   cinder:GLee.obj
 0001:0000fd20       _GLee_Lazy_glIsEnabledIndexedEXT@8 00410d20 f   cinder:GLee.obj
 0001:0000fd50       _GLee_Lazy_glRenderbufferStorageMultisample@20 00410d50 f   cinder:GLee.obj
 0001:0000fd80       _GLee_Lazy_glVertexAttrib4svARB@8 00410d80 f   cinder:GLee.obj
 0001:0000fdb0       _GLee_Lazy_glMultiTexCoord3d@28 00410db0 f   cinder:GLee.obj
 0001:0000fe00       _GLee_Lazy_glLoadIdentityDeformationMapSGIX@4 00410e00 f   cinder:GLee.obj
 0001:0000fe20       _GLee_Lazy_glGetVariantArrayObjectfvATI@12 00410e20 f   cinder:GLee.obj
 0001:0000fe50       _GLee_Lazy_glGetVertexAttribiv@12 00410e50 f   cinder:GLee.obj
 0001:0000fe80       _GLee_Lazy_glGetMultiTexParameterfvEXT@16 00410e80 f   cinder:GLee.obj
 0001:0000feb0       _GLee_Lazy_glColor4fNormal3fVertex3fSUN@40 00410eb0 f   cinder:GLee.obj
 0001:0000ff40       _GLee_Lazy_glProgramUniform3iEXT@20 00410f40 f   cinder:GLee.obj
 0001:0000ff70       _GLee_Lazy_glBeginTransformFeedbackNV@4 00410f70 f   cinder:GLee.obj
 0001:0000ff90       _GLee_Lazy_glUniform4uiv@12 00410f90 f   cinder:GLee.obj
 0001:0000ffc0       _GLee_Lazy_glProgramEnvParameterI4uiNV@24 00410fc0 f   cinder:GLee.obj
 0001:00010000       _GLee_Lazy_glReferencePlaneSGIX@4 00411000 f   cinder:GLee.obj
 0001:00010020       _GLee_Lazy_glVertexAttrib4ubvARB@8 00411020 f   cinder:GLee.obj
 0001:00010050       _GLee_Lazy_glMultiTexCoord3dv@8 00411050 f   cinder:GLee.obj
 0001:00010080       _GLee_Lazy_wglGetMscRateOML@12 00411080 f   cinder:GLee.obj
 0001:000100b0       _GLee_Lazy_glEndTransformFeedbackNV@0 004110b0 f   cinder:GLee.obj
 0001:000100d0       _GLee_Lazy_glMapControlPointsNV@36 004110d0 f   cinder:GLee.obj
 0001:00010110       _GLee_Lazy_glFlushRasterSGIX@0 00411110 f   cinder:GLee.obj
 0001:00010130       _GLee_Lazy_glGetVariantArrayObjectivATI@12 00411130 f   cinder:GLee.obj
 0001:00010160       _GLee_Lazy_glGetVertexAttribPointerv@12 00411160 f   cinder:GLee.obj
 0001:00010190       _GLee_Lazy_glColor4fNormal3fVertex3fvSUN@12 00411190 f   cinder:GLee.obj
 0001:000101c0       _GLee_Lazy_glFramebufferTextureLayer@20 004111c0 f   cinder:GLee.obj
 0001:000101f0       _GLee_Lazy_glProgramNamedParameter4dNV@44 004111f0 f   cinder:GLee.obj
 0001:00010250       _GLee_Lazy_glTexParameterIiv@12 00411250 f   cinder:GLee.obj
 0001:00010280       _GLee_Lazy_glGetMultiTexParameterivEXT@16 00411280 f   cinder:GLee.obj
 0001:000102b0       _GLee_Lazy_glVertexAttrib4uivARB@8 004112b0 f   cinder:GLee.obj
 0001:000102e0       _GLee_Lazy_glProgramEnvParameterI4uivNV@12 004112e0 f   cinder:GLee.obj
 0001:00010310       _GLee_Lazy_glBeginVertexShaderEXT@0 00411310 f   cinder:GLee.obj
 0001:00010330       _GLee_Lazy_glIsProgram@4   00411330 f   cinder:GLee.obj
 0001:00010360       _GLee_Lazy_glTransformFeedbackAttribsNV@12 00411360 f   cinder:GLee.obj
 0001:00010390       _GLee_Lazy_glFogFuncSGIS@8 00411390 f   cinder:GLee.obj
 0001:000103c0       _GLee_Lazy_glMultiTexCoord3f@16 004113c0 f   cinder:GLee.obj
 0001:00010400       _GLee_Lazy_glProgramUniform4iEXT@24 00411400 f   cinder:GLee.obj
 0001:00010440       _GLee_Lazy_glEndVertexShaderEXT@0 00411440 f   cinder:GLee.obj
 0001:00010460       _GLee_Lazy_glMapParameterivNV@12 00411460 f   cinder:GLee.obj
 0001:00010490       _GLee_Lazy_wglSwapBuffersMscOML@28 00411490 f   cinder:GLee.obj
 0001:000104d0       _GLee_Lazy_glProgramParameteriARB@12 004114d0 f   cinder:GLee.obj
 0001:00010500       _GLee_Lazy_glVertexAttrib4usvARB@8 00411500 f   cinder:GLee.obj
 0001:00010530       _GLee_Lazy_glGetFogFuncSGIS@4 00411530 f   cinder:GLee.obj
 0001:00010550       _GLee_Lazy_glTexParameterIuiv@12 00411550 f   cinder:GLee.obj
 0001:00010580       _GLee_Lazy_glIsShader@4    00411580 f   cinder:GLee.obj
 0001:000105b0       _GLee_Lazy_glProgramNamedParameter4fvNV@16 004115b0 f   cinder:GLee.obj
 0001:000105e0       _GLee_Lazy_glBindVertexShaderEXT@4 004115e0 f   cinder:GLee.obj
 0001:00010600       _GLee_Lazy_glTexCoord2fVertex3fSUN@20 00411600 f   cinder:GLee.obj
 0001:00010650       _GLee_Lazy_glMultiTexCoord3fv@8 00411650 f   cinder:GLee.obj
 0001:00010680       _GLee_Lazy_glProgramEnvParametersI4uivNV@16 00411680 f   cinder:GLee.obj
 0001:000106b0       _GLee_Lazy_glGetMultiTexLevelParameterfvEXT@20 004116b0 f   cinder:GLee.obj
 0001:000106e0       _GLee_Lazy_glMapParameterfvNV@12 004116e0 f   cinder:GLee.obj
 0001:00010710       _GLee_Lazy_glLinkProgram@4 00411710 f   cinder:GLee.obj
 0001:00010730       _GLee_Lazy_glGenVertexShadersEXT@4 00411730 f   cinder:GLee.obj
 0001:00010760       _GLee_Lazy_glProgramUniform1fvEXT@16 00411760 f   cinder:GLee.obj
 0001:00010790       _GLee_Lazy_glBindBufferRangeNV@20 00411790 f   cinder:GLee.obj
 0001:000107c0       _GLee_Lazy_glImageTransformParameteriHP@12 004117c0 f   cinder:GLee.obj
 0001:000107f0       _GLee_Lazy_glGetTexParameterIiv@12 004117f0 f   cinder:GLee.obj
 0001:00010820       _GLee_Lazy_glTexCoord2fVertex3fvSUN@8 00411820 f   cinder:GLee.obj
 0001:00010850       _GLee_Lazy_glFramebufferTextureARB@16 00411850 f   cinder:GLee.obj
 0001:00010880       _GLee_Lazy_wglSwapLayerBuffersMscOML@32 00411880 f   cinder:GLee.obj
 0001:000108c0       _GLee_Lazy_glGetProgramLocalParameterIivNV@12 004118c0 f   cinder:GLee.obj
 0001:000108f0       _GLee_Lazy_glProgramNamedParameter4dvNV@16 004118f0 f   cinder:GLee.obj
 0001:00010920       _GLee_Lazy_glDeleteVertexShaderEXT@4 00411920 f   cinder:GLee.obj
 0001:00010940       _GLee_Lazy_glVertexAttribPointerARB@24 00411940 f   cinder:GLee.obj
 0001:00010980       _GLee_Lazy_glMultiTexCoord3i@16 00411980 f   cinder:GLee.obj
 0001:000109b0       _GLee_Lazy_glShaderSource@16 004119b0 f   cinder:GLee.obj
 0001:000109e0       _GLee_Lazy_glGetMultiTexLevelParameterivEXT@20 004119e0 f   cinder:GLee.obj
 0001:00010a10       _GLee_Lazy_glImageTransformParameterfHP@12 00411a10 f   cinder:GLee.obj
 0001:00010a40       _GLee_Lazy_glGetTexParameterIuiv@12 00411a40 f   cinder:GLee.obj
 0001:00010a70       _GLee_Lazy_glProgramUniform2fvEXT@16 00411a70 f   cinder:GLee.obj
 0001:00010aa0       _GLee_Lazy_glBindBufferOffsetNV@16 00411aa0 f   cinder:GLee.obj
 0001:00010ad0       _GLee_Lazy_glEnableVertexAttribArrayARB@4 00411ad0 f   cinder:GLee.obj
 0001:00010af0       _GLee_Lazy_glMultiTexCoord3iv@8 00411af0 f   cinder:GLee.obj
 0001:00010b20       _GLee_Lazy_glGetProgramLocalParameterIuivNV@12 00411b20 f   cinder:GLee.obj
 0001:00010b50       _GLee_Lazy_glShaderOp1EXT@12 00411b50 f   cinder:GLee.obj
 0001:00010b80       _GLee_Lazy_glUseProgram@4  00411b80 f   cinder:GLee.obj
 0001:00010ba0       _GLee_Lazy_glGetMapControlPointsNV@28 00411ba0 f   cinder:GLee.obj
 0001:00010be0       _GLee_Lazy_glFramebufferTextureLayerARB@20 00411be0 f   cinder:GLee.obj
 0001:00010c10       _GLee_Lazy_glGetProgramNamedParameterfvNV@16 00411c10 f   cinder:GLee.obj
 0001:00010c40       _GLee_Lazy_glDisableVertexAttribArrayARB@4 00411c40 f   cinder:GLee.obj
 0001:00010c60       _GLee_Lazy_glImageTransformParameterivHP@12 00411c60 f   cinder:GLee.obj
 0001:00010c90       _GLee_Lazy_glClearBufferiv@12 00411c90 f   cinder:GLee.obj
 0001:00010cc0       _GLee_Lazy_glBindBufferBaseNV@12 00411cc0 f   cinder:GLee.obj
 0001:00010cf0       _GLee_Lazy_glTexCoord4fVertex4fSUN@32 00411cf0 f   cinder:GLee.obj
 0001:00010d70       _GLee_Lazy_glUniform1f@8   00411d70 f   cinder:GLee.obj
 0001:00010da0       _GLee_Lazy_wglWaitForMscOML@40 00411da0 f   cinder:GLee.obj
 0001:00010df0       _GLee_Lazy_glProgramUniform3fvEXT@16 00411df0 f   cinder:GLee.obj
 0001:00010e20       _GLee_Lazy_glGetProgramEnvParameterIivNV@12 00411e20 f   cinder:GLee.obj
 0001:00010e50       _GLee_Lazy_glGetMapParameterivNV@12 00411e50 f   cinder:GLee.obj
 0001:00010e80       _GLee_Lazy_glMultiTexCoord3s@16 00411e80 f   cinder:GLee.obj
 0001:00010eb0       _GLee_Lazy_glShaderOp2EXT@16 00411eb0 f   cinder:GLee.obj
 0001:00010ee0       _GLee_Lazy_glGetProgramNamedParameterdvNV@16 00411ee0 f   cinder:GLee.obj
 0001:00010f10       _GLee_Lazy_glProgramStringARB@16 00411f10 f   cinder:GLee.obj
 0001:00010f40       _GLee_Lazy_glTexCoord4fVertex4fvSUN@8 00411f40 f   cinder:GLee.obj
 0001:00010f70       _GLee_Lazy_glImageTransformParameterfvHP@12 00411f70 f   cinder:GLee.obj
 0001:00010fa0       _GLee_Lazy_glFramebufferTextureFaceARB@20 00411fa0 f   cinder:GLee.obj
 0001:00010fd0       _GLee_Lazy_glClearBufferuiv@12 00411fd0 f   cinder:GLee.obj
 0001:00011000       _GLee_Lazy_glUniform2f@12  00412000 f   cinder:GLee.obj
 0001:00011040       _GLee_Lazy_glTransformFeedbackVaryingsNV@16 00412040 f   cinder:GLee.obj
 0001:00011070       _GLee_Lazy_glMultiTexCoord3sv@8 00412070 f   cinder:GLee.obj
 0001:000110a0       _GLee_Lazy_glGetProgramEnvParameterIuivNV@12 004120a0 f   cinder:GLee.obj
 0001:000110d0       _GLee_Lazy_glProgramUniform4fvEXT@16 004120d0 f   cinder:GLee.obj
 0001:00011100       _GLee_Lazy_glGetMapParameterfvNV@12 00412100 f   cinder:GLee.obj
 0001:00011130       _GLee_Lazy_glVertex2hNV@8  00412130 f   cinder:GLee.obj
 0001:00011160       _GLee_Lazy_glBindProgramARB@8 00412160 f   cinder:GLee.obj
 0001:00011190       _GLee_Lazy_glMultiTexImage3DEXT@44 00412190 f   cinder:GLee.obj
 0001:000111e0       _GLee_Lazy_glVertexAttribDivisor@8 004121e0 f   cinder:GLee.obj
 0001:00011210       _GLee_Lazy_wglWaitForSbcOML@24 00412210 f   cinder:GLee.obj
 0001:00011250       _GLee_Lazy_glGetImageTransformParameterivHP@12 00412250 f   cinder:GLee.obj
 0001:00011280       _GLee_Lazy_glClearBufferfv@12 00412280 f   cinder:GLee.obj
 0001:000112b0       _GLee_Lazy_glActiveVaryingNV@8 004122b0 f   cinder:GLee.obj
 0001:000112e0       _GLee_Lazy_glShaderOp3EXT@20 004122e0 f   cinder:GLee.obj
 0001:00011310       _GLee_Lazy_glVertex2hvNV@4 00412310 f   cinder:GLee.obj
 0001:00011330       _GLee_Lazy_glVertexAttribI2iEXT@12 00412330 f   cinder:GLee.obj
 0001:00011360       _GLee_Lazy_glDeleteProgramsARB@8 00412360 f   cinder:GLee.obj
 0001:00011390       _GLee_Lazy_glUniform3f@16  00412390 f   cinder:GLee.obj
 0001:000113d0       _GLee_Lazy_wglGetFrameUsageI3D@4 004123d0 f   cinder:GLee.obj
 0001:00011400       _GLee_Lazy_glProgramUniform1ivEXT@16 00412400 f   cinder:GLee.obj
 0001:00011430       _GLee_Lazy_glGetMapAttribParameterivNV@16 00412430 f   cinder:GLee.obj
 0001:00011460       _GLee_Lazy_glMultiTexCoord4d@36 00412460 f   cinder:GLee.obj
 0001:000114c0       _GLee_Lazy_glGetVaryingLocationNV@8 004124c0 f   cinder:GLee.obj
 0001:000114f0       _GLee_Lazy_glGetImageTransformParameterfvHP@12 004124f0 f   cinder:GLee.obj
 0001:00011520       _GLee_Lazy_glMapBufferRange@16 00412520 f   cinder:GLee.obj
 0001:00011550       _GLee_Lazy_wglBeginFrameTrackingI3D@0 00412550 f   cinder:GLee.obj
 0001:00011570       _GLee_Lazy_glVertex3hNV@12 00412570 f   cinder:GLee.obj
 0001:000115a0       _GLee_Lazy_glGenProgramsARB@8 004125a0 f   cinder:GLee.obj
 0001:000115d0       _GLee_Lazy_glClearBufferfi@16 004125d0 f   cinder:GLee.obj
 0001:00011600       _GLee_Lazy_glTexCoord2fColor4ubVertex3fSUN@36 00412600 f   cinder:GLee.obj
 0001:00011670       _GLee_Lazy_glMultiTexCoord4dv@8 00412670 f   cinder:GLee.obj
 0001:000116a0       _GLee_Lazy_wglEndFrameTrackingI3D@0 004126a0 f   cinder:GLee.obj
 0001:000116c0       _GLee_Lazy_glVertexAttribI3iEXT@16 004126c0 f   cinder:GLee.obj
 0001:000116f0       _GLee_Lazy_glVertex3hvNV@4 004126f0 f   cinder:GLee.obj
 0001:00011710       _GLee_Lazy_glSwizzleEXT@24 00412710 f   cinder:GLee.obj
 0001:00011750       _GLee_Lazy_glUniform4f@20  00412750 f   cinder:GLee.obj
 0001:000117a0       _GLee_Lazy_glProgramUniform2ivEXT@16 004127a0 f   cinder:GLee.obj
 0001:000117d0       _GLee_Lazy_glGetMapAttribParameterfvNV@16 004127d0 f   cinder:GLee.obj
 0001:00011800       _GLee_Lazy_glFlushMappedBufferRange@12 00412800 f   cinder:GLee.obj
 0001:00011830       _GLee_Lazy_glGetStringi@8  00412830 f   cinder:GLee.obj
 0001:00011860       _GLee_Lazy_glTexCoord2fColor4ubVertex3fvSUN@12 00412860 f   cinder:GLee.obj
 0001:00011890       _GLee_Lazy_glColorSubTableEXT@24 00412890 f   cinder:GLee.obj
 0001:000118d0       _GLee_Lazy_glActiveTextureARB@4 004128d0 f   cinder:GLee.obj
 0001:000118f0       _GLee_Lazy_glUniform1i@8   004128f0 f   cinder:GLee.obj
 0001:00011920       _GLee_Lazy_wglQueryFrameTrackingI3D@12 00412920 f   cinder:GLee.obj
 0001:00011950       _GLee_Lazy_glMultiTexSubImage3DEXT@48 00412950 f   cinder:GLee.obj
 0001:000119a0       _GLee_Lazy_glEvalMapsNV@8  004129a0 f   cinder:GLee.obj
 0001:000119d0       _GLee_Lazy_glGetActiveVaryingNV@28 004129d0 f   cinder:GLee.obj
 0001:00011a10       _GLee_Lazy_glProgramEnvParameter4dARB@40 00412a10 f   cinder:GLee.obj
 0001:00011a70       _GLee_Lazy_glVertex4hNV@16 00412a70 f   cinder:GLee.obj
 0001:00011aa0       _GLee_Lazy_glTexBufferARB@12 00412aa0 f   cinder:GLee.obj
 0001:00011ad0       _GLee_Lazy_glMultiTexCoord4f@20 00412ad0 f   cinder:GLee.obj
 0001:00011b20       _GLee_Lazy_glVertexAttribI4iEXT@20 00412b20 f   cinder:GLee.obj
 0001:00011b50       _GLee_Lazy_glProgramUniform3ivEXT@16 00412b50 f   cinder:GLee.obj
 0001:00011b80       _GLee_Lazy_glClientActiveTextureARB@4 00412b80 f   cinder:GLee.obj
 0001:00011ba0       _GLee_Lazy_glWriteMaskEXT@24 00412ba0 f   cinder:GLee.obj
 0001:00011be0       _GLee_Lazy_glVertex4hvNV@4 00412be0 f   cinder:GLee.obj
 0001:00011c00       _GLee_Lazy_glBindVertexArray@4 00412c00 f   cinder:GLee.obj
 0001:00011c20       _GLee_Lazy_glUniform2i@12  00412c20 f   cinder:GLee.obj
 0001:00011c50       _GLee_Lazy_glCombinerStageParameterfvNV@12 00412c50 f   cinder:GLee.obj
 0001:00011c80       _GLee_Lazy_glMultiTexCoord4fv@8 00412c80 f   cinder:GLee.obj
 0001:00011cb0       _GLee_Lazy_wglGetVideoDeviceNV@12 00412cb0 f   cinder:GLee.obj
 0001:00011ce0       _GLee_Lazy_glVertexAttribI1uiEXT@8 00412ce0 f   cinder:GLee.obj
 0001:00011d10       _GLee_Lazy_glGetTransformFeedbackVaryingNV@12 00412d10 f   cinder:GLee.obj
 0001:00011d40       _GLee_Lazy_glProgramEnvParameter4dvARB@12 00412d40 f   cinder:GLee.obj
 0001:00011d70       _GLee_Lazy_glMultiTexCoord1dARB@12 00412d70 f   cinder:GLee.obj
 0001:00011da0       _GLee_Lazy_glCopyColorSubTableEXT@20 00412da0 f   cinder:GLee.obj
 0001:00011dd0       _GLee_Lazy_glDeleteVertexArrays@8 00412dd0 f   cinder:GLee.obj
 0001:00011e00       _GLee_Lazy_glProgramUniform4ivEXT@16 00412e00 f   cinder:GLee.obj
 0001:00011e30       _GLee_Lazy_glInsertComponentEXT@12 00412e30 f   cinder:GLee.obj
 0001:00011e60       _GLee_Lazy_glTexCoord2fColor3fVertex3fSUN@32 00412e60 f   cinder:GLee.obj
 0001:00011ee0       _GLee_Lazy_wglReleaseVideoDeviceNV@4 00412ee0 f   cinder:GLee.obj
 0001:00011f10       _GLee_Lazy_glNormal3hNV@12 00412f10 f   cinder:GLee.obj
 0001:00011f40       _GLee_Lazy_glGetCombinerStageParameterfvNV@12 00412f40 f   cinder:GLee.obj
 0001:00011f70       _GLee_Lazy_glMultiTexCoord1dvARB@8 00412f70 f   cinder:GLee.obj
 0001:00011fa0       _GLee_Lazy_glVertexAttribI2uiEXT@12 00412fa0 f   cinder:GLee.obj
 0001:00011fd0       _GLee_Lazy_glUniformBufferEXT@12 00412fd0 f   cinder:GLee.obj
 0001:00012000       _GLee_Lazy_glHintPGI@8     00413000 f   cinder:GLee.obj
 0001:00012030       _GLee_Lazy_glUniform3i@16  00413030 f   cinder:GLee.obj
 0001:00012060       _GLee_Lazy_glNormal3hvNV@4 00413060 f   cinder:GLee.obj
 0001:00012080       _GLee_Lazy_glGenVertexArrays@8 00413080 f   cinder:GLee.obj
 0001:000120b0       _GLee_Lazy_glMultiTexCoord4i@20 004130b0 f   cinder:GLee.obj
 0001:000120e0       _GLee_Lazy_glCopyMultiTexSubImage3DEXT@40 004130e0 f   cinder:GLee.obj
 0001:00012130       _GLee_Lazy_glExtractComponentEXT@12 00413130 f   cinder:GLee.obj
 0001:00012160       _GLee_Lazy_glTexCoord2fColor3fVertex3fvSUN@12 00413160 f   cinder:GLee.obj
 0001:00012190       _GLee_Lazy_glProgramEnvParameter4fARB@24 00413190 f   cinder:GLee.obj
 0001:000121e0       _GLee_Lazy_glMultiTexCoord1fARB@8 004131e0 f   cinder:GLee.obj
 0001:00012210       _GLee_Lazy_wglBindVideoImageNV@12 00413210 f   cinder:GLee.obj
 0001:00012240       _GLee_Lazy_glGetUniformBufferSizeEXT@8 00413240 f   cinder:GLee.obj
 0001:00012270       _GLee_Lazy_glIsVertexArray@4 00413270 f   cinder:GLee.obj
 0001:000122a0       _GLee_Lazy_glAreProgramsResidentNV@12 004132a0 f   cinder:GLee.obj
 0001:000122d0       _GLee_Lazy_glProgramUniformMatrix2fvEXT@20 004132d0 f   cinder:GLee.obj
 0001:00012300       _GLee_Lazy_glGetListParameterfvSGIX@12 00413300 f   cinder:GLee.obj
 0001:00012330       _GLee_Lazy_glMultiTexCoord4iv@8 00413330 f   cinder:GLee.obj
 0001:00012360       _GLee_Lazy_glVertexAttribI3uiEXT@16 00413360 f   cinder:GLee.obj
 0001:00012390       _GLee_Lazy_glColor3hNV@12  00413390 f   cinder:GLee.obj
 0001:000123c0       _GLee_Lazy_glBindMultiTextureEXT@12 004133c0 f   cinder:GLee.obj
 0001:000123f0       _GLee_Lazy_glMultiTexCoord1fvARB@8 004133f0 f   cinder:GLee.obj
 0001:00012420       _GLee_Lazy_glUniform4i@20  00413420 f   cinder:GLee.obj
 0001:00012450       _GLee_Lazy_wglReleaseVideoImageNV@8 00413450 f   cinder:GLee.obj
 0001:00012480       _GLee_Lazy_glGetUniformOffsetEXT@8 00413480 f   cinder:GLee.obj
 0001:000124b0       _GLee_Lazy_glProgramEnvParameter4fvARB@12 004134b0 f   cinder:GLee.obj
 0001:000124e0       _GLee_Lazy_glColor3hvNV@4  004134e0 f   cinder:GLee.obj
 0001:00012500       _GLee_Lazy_glGenSymbolsEXT@16 00413500 f   cinder:GLee.obj
 0001:00012530       _GLee_Lazy_glBindProgramNV@8 00413530 f   cinder:GLee.obj
 0001:00012560       _GLee_Lazy_glGetListParameterivSGIX@12 00413560 f   cinder:GLee.obj
 0001:00012590       _GLee_Lazy_glBlendColorEXT@16 00413590 f   cinder:GLee.obj
 0001:000125e0       _GLee_Lazy_glEnableClientStateIndexedEXT@8 004135e0 f   cinder:GLee.obj
 0001:00012610       _GLee_Lazy_glMultiTexCoord1iARB@8 00413610 f   cinder:GLee.obj
 0001:00012640       _GLee_Lazy_glProgramUniformMatrix3fvEXT@20 00413640 f   cinder:GLee.obj
 0001:00012670       _GLee_Lazy_glUniform1fv@12 00413670 f   cinder:GLee.obj
 0001:000126a0       _GLee_Lazy_glDeleteProgramsNV@8 004136a0 f   cinder:GLee.obj
 0001:000126d0       _GLee_Lazy_glMultiTexCoord4s@20 004136d0 f   cinder:GLee.obj
 0001:00012710       _GLee_Lazy_glVertexAttribI4uiEXT@20 00413710 f   cinder:GLee.obj
 0001:00012740       _GLee_Lazy_glTexCoord2fNormal3fVertex3fSUN@32 00413740 f   cinder:GLee.obj
 0001:000127c0       _GLee_Lazy_glTexParameterIivEXT@12 004137c0 f   cinder:GLee.obj
 0001:000127f0       _GLee_Lazy_glSetInvariantEXT@12 004137f0 f   cinder:GLee.obj
 0001:00012820       _GLee_Lazy_glPolygonOffsetEXT@8 00413820 f   cinder:GLee.obj
 0001:00012850       _GLee_Lazy_wglSendPbufferToVideoNV@16 00413850 f   cinder:GLee.obj
 0001:00012880       _GLee_Lazy_glDisableClientStateIndexedEXT@8 00413880 f   cinder:GLee.obj
 0001:000128b0       _GLee_Lazy_glColor4hNV@16  004138b0 f   cinder:GLee.obj
 0001:000128e0       _GLee_Lazy_glListParameterfSGIX@12 004138e0 f   cinder:GLee.obj
 0001:00012910       _GLee_Lazy_glMultiTexCoord1ivARB@8 00413910 f   cinder:GLee.obj
 0001:00012940       _GLee_Lazy_glProgramLocalParameter4dARB@40 00413940 f   cinder:GLee.obj
 0001:000129a0       _GLee_Lazy_glMultiTexCoord4sv@8 004139a0 f   cinder:GLee.obj
 0001:000129d0       _GLee_Lazy_glVertexAttribI1ivEXT@8 004139d0 f   cinder:GLee.obj
 0001:00012a00       _GLee_Lazy_glUniform2fv@12 00413a00 f   cinder:GLee.obj
 0001:00012a30       _GLee_Lazy_glColor4hvNV@4  00413a30 f   cinder:GLee.obj
 0001:00012a50       _GLee_Lazy_glExecuteProgramNV@12 00413a50 f   cinder:GLee.obj
 0001:00012a80       _GLee_Lazy_glTexCoord2fNormal3fVertex3fvSUN@12 00413a80 f   cinder:GLee.obj
 0001:00012ab0       _GLee_Lazy_glTexParameterIuivEXT@12 00413ab0 f   cinder:GLee.obj
 0001:00012ae0       _GLee_Lazy_glMultiTexCoord1sARB@8 00413ae0 f   cinder:GLee.obj
 0001:00012b10       _GLee_Lazy_glProgramUniformMatrix4fvEXT@20 00413b10 f   cinder:GLee.obj
 0001:00012b40       _GLee_Lazy_glSetLocalConstantEXT@12 00413b40 f   cinder:GLee.obj
 0001:00012b70       _GLee_Lazy_glLoadTransposeMatrixf@4 00413b70 f   cinder:GLee.obj
 0001:00012b90       _GLee_Lazy_glListParameterfvSGIX@12 00413b90 f   cinder:GLee.obj
 0001:00012bc0       _GLee_Lazy_wglGetVideoInfoNV@12 00413bc0 f   cinder:GLee.obj
 0001:00012bf0       _GLee_Lazy_glTexCoord1hNV@4 00413bf0 f   cinder:GLee.obj
 0001:00012c10       _GLee_Lazy_glVertexAttribI2ivEXT@8 00413c10 f   cinder:GLee.obj
 0001:00012c40       _GLee_Lazy_glGenProgramsNV@8 00413c40 f   cinder:GLee.obj
 0001:00012c70       _GLee_Lazy_glProgramLocalParameter4dvARB@12 00413c70 f   cinder:GLee.obj
 0001:00012ca0       _GLee_Lazy_glMultiTexCoordPointerEXT@20 00413ca0 f   cinder:GLee.obj
 0001:00012cd0       _GLee_Lazy_glUniform3fv@12 00413cd0 f   cinder:GLee.obj
 0001:00012d00       _GLee_Lazy_glLoadTransposeMatrixd@4 00413d00 f   cinder:GLee.obj
 0001:00012d20       _GLee_Lazy_glMultiTexCoord1svARB@8 00413d20 f   cinder:GLee.obj
 0001:00012d50       _GLee_Lazy_glTexCoord1hvNV@4 00413d50 f   cinder:GLee.obj
 0001:00012d70       _GLee_Lazy_glVariantbvEXT@8 00413d70 f   cinder:GLee.obj
 0001:00012da0       _GLee_Lazy_glGetTexParameterIivEXT@12 00413da0 f   cinder:GLee.obj
 0001:00012dd0       _GLee_Lazy_glVertexAttribI3ivEXT@8 00413dd0 f   cinder:GLee.obj
 0001:00012e00       _GLee_Lazy_glListParameteriSGIX@12 00413e00 f   cinder:GLee.obj
 0001:00012e30       _GLee_Lazy_glMultTransposeMatrixf@4 00413e30 f   cinder:GLee.obj
 0001:00012e50       _GLee_Lazy_glProgramUniformMatrix2x3fvEXT@20 00413e50 f   cinder:GLee.obj
 0001:00012e80       _GLee_Lazy_glTexCoord2hNV@8 00413e80 f   cinder:GLee.obj
 0001:00012eb0       _GLee_Lazy_glVariantsvEXT@8 00413eb0 f   cinder:GLee.obj
 0001:00012ee0       _GLee_Lazy_glTexImage3DEXT@40 00413ee0 f   cinder:GLee.obj
 0001:00012f30       _GLee_Lazy_glUniform4fv@12 00413f30 f   cinder:GLee.obj
 0001:00012f60       _GLee_Lazy_glGetProgramParameterdvNV@16 00413f60 f   cinder:GLee.obj
 0001:00012f90       _GLee_Lazy_glMultiTexCoord2dARB@20 00413f90 f   cinder:GLee.obj
 0001:00012fd0       _GLee_Lazy_glMultTransposeMatrixd@4 00413fd0 f   cinder:GLee.obj
 0001:00012ff0       _GLee_Lazy_glMultiTexEnvfEXT@16 00413ff0 f   cinder:GLee.obj
 0001:00013020       _GLee_Lazy_glVertexAttribI4ivEXT@8 00414020 f   cinder:GLee.obj
 0001:00013050       _GLee_Lazy_glGetTexParameterIuivEXT@12 00414050 f   cinder:GLee.obj
 0001:00013080       _GLee_Lazy_glTexCoord2hvNV@4 00414080 f   cinder:GLee.obj
 0001:000130a0       _GLee_Lazy_glListParameterivSGIX@12 004140a0 f   cinder:GLee.obj
 0001:000130d0       _GLee_Lazy_glProgramLocalParameter4fARB@24 004140d0 f   cinder:GLee.obj
 0001:00013120       _GLee_Lazy_glVariantivEXT@8 00414120 f   cinder:GLee.obj
 0001:00013150       _GLee_Lazy_glMultiTexCoord2dvARB@8 00414150 f   cinder:GLee.obj
 0001:00013180       _GLee_Lazy_glSampleCoverage@8 00414180 f   cinder:GLee.obj
 0001:000131b0       _GLee_Lazy_glUniform1iv@12 004141b0 f   cinder:GLee.obj
 0001:000131e0       _GLee_Lazy_glVertexAttribI1uivEXT@8 004141e0 f   cinder:GLee.obj
 0001:00013210       _GLee_Lazy_glTexCoord2fColor4fNormal3fVertex3fSUN@48 00414210 f   cinder:GLee.obj
 0001:000132c0       _GLee_Lazy_glProgramUniformMatrix3x2fvEXT@20 004142c0 f   cinder:GLee.obj
 0001:000132f0       _GLee_Lazy_glGetProgramParameterfvNV@16 004142f0 f   cinder:GLee.obj
 0001:00013320       _GLee_Lazy_glIndexMaterialEXT@8 00414320 f   cinder:GLee.obj
 0001:00013350       _GLee_Lazy_glMultiTexEnvfvEXT@16 00414350 f   cinder:GLee.obj
 0001:00013380       _GLee_Lazy_glClearColorIiEXT@16 00414380 f   cinder:GLee.obj
 0001:000133b0       _GLee_Lazy_glTexCoord3hNV@12 004143b0 f   cinder:GLee.obj
 0001:000133e0       _GLee_Lazy_glVariantfvEXT@8 004143e0 f   cinder:GLee.obj
 0001:00013410       _GLee_Lazy_glProgramLocalParameter4fvARB@12 00414410 f   cinder:GLee.obj
 0001:00013440       _GLee_Lazy_glVertexAttribI2uivEXT@8 00414440 f   cinder:GLee.obj
 0001:00013470       _GLee_Lazy_glMultiTexCoord2fARB@12 00414470 f   cinder:GLee.obj
 0001:000134b0       _GLee_Lazy_glUniform2iv@12 004144b0 f   cinder:GLee.obj
 0001:000134e0       _GLee_Lazy_glTexCoord3hvNV@4 004144e0 f   cinder:GLee.obj
 0001:00013500       _GLee_Lazy_glIndexFuncEXT@8 00414500 f   cinder:GLee.obj
 0001:00013530       _GLee_Lazy_glVariantdvEXT@8 00414530 f   cinder:GLee.obj
 0001:00013560       _GLee_Lazy_glGetProgramivNV@12 00414560 f   cinder:GLee.obj
 0001:00013590       _GLee_Lazy_glTexCoord2fColor4fNormal3fVertex3fvSUN@16 00414590 f   cinder:GLee.obj
 0001:000135c0       _GLee_Lazy_glGetProgramEnvParameterdvARB@12 004145c0 f   cinder:GLee.obj
 0001:000135f0       _GLee_Lazy_glVertexAttribI3uivEXT@8 004145f0 f   cinder:GLee.obj
 0001:00013620       _GLee_Lazy_glMultiTexEnviEXT@16 00414620 f   cinder:GLee.obj
 0001:00013650       _GLee_Lazy_glMultiTexCoord2fvARB@8 00414650 f   cinder:GLee.obj
 0001:00013680       _GLee_Lazy_glProgramUniformMatrix2x4fvEXT@20 00414680 f   cinder:GLee.obj
 0001:000136b0       _GLee_Lazy_glClearColorIuiEXT@16 004146b0 f   cinder:GLee.obj
 0001:000136e0       _GLee_Lazy_glTexSubImage3DEXT@44 004146e0 f   cinder:GLee.obj
 0001:00013730       _GLee_Lazy_glLockArraysEXT@8 00414730 f   cinder:GLee.obj
 0001:00013760       _GLee_Lazy_glUniform3iv@12 00414760 f   cinder:GLee.obj
 0001:00013790       _GLee_Lazy_glVariantubvEXT@8 00414790 f   cinder:GLee.obj
 0001:000137c0       _GLee_Lazy_glFrameTerminatorGREMEDY@0 004147c0 f   cinder:GLee.obj
 0001:000137e0       _GLee_Lazy_glCompressedTexImage3D@36 004147e0 f   cinder:GLee.obj
 0001:00013820       _GLee_Lazy_glTexCoord4hNV@16 00414820 f   cinder:GLee.obj
 0001:00013850       _GLee_Lazy_glGetProgramStringNV@12 00414850 f   cinder:GLee.obj
 0001:00013880       _GLee_Lazy_glUnlockArraysEXT@0 00414880 f   cinder:GLee.obj
 0001:000138a0       _GLee_Lazy_glVertexAttribI4uivEXT@8 004148a0 f   cinder:GLee.obj
 0001:000138d0       _GLee_Lazy_glGetProgramEnvParameterfvARB@12 004148d0 f   cinder:GLee.obj
 0001:00013900       _GLee_Lazy_glMultiTexCoord2iARB@12 00414900 f   cinder:GLee.obj
 0001:00013930       _GLee_Lazy_glGetTexFilterFuncSGIS@12 00414930 f   cinder:GLee.obj
 0001:00013960       _GLee_Lazy_glMultiTexEnvivEXT@16 00414960 f   cinder:GLee.obj
 0001:00013990       _GLee_Lazy_glTexCoord4hvNV@4 00414990 f   cinder:GLee.obj
 0001:000139b0       _GLee_Lazy_glVariantusvEXT@8 004149b0 f   cinder:GLee.obj
 0001:000139e0       _GLee_Lazy_glBeginConditionalRenderNV@8 004149e0 f   cinder:GLee.obj
 0001:00013a10       _GLee_Lazy_glUniform4iv@12 00414a10 f   cinder:GLee.obj
 0001:00013a40       _GLee_Lazy_glCullParameterdvEXT@8 00414a40 f   cinder:GLee.obj
 0001:00013a70       _GLee_Lazy_glVertexAttribI4bvEXT@8 00414a70 f   cinder:GLee.obj
 0001:00013aa0       _GLee_Lazy_glProgramUniformMatrix4x2fvEXT@20 00414aa0 f   cinder:GLee.obj
 0001:00013ad0       _GLee_Lazy_glEndConditionalRenderNV@0 00414ad0 f   cinder:GLee.obj
 0001:00013af0       _GLee_Lazy_glMultiTexCoord2ivARB@8 00414af0 f   cinder:GLee.obj
 0001:00013b20       _GLee_Lazy_glGetTrackMatrixivNV@16 00414b20 f   cinder:GLee.obj
 0001:00013b50       _GLee_Lazy_glGetProgramLocalParameterdvARB@12 00414b50 f   cinder:GLee.obj
 0001:00013b80       _GLee_Lazy_glMultiTexCoord1hNV@8 00414b80 f   cinder:GLee.obj
 0001:00013bb0       _GLee_Lazy_glVariantuivEXT@8 00414bb0 f   cinder:GLee.obj
 0001:00013be0       _GLee_Lazy_glCullParameterfvEXT@8 00414be0 f   cinder:GLee.obj
 0001:00013c10       _GLee_Lazy_glVertexAttribI4svEXT@8 00414c10 f   cinder:GLee.obj
 0001:00013c40       _GLee_Lazy_glBeginTransformFeedbackEXT@4 00414c40 f   cinder:GLee.obj
 0001:00013c60       _GLee_Lazy_glTexFilterFuncSGIS@16 00414c60 f   cinder:GLee.obj
 0001:00013c90       _GLee_Lazy_glMultiTexGendEXT@20 00414c90 f   cinder:GLee.obj
 0001:00013cd0       _GLee_Lazy_glUniformMatrix2fv@16 00414cd0 f   cinder:GLee.obj
 0001:00013d00       _GLee_Lazy_glCompressedTexImage2D@32 00414d00 f   cinder:GLee.obj
 0001:00013d40       _GLee_Lazy_glEndTransformFeedbackEXT@0 00414d40 f   cinder:GLee.obj
 0001:00013d60       _GLee_Lazy_glMultiTexCoord1hvNV@8 00414d60 f   cinder:GLee.obj
 0001:00013d90       _GLee_Lazy_glMultiTexCoord2sARB@12 00414d90 f   cinder:GLee.obj
 0001:00013dc0       _GLee_Lazy_glGetVertexAttribdvNV@12 00414dc0 f   cinder:GLee.obj
 0001:00013df0       _GLee_Lazy_glGetProgramLocalParameterfvARB@12 00414df0 f   cinder:GLee.obj
 0001:00013e20       _GLee_Lazy_glProgramUniformMatrix3x4fvEXT@20 00414e20 f   cinder:GLee.obj
 0001:00013e50       _GLee_Lazy_glFragmentColorMaterialSGIX@8 00414e50 f   cinder:GLee.obj
 0001:00013e80       _GLee_Lazy_glVertexAttribI4ubvEXT@8 00414e80 f   cinder:GLee.obj
 0001:00013eb0       _GLee_Lazy_glVariantPointerEXT@16 00414eb0 f   cinder:GLee.obj
 0001:00013ee0       _GLee_Lazy_glTexCoord4fColor4fNormal3fVertex4fSUN@60 00414ee0 f   cinder:GLee.obj
 0001:00013fb0       _GLee_Lazy_glMultiTexCoord2svARB@8 00414fb0 f   cinder:GLee.obj
 0001:00013fe0       _GLee_Lazy_glMultiTexGendvEXT@16 00414fe0 f   cinder:GLee.obj
 0001:00014010       _GLee_Lazy_glMultiTexCoord2hNV@12 00415010 f   cinder:GLee.obj
 0001:00014040       _GLee_Lazy_glEnableVariantClientStateEXT@4 00415040 f   cinder:GLee.obj
 0001:00014060       _GLee_Lazy_glUniformMatrix3fv@16 00415060 f   cinder:GLee.obj
 0001:00014090       _GLee_Lazy_glVertexAttribI4usvEXT@8 00415090 f   cinder:GLee.obj
 0001:000140c0       _GLee_Lazy_glGetVertexAttribfvNV@12 004150c0 f   cinder:GLee.obj
 0001:000140f0       _GLee_Lazy_glGetProgramivARB@12 004150f0 f   cinder:GLee.obj
 0001:00014120       _GLee_Lazy_glFragmentLightfSGIX@12 00415120 f   cinder:GLee.obj
 0001:00014150       _GLee_Lazy_glBindBufferRangeEXT@20 00415150 f   cinder:GLee.obj
 0001:00014180       _GLee_Lazy_glTexSubImage1DEXT@28 00415180 f   cinder:GLee.obj
 0001:000141c0       _GLee_Lazy_glDisableVariantClientStateEXT@4 004151c0 f   cinder:GLee.obj
 0001:000141e0       _GLee_Lazy_glProgramUniformMatrix4x3fvEXT@20 004151e0 f   cinder:GLee.obj
 0001:00014210       _GLee_Lazy_glMultiTexCoord2hvNV@8 00415210 f   cinder:GLee.obj
 0001:00014240       _GLee_Lazy_glCompressedTexImage1D@28 00415240 f   cinder:GLee.obj
 0001:00014280       _GLee_Lazy_glTexCoord4fColor4fNormal3fVertex4fvSUN@16 00415280 f   cinder:GLee.obj
 0001:000142b0       _GLee_Lazy_glMultiTexCoord3dARB@28 004152b0 f   cinder:GLee.obj
 0001:00014300       _GLee_Lazy_glMultiTexGenfEXT@16 00415300 f   cinder:GLee.obj
 0001:00014330       _GLee_Lazy_glGetVertexAttribivNV@12 00415330 f   cinder:GLee.obj
 0001:00014360       _GLee_Lazy_glGetProgramStringARB@12 00415360 f   cinder:GLee.obj
 0001:00014390       _GLee_Lazy_glFragmentLightfvSGIX@12 00415390 f   cinder:GLee.obj
 0001:000143c0       _GLee_Lazy_glUniformMatrix4fv@16 004153c0 f   cinder:GLee.obj
 0001:000143f0       _GLee_Lazy_glBindLightParameterEXT@8 004153f0 f   cinder:GLee.obj
 0001:00014420       _GLee_Lazy_glVertexAttribIPointerEXT@20 00415420 f   cinder:GLee.obj
 0001:00014450       _GLee_Lazy_glProgramUniform1uiEXT@12 00415450 f   cinder:GLee.obj
 0001:00014480       _GLee_Lazy_glBindBufferOffsetEXT@16 00415480 f   cinder:GLee.obj
 0001:000144b0       _GLee_Lazy_glMultiTexCoord3dvARB@8 004154b0 f   cinder:GLee.obj
 0001:000144e0       _GLee_Lazy_glValidateProgram@4 004154e0 f   cinder:GLee.obj
 0001:00014500       _GLee_Lazy_glMultiTexCoord3hNV@16 00415500 f   cinder:GLee.obj
 0001:00014530       _GLee_Lazy_glGetVertexAttribPointervNV@12 00415530 f   cinder:GLee.obj
 0001:00014560       _GLee_Lazy_glReplacementCodeuiVertex3fSUN@16 00415560 f   cinder:GLee.obj
 0001:000145a0       _GLee_Lazy_glGetVertexAttribdvARB@12 004155a0 f   cinder:GLee.obj
 0001:000145d0       _GLee_Lazy_glBindMaterialParameterEXT@8 004155d0 f   cinder:GLee.obj
 0001:00014600       _GLee_Lazy_glFragmentLightiSGIX@12 00415600 f   cinder:GLee.obj
 0001:00014630       _GLee_Lazy_glMultiTexGenfvEXT@16 00415630 f   cinder:GLee.obj
 0001:00014660       _GLee_Lazy_glGetVertexAttribIivEXT@12 00415660 f   cinder:GLee.obj
 0001:00014690       _GLee_Lazy_glVertexAttrib1d@12 00415690 f   cinder:GLee.obj
 0001:000146c0       _GLee_Lazy_glBindBufferBaseEXT@12 004156c0 f   cinder:GLee.obj
 0001:000146f0       _GLee_Lazy_glIsProgramNV@4 004156f0 f   cinder:GLee.obj
 0001:00014720       _GLee_Lazy_glMultiTexCoord3hvNV@8 00415720 f   cinder:GLee.obj
 0001:00014750       _GLee_Lazy_glTexSubImage2DEXT@36 00415750 f   cinder:GLee.obj
 0001:00014790       _GLee_Lazy_glProgramUniform2uiEXT@16 00415790 f   cinder:GLee.obj
 0001:000147c0       _GLee_Lazy_glReplacementCodeuiVertex3fvSUN@8 004157c0 f   cinder:GLee.obj
 0001:000147f0       _GLee_Lazy_glMultiTexCoord3fARB@16 004157f0 f   cinder:GLee.obj
 0001:00014830       _GLee_Lazy_glGetVertexAttribfvARB@12 00415830 f   cinder:GLee.obj
 0001:00014860       _GLee_Lazy_glFragmentLightivSGIX@12 00415860 f   cinder:GLee.obj
 0001:00014890       _GLee_Lazy_glBindTexGenParameterEXT@12 00415890 f   cinder:GLee.obj
 0001:000148c0       _GLee_Lazy_glVertexAttrib1dv@8 004158c0 f   cinder:GLee.obj
 0001:000148f0       _GLee_Lazy_glGetVertexAttribIuivEXT@12 004158f0 f   cinder:GLee.obj
 0001:00014920       _GLee_Lazy_glMultiTexGeniEXT@16 00415920 f   cinder:GLee.obj
 0001:00014950       _GLee_Lazy_glCompressedTexSubImage3D@44 00415950 f   cinder:GLee.obj
 0001:000149a0       _GLee_Lazy_glMultiTexCoord3fvARB@8 004159a0 f   cinder:GLee.obj
 0001:000149d0       _GLee_Lazy_glTransformFeedbackVaryingsEXT@16 004159d0 f   cinder:GLee.obj
 0001:00014a00       _GLee_Lazy_glLoadProgramNV@16 00415a00 f   cinder:GLee.obj
 0001:00014a30       _GLee_Lazy_glFragmentLightModelfSGIX@8 00415a30 f   cinder:GLee.obj
 0001:00014a60       _GLee_Lazy_glGetVertexAttribivARB@12 00415a60 f   cinder:GLee.obj
 0001:00014a90       _GLee_Lazy_glVertexAttrib1f@8 00415a90 f   cinder:GLee.obj
 0001:00014ac0       _GLee_Lazy_glMultiTexCoord4hNV@20 00415ac0 f   cinder:GLee.obj
 0001:00014b00       _GLee_Lazy_glBindTextureUnitParameterEXT@8 00415b00 f   cinder:GLee.obj
 0001:00014b30       _GLee_Lazy_glDepthRangefOES@8 00415b30 f   cinder:GLee.obj
 0001:00014b60       _GLee_Lazy_glProgramUniform3uiEXT@20 00415b60 f   cinder:GLee.obj
 0001:00014b90       _GLee_Lazy_glCopyTexImage1DEXT@28 00415b90 f   cinder:GLee.obj
 0001:00014bd0       _GLee_Lazy_glMultiTexGenivEXT@16 00415bd0 f   cinder:GLee.obj
 0001:00014c00       _GLee_Lazy_glFragmentLightModelfvSGIX@8 00415c00 f   cinder:GLee.obj
 0001:00014c30       _GLee_Lazy_glGetTransformFeedbackVaryingEXT@12 00415c30 f   cinder:GLee.obj
 0001:00014c60       _GLee_Lazy_glBindParameterEXT@4 00415c60 f   cinder:GLee.obj
 0001:00014c90       _GLee_Lazy_glVertexAttrib1fv@8 00415c90 f   cinder:GLee.obj
 0001:00014cc0       _GLee_Lazy_glMultiTexCoord4hvNV@8 00415cc0 f   cinder:GLee.obj
 0001:00014cf0       _GLee_Lazy_glReplacementCodeuiColor4ubVertex3fSUN@32 00415cf0 f   cinder:GLee.obj
 0001:00014d50       _GLee_Lazy_glMultiTexCoord3iARB@16 00415d50 f   cinder:GLee.obj
 0001:00014d80       _GLee_Lazy_glGetVertexAttribPointervARB@12 00415d80 f   cinder:GLee.obj
 0001:00014db0       _GLee_Lazy_glClientAttribDefaultEXT@4 00415db0 f   cinder:GLee.obj
 0001:00014dd0       _GLee_Lazy_glFogCoordhNV@4 00415dd0 f   cinder:GLee.obj
 0001:00014df0       _GLee_Lazy_glFragmentLightModeliSGIX@8 00415df0 f   cinder:GLee.obj
 0001:00014e20       _GLee_Lazy_glProgramParameter4dNV@40 00415e20 f   cinder:GLee.obj
 0001:00014e80       _GLee_Lazy_glIsProgramARB@4 00415e80 f   cinder:GLee.obj
 0001:00014eb0       _GLee_Lazy_glVertexAttrib1s@8 00415eb0 f   cinder:GLee.obj
 0001:00014ee0       _GLee_Lazy_glIsVariantEnabledEXT@8 00415ee0 f   cinder:GLee.obj
 0001:00014f10       _GLee_Lazy_glMultiTexCoord3ivARB@8 00415f10 f   cinder:GLee.obj
 0001:00014f40       _GLee_Lazy_glCompressedTexSubImage2D@36 00415f40 f   cinder:GLee.obj
 0001:00014f80       _GLee_Lazy_glFrustumfOES@24 00415f80 f   cinder:GLee.obj
 0001:00014fe0       _GLee_Lazy_glProgramUniform4uiEXT@24 00415fe0 f   cinder:GLee.obj
 0001:00015020       _GLee_Lazy_glGetMultiTexEnvfvEXT@16 00416020 f   cinder:GLee.obj
 0001:00015050       _GLee_Lazy_glPushClientAttribDefaultEXT@4 00416050 f   cinder:GLee.obj
 0001:00015070       _GLee_Lazy_glReplacementCodeuiColor4ubVertex3fvSUN@12 00416070 f   cinder:GLee.obj
 0001:000150a0       _GLee_Lazy_glFogCoordhvNV@4 004160a0 f   cinder:GLee.obj
 0001:000150c0       _GLee_Lazy_glFragmentLightModelivSGIX@8 004160c0 f   cinder:GLee.obj
 0001:000150f0       _GLee_Lazy_glVertexAttrib1sv@8 004160f0 f   cinder:GLee.obj
 0001:00015120       _GLee_Lazy_glBindBufferARB@8 00416120 f   cinder:GLee.obj
 0001:00015150       _GLee_Lazy_glProgramParameter4dvNV@12 00416150 f   cinder:GLee.obj
 0001:00015180       _GLee_Lazy_glMatrixLoadfEXT@8 00416180 f   cinder:GLee.obj
 0001:000151b0       _GLee_Lazy_glCopyTexImage2DEXT@32 004161b0 f   cinder:GLee.obj
 0001:000151f0       _GLee_Lazy_glGetVariantBooleanvEXT@12 004161f0 f   cinder:GLee.obj
 0001:00015220       _GLee_Lazy_glMultiTexCoord3sARB@16 00416220 f   cinder:GLee.obj
 0001:00015250       _GLee_Lazy_glSecondaryColor3hNV@12 00416250 f   cinder:GLee.obj
 0001:00015280       _GLee_Lazy_glProgramUniform1uivEXT@16 00416280 f   cinder:GLee.obj
 0001:000152b0       _GLee_Lazy_glGetMultiTexEnvivEXT@16 004162b0 f   cinder:GLee.obj
 0001:000152e0       _GLee_Lazy_glFragmentMaterialfSGIX@12 004162e0 f   cinder:GLee.obj
 0001:00015310       _GLee_Lazy_glDeleteBuffersARB@8 00416310 f   cinder:GLee.obj
 0001:00015340       _GLee_Lazy_glVertexAttrib2d@20 00416340 f   cinder:GLee.obj
 0001:00015380       _GLee_Lazy_glMatrixLoaddEXT@8 00416380 f   cinder:GLee.obj
 0001:000153b0       _GLee_Lazy_glOrthofOES@24  004163b0 f   cinder:GLee.obj
 0001:00015410       _GLee_Lazy_glSecondaryColor3hvNV@4 00416410 f   cinder:GLee.obj
 0001:00015430       _GLee_Lazy_glMultiTexCoord3svARB@8 00416430 f   cinder:GLee.obj
 0001:00015460       _GLee_Lazy_glCompressedTexSubImage1D@28 00416460 f   cinder:GLee.obj
 0001:000154a0       _GLee_Lazy_glGetVariantIntegervEXT@12 004164a0 f   cinder:GLee.obj
 0001:000154d0       _GLee_Lazy_glReplacementCodeuiColor3fVertex3fSUN@28 004164d0 f   cinder:GLee.obj
 0001:00015530       _GLee_Lazy_glGenBuffersARB@8 00416530 f   cinder:GLee.obj
 0001:00015560       _GLee_Lazy_glVertexWeighthNV@4 00416560 f   cinder:GLee.obj
 0001:00015580       _GLee_Lazy_glVertexAttrib2dv@8 00416580 f   cinder:GLee.obj
 0001:000155b0       _GLee_Lazy_glMatrixMultfEXT@8 004165b0 f   cinder:GLee.obj
 0001:000155e0       _GLee_Lazy_glProgramParameter4fNV@24 004165e0 f   cinder:GLee.obj
 0001:00015630       _GLee_Lazy_glFragmentMaterialfvSGIX@12 00416630 f   cinder:GLee.obj
 0001:00015660       _GLee_Lazy_glClipPlanefOES@8 00416660 f   cinder:GLee.obj
 0001:00015690       _GLee_Lazy_glProgramUniform2uivEXT@16 00416690 f   cinder:GLee.obj
 0001:000156c0       _GLee_Lazy_glGetMultiTexGendvEXT@16 004166c0 f   cinder:GLee.obj
 0001:000156f0       _GLee_Lazy_glCopyTexSubImage1DEXT@24 004166f0 f   cinder:GLee.obj
 0001:00015730       _GLee_Lazy_glIsBufferARB@4 00416730 f   cinder:GLee.obj
 0001:00015760       _GLee_Lazy_glVertexWeighthvNV@4 00416760 f   cinder:GLee.obj
 0001:00015780       _GLee_Lazy_glGetCompressedTexImage@12 00416780 f   cinder:GLee.obj
 0001:000157b0       _GLee_Lazy_glGetVariantFloatvEXT@12 004167b0 f   cinder:GLee.obj
 0001:000157e0       _GLee_Lazy_glReplacementCodeuiColor3fVertex3fvSUN@12 004167e0 f   cinder:GLee.obj
 0001:00015810       _GLee_Lazy_glMatrixMultdEXT@8 00416810 f   cinder:GLee.obj
 0001:00015840       _GLee_Lazy_glGetClipPlanefOES@8 00416840 f   cinder:GLee.obj
 0001:00015870       _GLee_Lazy_glMultiTexCoord4dARB@36 00416870 f   cinder:GLee.obj
 0001:000158d0       _GLee_Lazy_glVertexAttrib2f@12 004168d0 f   cinder:GLee.obj
 0001:00015910       _GLee_Lazy_glProgramParameter4fvNV@12 00416910 f   cinder:GLee.obj
 0001:00015940       _GLee_Lazy_glFragmentMaterialiSGIX@12 00416940 f   cinder:GLee.obj
 0001:00015970       _GLee_Lazy_glVertexAttrib1hNV@8 00416970 f   cinder:GLee.obj
 0001:000159a0       _GLee_Lazy_glProgramUniform3uivEXT@16 004169a0 f   cinder:GLee.obj
 0001:000159d0       _GLee_Lazy_glGetMultiTexGenfvEXT@16 004169d0 f   cinder:GLee.obj
 0001:00015a00       _GLee_Lazy_glMatrixLoadIdentityEXT@4 00416a00 f   cinder:GLee.obj
 0001:00015a20       _GLee_Lazy_glClearDepthfOES@8 00416a20 f   cinder:GLee.obj
 0001:00015a50       _GLee_Lazy_glGetVariantPointervEXT@12 00416a50 f   cinder:GLee.obj
 0001:00015a80       _GLee_Lazy_glBufferDataARB@16 00416a80 f   cinder:GLee.obj
 0001:00015ab0       _GLee_Lazy_glMultiTexCoord4dvARB@8 00416ab0 f   cinder:GLee.obj
 0001:00015ae0       _GLee_Lazy_glVertexAttrib2fv@8 00416ae0 f   cinder:GLee.obj
 0001:00015b10       _GLee_Lazy_glBlendFuncSeparate@16 00416b10 f   cinder:GLee.obj
 0001:00015b40       _GLee_Lazy_glVertexAttrib1hvNV@8 00416b40 f   cinder:GLee.obj
 0001:00015b70       _GLee_Lazy_glFragmentMaterialivSGIX@12 00416b70 f   cinder:GLee.obj
 0001:00015ba0       _GLee_Lazy_glProgramParameters4dvNV@16 00416ba0 f   cinder:GLee.obj
 0001:00015bd0       _GLee_Lazy_glCopyTexSubImage2DEXT@32 00416bd0 f   cinder:GLee.obj
 0001:00015c10       _GLee_Lazy_glFogCoordf@4   00416c10 f   cinder:GLee.obj
 0001:00015c40       _GLee_Lazy_glReplacementCodeuiNormal3fVertex3fSUN@28 00416c40 f   cinder:GLee.obj
 0001:00015ca0       _GLee_Lazy_glProgramUniform4uivEXT@16 00416ca0 f   cinder:GLee.obj
 0001:00015cd0       _GLee_Lazy_glGetMultiTexGenivEXT@16 00416cd0 f   cinder:GLee.obj
 0001:00015d00       _GLee_Lazy_glGetInvariantBooleanvEXT@12 00416d00 f   cinder:GLee.obj
 0001:00015d30       _GLee_Lazy_wglCreateBufferRegionARB@12 00416d30 f   cinder:GLee.obj
 0001:00015d60       _GLee_Lazy_glVertexAttrib2s@12 00416d60 f   cinder:GLee.obj
 0001:00015d90       _GLee_Lazy_glMatrixRotatefEXT@20 00416d90 f   cinder:GLee.obj
 0001:00015de0       _GLee_Lazy_glFogCoordfv@4  00416de0 f   cinder:GLee.obj
 0001:00015e00       _GLee_Lazy_glBufferSubDataARB@16 00416e00 f   cinder:GLee.obj
 0001:00015e30       _GLee_Lazy_glVertexAttrib2hNV@12 00416e30 f   cinder:GLee.obj
 0001:00015e60       _GLee_Lazy_glGetFragmentLightfvSGIX@12 00416e60 f   cinder:GLee.obj
 0001:00015e90       _GLee_Lazy_glMultiTexCoord4fARB@20 00416e90 f   cinder:GLee.obj
 0001:00015ee0       _GLee_Lazy_wglDeleteBufferRegionARB@4 00416ee0 f   cinder:GLee.obj
 0001:00015f00       _GLee_Lazy_glFogCoordd@8   00416f00 f   cinder:GLee.obj
 0001:00015f30       _GLee_Lazy_glProgramParameters4fvNV@16 00416f30 f   cinder:GLee.obj
 0001:00015f60       _GLee_Lazy_glReplacementCodeuiNormal3fVertex3fvSUN@12 00416f60 f   cinder:GLee.obj
 0001:00015f90       _GLee_Lazy_glVertexAttrib2sv@8 00416f90 f   cinder:GLee.obj
 0001:00015fc0       _GLee_Lazy_glGetFloatIndexedvEXT@12 00416fc0 f   cinder:GLee.obj
 0001:00015ff0       _GLee_Lazy_glGetInvariantIntegervEXT@12 00416ff0 f   cinder:GLee.obj
 0001:00016020       _GLee_Lazy_glNamedBufferDataEXT@16 00417020 f   cinder:GLee.obj
 0001:00016050       _GLee_Lazy_glVertexAttrib2hvNV@8 00417050 f   cinder:GLee.obj
 0001:00016080       _GLee_Lazy_glMultiTexCoord4fvARB@8 00417080 f   cinder:GLee.obj
 0001:000160b0       _GLee_Lazy_glFogCoorddv@4  004170b0 f   cinder:GLee.obj
 0001:000160d0       _GLee_Lazy_glGetFragmentLightivSGIX@12 004170d0 f   cinder:GLee.obj
 0001:00016100       _GLee_Lazy_glGetBufferSubDataARB@16 00417100 f   cinder:GLee.obj
 0001:00016130       _GLee_Lazy_glMatrixRotatedEXT@36 00417130 f   cinder:GLee.obj
 0001:00016190       _GLee_Lazy_glRequestResidentProgramsNV@8 00417190 f   cinder:GLee.obj
 0001:000161c0       _GLee_Lazy_glGetDoubleIndexedvEXT@12 004171c0 f   cinder:GLee.obj
 0001:000161f0       _GLee_Lazy_glGetInvariantFloatvEXT@12 004171f0 f   cinder:GLee.obj
 0001:00016220       _GLee_Lazy_glCopyTexSubImage3DEXT@36 00417220 f   cinder:GLee.obj
 0001:00016260       _GLee_Lazy_glVertexAttrib3d@28 00417260 f   cinder:GLee.obj
 0001:000162b0       _GLee_Lazy_wglSaveBufferRegionARB@20 004172b0 f   cinder:GLee.obj
 0001:000162f0       _GLee_Lazy_glMapBufferARB@8 004172f0 f   cinder:GLee.obj
 0001:00016320       _GLee_Lazy_glFogCoordPointer@12 00417320 f   cinder:GLee.obj
 0001:00016350       _GLee_Lazy_glNamedBufferSubDataEXT@16 00417350 f   cinder:GLee.obj
 0001:00016380       _GLee_Lazy_glVertexAttrib3hNV@16 00417380 f   cinder:GLee.obj
 0001:000163b0       _GLee_Lazy_glGetFragmentMaterialfvSGIX@12 004173b0 f   cinder:GLee.obj
 0001:000163e0       _GLee_Lazy_glMultiTexCoord4iARB@20 004173e0 f   cinder:GLee.obj
 0001:00016410       _GLee_Lazy_glMatrixScalefEXT@16 00417410 f   cinder:GLee.obj
 0001:00016450       _GLee_Lazy_glTrackMatrixNV@16 00417450 f   cinder:GLee.obj
 0001:00016480       _GLee_Lazy_glVertexAttrib3dv@8 00417480 f   cinder:GLee.obj
 0001:000164b0       _GLee_Lazy_glGetPointerIndexedvEXT@12 004174b0 f   cinder:GLee.obj
 0001:000164e0       _GLee_Lazy_glGetLocalConstantBooleanvEXT@12 004174e0 f   cinder:GLee.obj
 0001:00016510       _GLee_Lazy_glUnmapBufferARB@4 00417510 f   cinder:GLee.obj
 0001:00016540       _GLee_Lazy_glMapNamedBufferEXT@8 00417540 f   cinder:GLee.obj
 0001:00016570       _GLee_Lazy_glVertexAttrib3hvNV@8 00417570 f   cinder:GLee.obj
 0001:000165a0       _GLee_Lazy_glGetFragmentMaterialivSGIX@12 004175a0 f   cinder:GLee.obj
 0001:000165d0       _GLee_Lazy_glGetHistogramEXT@20 004175d0 f   cinder:GLee.obj
 0001:00016600       _GLee_Lazy_glMultiTexCoord4ivARB@8 00417600 f   cinder:GLee.obj
 0001:00016630       _GLee_Lazy_glMultiDrawArrays@16 00417630 f   cinder:GLee.obj
 0001:00016660       _GLee_Lazy_glReplacementCodeuiColor4fNormal3fVertex3fSUN@44 00417660 f   cinder:GLee.obj
 0001:000166f0       _GLee_Lazy_glUnmapNamedBufferEXT@4 004176f0 f   cinder:GLee.obj
 0001:00016720       _GLee_Lazy_glGetLocalConstantIntegervEXT@12 00417720 f   cinder:GLee.obj
 0001:00016750       _GLee_Lazy_glMatrixScaledEXT@28 00417750 f   cinder:GLee.obj
 0001:000167a0       _GLee_Lazy_glGetBufferParameterivARB@12 004177a0 f   cinder:GLee.obj
 0001:000167d0       _GLee_Lazy_glVertexAttrib3f@16 004177d0 f   cinder:GLee.obj
 0001:00016810       _GLee_Lazy_wglRestoreBufferRegionARB@28 00417810 f   cinder:GLee.obj
 0001:00016850       _GLee_Lazy_glLightEnviSGIX@8 00417850 f   cinder:GLee.obj
 0001:00016880       _GLee_Lazy_glVertexAttribPointerNV@20 00417880 f   cinder:GLee.obj
 0001:000168b0       _GLee_Lazy_glGetHistogramParameterfvEXT@12 004178b0 f   cinder:GLee.obj
 0001:000168e0       _GLee_Lazy_glVertexAttrib4hNV@20 004178e0 f   cinder:GLee.obj
 0001:00016920       _GLee_Lazy_wglGetExtensionsStringARB@4 00417920 f   cinder:GLee.obj
 0001:00016950       _GLee_Lazy_glReplacementCodeuiColor4fNormal3fVertex3fvSUN@16 00417950 f   cinder:GLee.obj
 0001:00016980       _GLee_Lazy_glVertexAttrib3fv@8 00417980 f   cinder:GLee.obj
 0001:000169b0       _GLee_Lazy_glGetNamedBufferParameterivEXT@12 004179b0 f   cinder:GLee.obj
 0001:000169e0       _GLee_Lazy_glGetLocalConstantFloatvEXT@12 004179e0 f   cinder:GLee.obj
 0001:00016a10       _GLee_Lazy_glMultiTexCoord4sARB@20 00417a10 f   cinder:GLee.obj
 0001:00016a50       _GLee_Lazy_glMultiDrawElements@20 00417a50 f   cinder:GLee.obj
 0001:00016a80       _GLee_Lazy_glVertexAttrib1dNV@12 00417a80 f   cinder:GLee.obj
 0001:00016ab0       _GLee_Lazy_glGetBufferPointervARB@12 00417ab0 f   cinder:GLee.obj
 0001:00016ae0       _GLee_Lazy_glMatrixTranslatefEXT@16 00417ae0 f   cinder:GLee.obj
 0001:00016b20       _GLee_Lazy_glVertexAttrib4hvNV@8 00417b20 f   cinder:GLee.obj
 0001:00016b50       _GLee_Lazy_glGetHistogramParameterivEXT@12 00417b50 f   cinder:GLee.obj
 0001:00016b80       _GLee_Lazy_glCompressedTextureImage3DEXT@40 00417b80 f   cinder:GLee.obj
 0001:00016bd0       _GLee_Lazy_glVertexStream1sATI@8 00417bd0 f   cinder:GLee.obj
 0001:00016c00       _GLee_Lazy_glMultiTexCoord4svARB@8 00417c00 f   cinder:GLee.obj
 0001:00016c30       _GLee_Lazy_glPointParameterf@8 00417c30 f   cinder:GLee.obj
 0001:00016c60       _GLee_Lazy_glVertexAttrib1dvNV@8 00417c60 f   cinder:GLee.obj
 0001:00016c90       _GLee_Lazy_glDrawRangeElementsEXT@24 00417c90 f   cinder:GLee.obj
 0001:00016cd0       _GLee_Lazy_glGenQueriesARB@8 00417cd0 f   cinder:GLee.obj
 0001:00016d00       _GLee_Lazy_glGetNamedBufferPointervEXT@12 00417d00 f   cinder:GLee.obj
 0001:00016d30       _GLee_Lazy_glVertexAttrib3s@16 00417d30 f   cinder:GLee.obj
 0001:00016d60       _GLee_Lazy_glLoadTransposeMatrixfARB@4 00417d60 f   cinder:GLee.obj
 0001:00016d80       _GLee_Lazy_glVertexAttribs1hvNV@12 00417d80 f   cinder:GLee.obj
 0001:00016db0       _GLee_Lazy_glApplyTextureEXT@4 00417db0 f   cinder:GLee.obj
 0001:00016dd0       _GLee_Lazy_glMatrixTranslatedEXT@28 00417dd0 f   cinder:GLee.obj
 0001:00016e20       _GLee_Lazy_glVertexStream1svATI@8 00417e20 f   cinder:GLee.obj
 0001:00016e50       _GLee_Lazy_glReplacementCodeuiTexCoord2fVertex3fSUN@24 00417e50 f   cinder:GLee.obj
 0001:00016eb0       _GLee_Lazy_glPointParameterfv@8 00417eb0 f   cinder:GLee.obj
 0001:00016ee0       _GLee_Lazy_wglGetPixelFormatAttribivARB@24 00417ee0 f   cinder:GLee.obj
 0001:00016f20       _GLee_Lazy_glVertexAttrib1fNV@8 00417f20 f   cinder:GLee.obj
 0001:00016f50       _GLee_Lazy_glDeleteQueriesARB@8 00417f50 f   cinder:GLee.obj
 0001:00016f80       _GLee_Lazy_glGetMinmaxEXT@20 00417f80 f   cinder:GLee.obj
 0001:00016fb0       _GLee_Lazy_glLoadTransposeMatrixdARB@4 00417fb0 f   cinder:GLee.obj
 0001:00016fd0       _GLee_Lazy_glVertexAttrib3sv@8 00417fd0 f   cinder:GLee.obj
 0001:00017000       _GLee_Lazy_glTextureLightEXT@4 00418000 f   cinder:GLee.obj
 0001:00017020       _GLee_Lazy_glGetNamedBufferSubDataEXT@16 00418020 f   cinder:GLee.obj
 0001:00017050       _GLee_Lazy_glIsQueryARB@4  00418050 f   cinder:GLee.obj
 0001:00017080       _GLee_Lazy_glVertexStream1iATI@8 00418080 f   cinder:GLee.obj
 0001:000170b0       _GLee_Lazy_glPointParameteri@8 004180b0 f   cinder:GLee.obj
 0001:000170e0       _GLee_Lazy_glVertexAttribs2hvNV@12 004180e0 f   cinder:GLee.obj
 0001:00017110       _GLee_Lazy_glVertexAttrib1fvNV@8 00418110 f   cinder:GLee.obj
 0001:00017140       _GLee_Lazy_glMultTransposeMatrixfARB@4 00418140 f   cinder:GLee.obj
 0001:00017160       _GLee_Lazy_glReplacementCodeuiTexCoord2fVertex3fvSUN@12 00418160 f   cinder:GLee.obj
 0001:00017190       _GLee_Lazy_glVertexAttrib4Nbv@8 00418190 f   cinder:GLee.obj
 0001:000171c0       _GLee_Lazy_glTextureMaterialEXT@8 004181c0 f   cinder:GLee.obj
 0001:000171f0       _GLee_Lazy_glCompressedTextureImage2DEXT@36 004181f0 f   cinder:GLee.obj
 0001:00017230       _GLee_Lazy_glGetMinmaxParameterfvEXT@12 00418230 f   cinder:GLee.obj
 0001:00017260       _GLee_Lazy_glMultTransposeMatrixdARB@4 00418260 f   cinder:GLee.obj
 0001:00017280       _GLee_Lazy_glVertexStream1ivATI@8 00418280 f   cinder:GLee.obj
 0001:000172b0       _GLee_Lazy_glBeginQueryARB@8 004182b0 f   cinder:GLee.obj
 0001:000172e0       _GLee_Lazy_glPointParameteriv@8 004182e0 f   cinder:GLee.obj
 0001:00017310       _GLee_Lazy_glVertexAttrib1sNV@8 00418310 f   cinder:GLee.obj
 0001:00017340       _GLee_Lazy_glAsyncMarkerSGIX@4 00418340 f   cinder:GLee.obj
 0001:00017360       _GLee_Lazy_wglGetPixelFormatAttribfvARB@24 00418360 f   cinder:GLee.obj
 0001:000173a0       _GLee_Lazy_glTextureBufferEXT@16 004183a0 f   cinder:GLee.obj
 0001:000173d0       _GLee_Lazy_glMatrixFrustumEXT@52 004183d0 f   cinder:GLee.obj
 0001:00017440       _GLee_Lazy_glVertexAttribs3hvNV@12 00418440 f   cinder:GLee.obj
 0001:00017470       _GLee_Lazy_glVertexAttrib4Niv@8 00418470 f   cinder:GLee.obj
 0001:000174a0       _GLee_Lazy_glEndQueryARB@4 004184a0 f   cinder:GLee.obj
 0001:000174c0       _GLee_Lazy_glSampleCoverageARB@8 004184c0 f   cinder:GLee.obj
 0001:000174f0       _GLee_Lazy_glVertexStream1fATI@8 004184f0 f   cinder:GLee.obj
 0001:00017520       _GLee_Lazy_glFinishAsyncSGIX@4 00418520 f   cinder:GLee.obj
 0001:00017550       _GLee_Lazy_glGetMinmaxParameterivEXT@12 00418550 f   cinder:GLee.obj
 0001:00017580       _GLee_Lazy_glVertexAttrib1svNV@8 00418580 f   cinder:GLee.obj
 0001:000175b0       _GLee_Lazy_glSecondaryColor3b@12 004185b0 f   cinder:GLee.obj
 0001:000175e0       _GLee_Lazy_glVertexAttrib4Nsv@8 004185e0 f   cinder:GLee.obj
 0001:00017610       _GLee_Lazy_glVertexAttribs4hvNV@12 00418610 f   cinder:GLee.obj
 0001:00017640       _GLee_Lazy_glPollAsyncSGIX@4 00418640 f   cinder:GLee.obj
 0001:00017670       _GLee_Lazy_glMultiTexBufferEXT@16 00418670 f   cinder:GLee.obj
 0001:000176a0       _GLee_Lazy_glVertexStream1fvATI@8 004186a0 f   cinder:GLee.obj
 0001:000176d0       _GLee_Lazy_glGetQueryivARB@12 004186d0 f   cinder:GLee.obj
 0001:00017700       _GLee_Lazy_glSecondaryColor3bv@4 00418700 f   cinder:GLee.obj
 0001:00017720       _GLee_Lazy_glReplacementCodeuiTexCoord2fNormal3fVertex3fSUN@36 00418720 f   cinder:GLee.obj
 0001:000177a0       _GLee_Lazy_glCompressedTextureImage1DEXT@32 004187a0 f   cinder:GLee.obj
 0001:000177e0       _GLee_Lazy_glVertexAttrib2dNV@20 004187e0 f   cinder:GLee.obj
 0001:00017820       _GLee_Lazy_glHistogramEXT@16 00418820 f   cinder:GLee.obj
 0001:00017850       _GLee_Lazy_wglChoosePixelFormatARB@24 00418850 f   cinder:GLee.obj
 0001:00017890       _GLee_Lazy_glGenAsyncMarkersSGIX@4 00418890 f   cinder:GLee.obj
 0001:000178c0       _GLee_Lazy_glMatrixOrthoEXT@52 004188c0 f   cinder:GLee.obj
 0001:00017930       _GLee_Lazy_glPixelDataRangeNV@12 00418930 f   cinder:GLee.obj
 0001:00017960       _GLee_Lazy_glVertexStream1dATI@12 00418960 f   cinder:GLee.obj
 0001:00017990       _GLee_Lazy_glGetQueryObjectivARB@12 00418990 f   cinder:GLee.obj
 0001:000179c0       _GLee_Lazy_glVertexAttrib4Nub@20 004189c0 f   cinder:GLee.obj
 0001:00017a00       _GLee_Lazy_glSecondaryColor3d@24 00418a00 f   cinder:GLee.obj
 0001:00017a40       _GLee_Lazy_glVertexAttrib2dvNV@8 00418a40 f   cinder:GLee.obj
 0001:00017a70       _GLee_Lazy_glNamedRenderbufferStorageEXT@16 00418a70 f   cinder:GLee.obj
 0001:00017aa0       _GLee_Lazy_glMatrixPopEXT@4 00418aa0 f   cinder:GLee.obj
 0001:00017ac0       _GLee_Lazy_glFlushPixelDataRangeNV@4 00418ac0 f   cinder:GLee.obj
 0001:00017ae0       _GLee_Lazy_glReplacementCodeuiTexCoord2fNormal3fVertex3fvSUN@16 00418ae0 f   cinder:GLee.obj
 0001:00017b10       _GLee_Lazy_glDeleteAsyncMarkersSGIX@8 00418b10 f   cinder:GLee.obj
 0001:00017b40       _GLee_Lazy_glMinmaxEXT@12  00418b40 f   cinder:GLee.obj
 0001:00017b70       _GLee_Lazy_glCompressedTexImage3DARB@36 00418b70 f   cinder:GLee.obj
 0001:00017bb0       _GLee_Lazy_glVertexStream1dvATI@8 00418bb0 f   cinder:GLee.obj
 0001:00017be0       _GLee_Lazy_glSecondaryColor3dv@4 00418be0 f   cinder:GLee.obj
 0001:00017c00       _GLee_Lazy_wglMakeContextCurrentARB@12 00418c00 f   cinder:GLee.obj
 0001:00017c30       _GLee_Lazy_glMatrixPushEXT@4 00418c30 f   cinder:GLee.obj
 0001:00017c50       _GLee_Lazy_glPrimitiveRestartNV@0 00418c50 f   cinder:GLee.obj
 0001:00017c70       _GLee_Lazy_glVertexAttrib4Nubv@8 00418c70 f   cinder:GLee.obj
 0001:00017ca0       _GLee_Lazy_glIsAsyncMarkerSGIX@4 00418ca0 f   cinder:GLee.obj
 0001:00017cd0       _GLee_Lazy_glResetHistogramEXT@4 00418cd0 f   cinder:GLee.obj
 0001:00017cf0       _GLee_Lazy_glGetQueryObjectuivARB@12 00418cf0 f   cinder:GLee.obj
 0001:00017d20       _GLee_Lazy_glVertexAttrib2fNV@12 00418d20 f   cinder:GLee.obj
 0001:00017d60       _GLee_Lazy_wglGetCurrentReadDCARB@0 00418d60 f   cinder:GLee.obj
 0001:00017d80       _GLee_Lazy_glGetNamedRenderbufferParameterivEXT@12 00418d80 f   cinder:GLee.obj
 0001:00017db0       _GLee_Lazy_glPrimitiveRestartIndexNV@4 00418db0 f   cinder:GLee.obj
 0001:00017dd0       _GLee_Lazy_glMatrixLoadTransposefEXT@8 00418dd0 f   cinder:GLee.obj
 0001:00017e00       _GLee_Lazy_glVertexStream2sATI@12 00418e00 f   cinder:GLee.obj
 0001:00017e30       _GLee_Lazy_glResetMinmaxEXT@4 00418e30 f   cinder:GLee.obj
 0001:00017e50       _GLee_Lazy_glDeleteObjectARB@4 00418e50 f   cinder:GLee.obj
 0001:00017e70       _GLee_Lazy_glVertexAttrib4Nuiv@8 00418e70 f   cinder:GLee.obj
 0001:00017ea0       _GLee_Lazy_glSecondaryColor3f@12 00418ea0 f   cinder:GLee.obj
 0001:00017ee0       _GLee_Lazy_glMapObjectBufferATI@4 00418ee0 f   cinder:GLee.obj
 0001:00017f10       _GLee_Lazy_glVertexAttrib2fvNV@8 00418f10 f   cinder:GLee.obj
 0001:00017f40       _GLee_Lazy_glCheckNamedFramebufferStatusEXT@8 00418f40 f   cinder:GLee.obj
 0001:00017f70       _GLee_Lazy_glVertexPointervINTEL@12 00418f70 f   cinder:GLee.obj
 0001:00017fa0       _GLee_Lazy_glGetHandleARB@4 00418fa0 f   cinder:GLee.obj
 0001:00017fd0       _GLee_Lazy_glSecondaryColor3fv@4 00418fd0 f   cinder:GLee.obj
 0001:00017ff0       _GLee_Lazy_glCompressedTextureSubImage3DEXT@48 00418ff0 f   cinder:GLee.obj
 0001:00018040       _GLee_Lazy_glMatrixLoadTransposedEXT@8 00419040 f   cinder:GLee.obj
 0001:00018070       _GLee_Lazy_glVertexStream2svATI@8 00419070 f   cinder:GLee.obj
 0001:000180a0       _GLee_Lazy_glVertexAttrib4Nusv@8 004190a0 f   cinder:GLee.obj
 0001:000180d0       _GLee_Lazy_glUnmapObjectBufferATI@4 004190d0 f   cinder:GLee.obj
 0001:000180f0       _GLee_Lazy_glCompressedTexImage2DARB@32 004190f0 f   cinder:GLee.obj
 0001:00018130       _GLee_Lazy_wglCreatePbufferARB@20 00419130 f   cinder:GLee.obj
 0001:00018170       _GLee_Lazy_glVertexAttrib2sNV@12 00419170 f   cinder:GLee.obj
 0001:000181a0       _GLee_Lazy_glNormalPointervINTEL@8 004191a0 f   cinder:GLee.obj
 0001:000181d0       _GLee_Lazy_glDetachObjectARB@8 004191d0 f   cinder:GLee.obj
 0001:00018200       _GLee_Lazy_glMatrixMultTransposefEXT@8 00419200 f   cinder:GLee.obj
 0001:00018230       _GLee_Lazy_glVertexAttrib4bv@8 00419230 f   cinder:GLee.obj
 0001:00018260       _GLee_Lazy_glSecondaryColor3i@12 00419260 f   cinder:GLee.obj
 0001:00018290       _GLee_Lazy_glBlendColor@16 00419290 f   cinder:GLee.obj
 0001:000182e0       _GLee_Lazy_glConvolutionFilter1DEXT@24 004192e0 f   cinder:GLee.obj
 0001:00018320       _GLee_Lazy_glVertexStream2iATI@12 00419320 f   cinder:GLee.obj
 0001:00018350       _GLee_Lazy_wglGetPbufferDCARB@4 00419350 f   cinder:GLee.obj
 0001:00018380       _GLee_Lazy_glNamedFramebufferTexture1DEXT@20 00419380 f   cinder:GLee.obj
 0001:000183b0       _GLee_Lazy_glCreateShaderObjectARB@4 004193b0 f   cinder:GLee.obj
 0001:000183e0       _GLee_Lazy_glVertexAttrib2svNV@8 004193e0 f   cinder:GLee.obj
 0001:00018410       _GLee_Lazy_glReplacementCodeuiTexCoord2fColor4fNormal3fVertex3fSUN@52 00419410 f   cinder:GLee.obj
 0001:000184c0       _GLee_Lazy_glSecondaryColor3iv@4 004194c0 f   cinder:GLee.obj
 0001:000184e0       _GLee_Lazy_glBlendEquation@4 004194e0 f   cinder:GLee.obj
 0001:00018500       _GLee_Lazy_glStencilOpSeparateATI@16 00419500 f   cinder:GLee.obj
 0001:00018530       _GLee_Lazy_glMatrixMultTransposedEXT@8 00419530 f   cinder:GLee.obj
 0001:00018560       _GLee_Lazy_glColorPointervINTEL@12 00419560 f   cinder:GLee.obj
 0001:00018590       _GLee_Lazy_glVertexStream2ivATI@8 00419590 f   cinder:GLee.obj
 0001:000185c0       _GLee_Lazy_wglReleasePbufferDCARB@8 004195c0 f   cinder:GLee.obj
 0001:000185f0       _GLee_Lazy_glCompressedTexImage1DARB@28 004195f0 f   cinder:GLee.obj
 0001:00018630       _GLee_Lazy_glVertexAttrib4d@36 00419630 f   cinder:GLee.obj
 0001:00018690       _GLee_Lazy_glSecondaryColor3s@12 00419690 f   cinder:GLee.obj
 0001:000186c0       _GLee_Lazy_glCompressedTextureSubImage2DEXT@40 004196c0 f   cinder:GLee.obj
 0001:00018710       _GLee_Lazy_glVertexAttrib3dNV@28 00419710 f   cinder:GLee.obj
 0001:00018760       _GLee_Lazy_glTexCoordPointervINTEL@12 00419760 f   cinder:GLee.obj
 0001:00018790       _GLee_Lazy_glShaderSourceARB@16 00419790 f   cinder:GLee.obj
 0001:000187c0       _GLee_Lazy_wglDestroyPbufferARB@4 004197c0 f   cinder:GLee.obj
 0001:000187f0       _GLee_Lazy_glNamedFramebufferTexture2DEXT@20 004197f0 f   cinder:GLee.obj
 0001:00018820       _GLee_Lazy_glStencilFuncSeparateATI@16 00419820 f   cinder:GLee.obj
 0001:00018850       _GLee_Lazy_glTextureParameterfEXT@16 00419850 f   cinder:GLee.obj
 0001:00018880       _GLee_Lazy_glVertexStream2fATI@12 00419880 f   cinder:GLee.obj
 0001:000188c0       _GLee_Lazy_glReplacementCodeuiTexCoord2fColor4fNormal3fVertex3fvSUN@20 004198c0 f   cinder:GLee.obj
 0001:000188f0       _GLee_Lazy_glConvolutionFilter2DEXT@28 004198f0 f   cinder:GLee.obj
 0001:00018930       _GLee_Lazy_glSecondaryColor3sv@4 00419930 f   cinder:GLee.obj
 0001:00018950       _GLee_Lazy_glVertexAttrib4dv@8 00419950 f   cinder:GLee.obj
 0001:00018980       _GLee_Lazy_glDrawRangeElements@24 00419980 f   cinder:GLee.obj
 0001:000189c0       _GLee_Lazy_glCompileShaderARB@4 004199c0 f   cinder:GLee.obj
 0001:000189e0       _GLee_Lazy_glVertexAttrib3dvNV@8 004199e0 f   cinder:GLee.obj
 0001:00018a10       _GLee_Lazy_glVertexStream2fvATI@8 00419a10 f   cinder:GLee.obj
 0001:00018a40       _GLee_Lazy_glPixelTransformParameteriEXT@12 00419a40 f   cinder:GLee.obj
 0001:00018a70       _GLee_Lazy_glCreateProgramObjectARB@0 00419a70 f   cinder:GLee.obj
 0001:00018a90       _GLee_Lazy_wglQueryPbufferARB@12 00419a90 f   cinder:GLee.obj
 0001:00018ac0       _GLee_Lazy_glConvolutionParameterfEXT@12 00419ac0 f   cinder:GLee.obj
 0001:00018af0       _GLee_Lazy_glSecondaryColor3ub@12 00419af0 f   cinder:GLee.obj
 0001:00018b20       _GLee_Lazy_glTextureParameterfvEXT@16 00419b20 f   cinder:GLee.obj
 0001:00018b50       _GLee_Lazy_glBlendFuncSeparateEXT@16 00419b50 f   cinder:GLee.obj
 0001:00018b80       _GLee_Lazy_glNamedFramebufferTexture3DEXT@24 00419b80 f   cinder:GLee.obj
 0001:00018bc0       _GLee_Lazy_glAttachObjectARB@8 00419bc0 f   cinder:GLee.obj
 0001:00018bf0       _GLee_Lazy_glVertexAttrib4f@20 00419bf0 f   cinder:GLee.obj
 0001:00018c40       _GLee_Lazy_glSecondaryColor3ubv@4 00419c40 f   cinder:GLee.obj
 0001:00018c60       _GLee_Lazy_glVertexAttribArrayObjectATI@28 00419c60 f   cinder:GLee.obj
 0001:00018ca0       _GLee_Lazy_glVertexStream2dATI@20 00419ca0 f   cinder:GLee.obj
 0001:00018ce0       _GLee_Lazy_glVertexAttrib3fNV@16 00419ce0 f   cinder:GLee.obj
 0001:00018d20       _GLee_Lazy_glVertexWeightfEXT@4 00419d20 f   cinder:GLee.obj
 0001:00018d50       _GLee_Lazy_glPixelTransformParameterfEXT@12 00419d50 f   cinder:GLee.obj
 0001:00018d80       _GLee_Lazy_wglBindTexImageARB@8 00419d80 f   cinder:GLee.obj
 0001:00018db0       _GLee_Lazy_glCompressedTextureSubImage1DEXT@32 00419db0 f   cinder:GLee.obj
 0001:00018df0       _GLee_Lazy_glColorTable@24 00419df0 f   cinder:GLee.obj
 0001:00018e30       _GLee_Lazy_glConvolutionParameterfvEXT@12 00419e30 f   cinder:GLee.obj
 0001:00018e60       _GLee_Lazy_glCompressedTexSubImage3DARB@44 00419e60 f   cinder:GLee.obj
 0001:00018eb0       _GLee_Lazy_glLinkProgramARB@4 00419eb0 f   cinder:GLee.obj
 0001:00018ed0       _GLee_Lazy_glVertexWeightfvEXT@4 00419ed0 f   cinder:GLee.obj
 0001:00018ef0       _GLee_Lazy_glTextureParameteriEXT@16 00419ef0 f   cinder:GLee.obj
 0001:00018f20       _GLee_Lazy_glVertexAttrib4fv@8 00419f20 f   cinder:GLee.obj
 0001:00018f50       _GLee_Lazy_glVertexStream2dvATI@8 00419f50 f   cinder:GLee.obj
 0001:00018f80       _GLee_Lazy_glVertexAttrib3fvNV@8 00419f80 f   cinder:GLee.obj
 0001:00018fb0       _GLee_Lazy_glSecondaryColor3ui@12 00419fb0 f   cinder:GLee.obj
 0001:00018fe0       _GLee_Lazy_wglReleaseTexImageARB@8 00419fe0 f   cinder:GLee.obj
 0001:00019010       _GLee_Lazy_glNamedFramebufferRenderbufferEXT@16 0041a010 f   cinder:GLee.obj
 0001:00019040       _GLee_Lazy_glGetVertexAttribArrayObjectfvATI@12 0041a040 f   cinder:GLee.obj
 0001:00019070       _GLee_Lazy_glPixelTransformParameterivEXT@12 0041a070 f   cinder:GLee.obj
 0001:000190a0       _GLee_Lazy_glUseProgramObjectARB@4 0041a0a0 f   cinder:GLee.obj
 0001:000190c0       _GLee_Lazy_glColorTableParameterfv@12 0041a0c0 f   cinder:GLee.obj
 0001:000190f0       _GLee_Lazy_glConvolutionParameteriEXT@12 0041a0f0 f   cinder:GLee.obj
 0001:00019120       _GLee_Lazy_glGetCompressedTextureImageEXT@16 0041a120 f   cinder:GLee.obj
 0001:00019150       _GLee_Lazy_glVertexAttrib4iv@8 0041a150 f   cinder:GLee.obj
 0001:00019180       _GLee_Lazy_glSecondaryColor3uiv@4 0041a180 f   cinder:GLee.obj
 0001:000191a0       _GLee_Lazy_glValidateProgramARB@4 0041a1a0 f   cinder:GLee.obj
 0001:000191c0       _GLee_Lazy_glVertexWeightPointerEXT@16 0041a1c0 f   cinder:GLee.obj
 0001:000191f0       _GLee_Lazy_wglSetPbufferAttribARB@8 0041a1f0 f   cinder:GLee.obj
 0001:00019220       _GLee_Lazy_glTextureParameterivEXT@16 0041a220 f   cinder:GLee.obj
 0001:00019250       _GLee_Lazy_glGetVertexAttribArrayObjectivATI@12 0041a250 f   cinder:GLee.obj
 0001:00019280       _GLee_Lazy_glVertexStream3sATI@16 0041a280 f   cinder:GLee.obj
 0001:000192b0       _GLee_Lazy_glVertexAttrib3sNV@16 0041a2b0 f   cinder:GLee.obj
 0001:000192e0       _GLee_Lazy_glPixelTransformParameterfvEXT@12 0041a2e0 f   cinder:GLee.obj
 0001:00019310       _GLee_Lazy_glColorTableParameteriv@12 0041a310 f   cinder:GLee.obj
 0001:00019340       _GLee_Lazy_glGetNamedFramebufferAttachmentParameterivEXT@16 0041a340 f   cinder:GLee.obj
 0001:00019370       _GLee_Lazy_glFlushVertexArrayRangeNV@0 0041a370 f   cinder:GLee.obj
 0001:00019390       _GLee_Lazy_glConvolutionParameterivEXT@12 0041a390 f   cinder:GLee.obj
 0001:000193c0       _GLee_Lazy_glUniform1fARB@8 0041a3c0 f   cinder:GLee.obj
 0001:000193f0       _GLee_Lazy_glSecondaryColor3us@12 0041a3f0 f   cinder:GLee.obj
 0001:00019420       _GLee_Lazy_glCompressedTexSubImage2DARB@36 0041a420 f   cinder:GLee.obj
 0001:00019460       _GLee_Lazy_glDepthBoundsEXT@16 0041a460 f   cinder:GLee.obj
 0001:000194a0       _GLee_Lazy_glVertexStream3svATI@8 0041a4a0 f   cinder:GLee.obj
 0001:000194d0       _GLee_Lazy_glVertexAttrib3svNV@8 0041a4d0 f   cinder:GLee.obj
 0001:00019500       _GLee_Lazy_glVertexAttrib4s@20 0041a500 f   cinder:GLee.obj
 0001:00019540       _GLee_Lazy_wglCreateContextAttribsARB@12 0041a540 f   cinder:GLee.obj
 0001:00019570       _GLee_Lazy_glGenerateTextureMipmapEXT@8 0041a570 f   cinder:GLee.obj
 0001:000195a0       _GLee_Lazy_glVertexArrayRangeNV@8 0041a5a0 f   cinder:GLee.obj
 0001:000195d0       _GLee_Lazy_glSecondaryColor3bEXT@12 0041a5d0 f   cinder:GLee.obj
 0001:00019600       _GLee_Lazy_glSecondaryColor3usv@4 0041a600 f   cinder:GLee.obj
 0001:00019620       _GLee_Lazy_glUniform2fARB@12 0041a620 f   cinder:GLee.obj
 0001:00019660       _GLee_Lazy_glBlendEquationSeparateEXT@8 0041a660 f   cinder:GLee.obj
 0001:00019690       _GLee_Lazy_glSecondaryColor3bvEXT@4 0041a690 f   cinder:GLee.obj
 0001:000196b0       _GLee_Lazy_glCopyColorTable@20 0041a6b0 f   cinder:GLee.obj
 0001:000196e0       _GLee_Lazy_glCopyConvolutionFilter1DEXT@20 0041a6e0 f   cinder:GLee.obj
 0001:00019710       _GLee_Lazy_glVertexAttrib4sv@8 0041a710 f   cinder:GLee.obj
 0001:00019740       _GLee_Lazy_glGenerateMultiTexMipmapEXT@8 0041a740 f   cinder:GLee.obj
 0001:00019770       _GLee_Lazy_glCombinerParameterfvNV@8 0041a770 f   cinder:GLee.obj
 0001:000197a0       _GLee_Lazy_glCompressedMultiTexImage3DEXT@40 0041a7a0 f   cinder:GLee.obj
 0001:000197f0       _GLee_Lazy_glVertexStream3iATI@16 0041a7f0 f   cinder:GLee.obj
 0001:00019820       _GLee_Lazy_wglMakeContextCurrentEXT@12 0041a820 f   cinder:GLee.obj
 0001:00019850       _GLee_Lazy_glIsRenderbufferEXT@4 0041a850 f   cinder:GLee.obj
 0001:00019880       _GLee_Lazy_glTextureImage1DEXT@36 0041a880 f   cinder:GLee.obj
 0001:000198c0       _GLee_Lazy_glVertexAttrib4dNV@36 0041a8c0 f   cinder:GLee.obj
 0001:00019920       _GLee_Lazy_glSecondaryColorPointer@16 0041a920 f   cinder:GLee.obj
 0001:00019950       _GLee_Lazy_glVertexAttrib4ubv@8 0041a950 f   cinder:GLee.obj
 0001:00019980       _GLee_Lazy_glFramebufferDrawBufferEXT@8 0041a980 f   cinder:GLee.obj
 0001:000199b0       _GLee_Lazy_glCombinerParameterfNV@8 0041a9b0 f   cinder:GLee.obj
 0001:000199e0       _GLee_Lazy_glSecondaryColor3dEXT@24 0041a9e0 f   cinder:GLee.obj
 0001:00019a20       _GLee_Lazy_glUniform3fARB@16 0041aa20 f   cinder:GLee.obj
 0001:00019a60       _GLee_Lazy_glCompressedTexSubImage1DARB@28 0041aa60 f   cinder:GLee.obj
 0001:00019aa0       _GLee_Lazy_wglGetCurrentReadDCEXT@0 0041aaa0 f   cinder:GLee.obj
 0001:00019ac0       _GLee_Lazy_glVertexStream3ivATI@8 0041aac0 f   cinder:GLee.obj
 0001:00019af0       _GLee_Lazy_glGetColorTable@16 0041aaf0 f   cinder:GLee.obj
 0001:00019b20       _GLee_Lazy_glBindRenderbufferEXT@8 0041ab20 f   cinder:GLee.obj
 0001:00019b50       _GLee_Lazy_glVertexAttrib4dvNV@8 0041ab50 f   cinder:GLee.obj
 0001:00019b80       _GLee_Lazy_glWindowPos2d@16 0041ab80 f   cinder:GLee.obj
 0001:00019bc0       _GLee_Lazy_glSecondaryColor3dvEXT@4 0041abc0 f   cinder:GLee.obj
 0001:00019be0       _GLee_Lazy_glVertexAttrib4uiv@8 0041abe0 f   cinder:GLee.obj
 0001:00019c10       _GLee_Lazy_glCombinerParameterivNV@8 0041ac10 f   cinder:GLee.obj
 0001:00019c40       _GLee_Lazy_glCopyConvolutionFilter2DEXT@24 0041ac40 f   cinder:GLee.obj
 0001:00019c80       _GLee_Lazy_glFramebufferDrawBuffersEXT@12 0041ac80 f   cinder:GLee.obj
 0001:00019cb0       _GLee_Lazy_glGetCompressedTexImageARB@12 0041acb0 f   cinder:GLee.obj
 0001:00019ce0       _GLee_Lazy_glWindowPos2dv@4 0041ace0 f   cinder:GLee.obj
 0001:00019d00       _GLee_Lazy_glDeleteRenderbuffersEXT@8 0041ad00 f   cinder:GLee.obj
 0001:00019d30       _GLee_Lazy_glGetColorTableParameterfv@12 0041ad30 f   cinder:GLee.obj
 0001:00019d60       _GLee_Lazy_glVertexStream3fATI@16 0041ad60 f   cinder:GLee.obj
 0001:00019da0       _GLee_Lazy_glUniform4fARB@20 0041ada0 f   cinder:GLee.obj
 0001:00019df0       _GLee_Lazy_glVertexAttrib4usv@8 0041adf0 f   cinder:GLee.obj
 0001:00019e20       _GLee_Lazy_glCombinerParameteriNV@8 0041ae20 f   cinder:GLee.obj
 0001:00019e50       _GLee_Lazy_glSecondaryColor3fEXT@12 0041ae50 f   cinder:GLee.obj
 0001:00019e90       _GLee_Lazy_glCompressedMultiTexImage2DEXT@36 0041ae90 f   cinder:GLee.obj
 0001:00019ed0       _GLee_Lazy_glFramebufferReadBufferEXT@8 0041aed0 f   cinder:GLee.obj
 0001:00019f00       _GLee_Lazy_glPointParameterfARB@8 0041af00 f   cinder:GLee.obj
 0001:00019f30       _GLee_Lazy_glWindowPos2f@8 0041af30 f   cinder:GLee.obj
 0001:00019f60       _GLee_Lazy_wglGetPixelFormatAttribivEXT@24 0041af60 f   cinder:GLee.obj
 0001:00019fa0       _GLee_Lazy_glVertexAttrib4fNV@20 0041afa0 f   cinder:GLee.obj
 0001:00019ff0       _GLee_Lazy_glGenRenderbuffersEXT@8 0041aff0 f   cinder:GLee.obj
 0001:0001a020       _GLee_Lazy_glGetConvolutionFilterEXT@16 0041b020 f   cinder:GLee.obj
 0001:0001a050       _GLee_Lazy_glSecondaryColor3fvEXT@4 0041b050 f   cinder:GLee.obj
 0001:0001a070       _GLee_Lazy_glTextureImage2DEXT@40 0041b070 f   cinder:GLee.obj
 0001:0001a0c0       _GLee_Lazy_glVertexStream3fvATI@8 0041b0c0 f   cinder:GLee.obj
 0001:0001a0f0       _GLee_Lazy_glUniform1iARB@8 0041b0f0 f   cinder:GLee.obj
 0001:0001a120       _GLee_Lazy_glGetColorTableParameteriv@12 0041b120 f   cinder:GLee.obj
 0001:0001a150       _GLee_Lazy_glWindowPos2fv@4 0041b150 f   cinder:GLee.obj
 0001:0001a170       _GLee_Lazy_glPointParameterfvARB@8 0041b170 f   cinder:GLee.obj
 0001:0001a1a0       _GLee_Lazy_glVertexAttrib4fvNV@8 0041b1a0 f   cinder:GLee.obj
 0001:0001a1d0       _GLee_Lazy_glGetFramebufferParameterivEXT@12 0041b1d0 f   cinder:GLee.obj
 0001:0001a200       _GLee_Lazy_glGetConvolutionParameterfvEXT@12 0041b200 f   cinder:GLee.obj
 0001:0001a230       _GLee_Lazy_glSecondaryColor3iEXT@12 0041b230 f   cinder:GLee.obj
 0001:0001a260       _GLee_Lazy_glVertexAttribPointer@24 0041b260 f   cinder:GLee.obj
 0001:0001a2a0       _GLee_Lazy_glWindowPos2i@8 0041b2a0 f   cinder:GLee.obj
 0001:0001a2d0       _GLee_Lazy_glRenderbufferStorageEXT@16 0041b2d0 f   cinder:GLee.obj
 0001:0001a300       _GLee_Lazy_glCombinerInputNV@24 0041b300 f   cinder:GLee.obj
 0001:0001a340       _GLee_Lazy_glUniform2iARB@12 0041b340 f   cinder:GLee.obj
 0001:0001a370       _GLee_Lazy_glWeightbvARB@8 0041b370 f   cinder:GLee.obj
 0001:0001a3a0       _GLee_Lazy_glVertexStream3dATI@28 0041b3a0 f   cinder:GLee.obj
 0001:0001a3f0       _GLee_Lazy_wglGetPixelFormatAttribfvEXT@24 0041b3f0 f   cinder:GLee.obj
 0001:0001a430       _GLee_Lazy_glSecondaryColor3ivEXT@4 0041b430 f   cinder:GLee.obj
 0001:0001a450       _GLee_Lazy_glWindowPos2iv@4 0041b450 f   cinder:GLee.obj
 0001:0001a470       _GLee_Lazy_glCompressedMultiTexImage1DEXT@32 0041b470 f   cinder:GLee.obj
 0001:0001a4b0       _GLee_Lazy_glColorSubTable@24 0041b4b0 f   cinder:GLee.obj
 0001:0001a4f0       _GLee_Lazy_glGetConvolutionParameterivEXT@12 0041b4f0 f   cinder:GLee.obj
 0001:0001a520       _GLee_Lazy_glVertexAttrib4sNV@20 0041b520 f   cinder:GLee.obj
 0001:0001a560       _GLee_Lazy_glWeightsvARB@8 0041b560 f   cinder:GLee.obj
 0001:0001a590       _GLee_Lazy_glNamedRenderbufferStorageMultisampleEXT@20 0041b590 f   cinder:GLee.obj
 0001:0001a5c0       _GLee_Lazy_glGetRenderbufferParameterivEXT@12 0041b5c0 f   cinder:GLee.obj
 0001:0001a5f0       _GLee_Lazy_glVertexStream3dvATI@8 0041b5f0 f   cinder:GLee.obj
 0001:0001a620       _GLee_Lazy_glTextureSubImage1DEXT@32 0041b620 f   cinder:GLee.obj
 0001:0001a660       _GLee_Lazy_glUniformMatrix2x3fv@16 0041b660 f   cinder:GLee.obj
 0001:0001a690       _GLee_Lazy_glUniform3iARB@16 0041b690 f   cinder:GLee.obj
 0001:0001a6c0       _GLee_Lazy_glWindowPos2s@8 0041b6c0 f   cinder:GLee.obj
 0001:0001a6f0       _GLee_Lazy_glSecondaryColor3sEXT@12 0041b6f0 f   cinder:GLee.obj
 0001:0001a720       _GLee_Lazy_glIsFramebufferEXT@4 0041b720 f   cinder:GLee.obj
 0001:0001a750       _GLee_Lazy_glVertexAttrib4svNV@8 0041b750 f   cinder:GLee.obj
 0001:0001a780       _GLee_Lazy_glWeightivARB@8 0041b780 f   cinder:GLee.obj
 0001:0001a7b0       _GLee_Lazy_glWindowPos2sv@4 0041b7b0 f   cinder:GLee.obj
 0001:0001a7d0       _GLee_Lazy_glSecondaryColor3svEXT@4 0041b7d0 f   cinder:GLee.obj
 0001:0001a7f0       _GLee_Lazy_glCopyColorSubTable@20 0041b7f0 f   cinder:GLee.obj
 0001:0001a820       _GLee_Lazy_wglChoosePixelFormatEXT@24 0041b820 f   cinder:GLee.obj
 0001:0001a860       _GLee_Lazy_glUniformMatrix3x2fv@16 0041b860 f   cinder:GLee.obj
 0001:0001a890       _GLee_Lazy_glBindFramebufferEXT@8 0041b890 f   cinder:GLee.obj
 0001:0001a8c0       _GLee_Lazy_glVertexStream4sATI@20 0041b8c0 f   cinder:GLee.obj
 0001:0001a900       _GLee_Lazy_glGetSeparableFilterEXT@24 0041b900 f   cinder:GLee.obj
 0001:0001a940       _GLee_Lazy_glWeightfvARB@8 0041b940 f   cinder:GLee.obj
 0001:0001a970       _GLee_Lazy_glCombinerOutputNV@40 0041b970 f   cinder:GLee.obj
 0001:0001a9c0       _GLee_Lazy_glNamedRenderbufferStorageMultisampleCoverageEXT@24 0041b9c0 f   cinder:GLee.obj
 0001:0001aa00       _GLee_Lazy_glUniform4iARB@20 0041ba00 f   cinder:GLee.obj
 0001:0001aa30       _GLee_Lazy_glWindowPos3d@24 0041ba30 f   cinder:GLee.obj
 0001:0001aa70       _GLee_Lazy_glSecondaryColor3ubEXT@12 0041ba70 f   cinder:GLee.obj
 0001:0001aaa0       _GLee_Lazy_glVertexAttrib4ubNV@20 0041baa0 f   cinder:GLee.obj
 0001:0001aae0       _GLee_Lazy_glDeleteFramebuffersEXT@8 0041bae0 f   cinder:GLee.obj
 0001:0001ab10       _GLee_Lazy_glVertexStream4svATI@8 0041bb10 f   cinder:GLee.obj
 0001:0001ab40       _GLee_Lazy_glWeightdvARB@8 0041bb40 f   cinder:GLee.obj
 0001:0001ab70       _GLee_Lazy_glWindowPos3dv@4 0041bb70 f   cinder:GLee.obj
 0001:0001ab90       _GLee_Lazy_glCompressedMultiTexSubImage3DEXT@48 0041bb90 f   cinder:GLee.obj
 0001:0001abe0       _GLee_Lazy_glSecondaryColor3ubvEXT@4 0041bbe0 f   cinder:GLee.obj
 0001:0001ac00       _GLee_Lazy_glUniformMatrix2x4fv@16 0041bc00 f   cinder:GLee.obj
 0001:0001ac30       _GLee_Lazy_glTextureSubImage2DEXT@40 0041bc30 f   cinder:GLee.obj
 0001:0001ac80       _GLee_Lazy_glUniform1fvARB@12 0041bc80 f   cinder:GLee.obj
 0001:0001acb0       _GLee_Lazy_wglCreatePbufferEXT@20 0041bcb0 f   cinder:GLee.obj
 0001:0001acf0       _GLee_Lazy_glFinalCombinerInputNV@16 0041bcf0 f   cinder:GLee.obj
 0001:0001ad20       _GLee_Lazy_glConvolutionFilter1D@24 0041bd20 f   cinder:GLee.obj
 0001:0001ad60       _GLee_Lazy_glNamedFramebufferTextureEXT@16 0041bd60 f   cinder:GLee.obj
 0001:0001ad90       _GLee_Lazy_glVertexAttrib4ubvNV@8 0041bd90 f   cinder:GLee.obj
 0001:0001adc0       _GLee_Lazy_glGenFramebuffersEXT@8 0041bdc0 f   cinder:GLee.obj
 0001:0001adf0       _GLee_Lazy_glWeightubvARB@8 0041bdf0 f   cinder:GLee.obj
 0001:0001ae20       _GLee_Lazy_glWindowPos3f@12 0041be20 f   cinder:GLee.obj
 0001:0001ae60       _GLee_Lazy_wglGetPbufferDCEXT@4 0041be60 f   cinder:GLee.obj
 0001:0001ae90       _GLee_Lazy_glCheckFramebufferStatusEXT@4 0041be90 f   cinder:GLee.obj
 0001:0001aec0       _GLee_Lazy_glSecondaryColor3uiEXT@12 0041bec0 f   cinder:GLee.obj
 0001:0001aef0       _GLee_Lazy_glSeparableFilter2DEXT@32 0041bef0 f   cinder:GLee.obj
 0001:0001af30       _GLee_Lazy_glVertexStream4iATI@20 0041bf30 f   cinder:GLee.obj
 0001:0001af60       _GLee_Lazy_glUniform2fvARB@12 0041bf60 f   cinder:GLee.obj
 0001:0001af90       _GLee_Lazy_glWeightusvARB@8 0041bf90 f   cinder:GLee.obj
 0001:0001afc0       _GLee_Lazy_glUniformMatrix4x2fv@16 0041bfc0 f   cinder:GLee.obj
 0001:0001aff0       _GLee_Lazy_glVertexAttribs1dvNV@12 0041bff0 f   cinder:GLee.obj
 0001:0001b020       _GLee_Lazy_glWindowPos3fv@4 0041c020 f   cinder:GLee.obj
 0001:0001b040       _GLee_Lazy_glSecondaryColor3uivEXT@4 0041c040 f   cinder:GLee.obj
 0001:0001b060       _GLee_Lazy_glGetCombinerInputParameterfvNV@20 0041c060 f   cinder:GLee.obj
 0001:0001b090       _GLee_Lazy_wglReleasePbufferDCEXT@8 0041c090 f   cinder:GLee.obj
 0001:0001b0c0       _GLee_Lazy_glNamedFramebufferTextureLayerEXT@20 0041c0c0 f   cinder:GLee.obj
 0001:0001b0f0       _GLee_Lazy_glVertexStream4ivATI@8 0041c0f0 f   cinder:GLee.obj
 0001:0001b120       _GLee_Lazy_glWeightuivARB@8 0041c120 f   cinder:GLee.obj
 0001:0001b150       _GLee_Lazy_glUniform3fvARB@12 0041c150 f   cinder:GLee.obj
 0001:0001b180       _GLee_Lazy_glConvolutionFilter2D@28 0041c180 f   cinder:GLee.obj
 0001:0001b1c0       _GLee_Lazy_glCopyTextureImage1DEXT@32 0041c1c0 f   cinder:GLee.obj
 0001:0001b200       _GLee_Lazy_glVertexAttribs1fvNV@12 0041c200 f   cinder:GLee.obj
 0001:0001b230       _GLee_Lazy_glWindowPos3i@12 0041c230 f   cinder:GLee.obj
 0001:0001b260       _GLee_Lazy_wglDestroyPbufferEXT@4 0041c260 f   cinder:GLee.obj
 0001:0001b290       _GLee_Lazy_glUniformMatrix3x4fv@16 0041c290 f   cinder:GLee.obj
 0001:0001b2c0       _GLee_Lazy_glCompressedMultiTexSubImage2DEXT@40 0041c2c0 f   cinder:GLee.obj
 0001:0001b310       _GLee_Lazy_glFramebufferTexture1DEXT@20 0041c310 f   cinder:GLee.obj
 0001:0001b340       _GLee_Lazy_glSecondaryColor3usEXT@12 0041c340 f   cinder:GLee.obj
 0001:0001b370       _GLee_Lazy_glColorTableSGI@24 0041c370 f   cinder:GLee.obj
 0001:0001b3b0       _GLee_Lazy_glWindowPos3iv@4 0041c3b0 f   cinder:GLee.obj
 0001:0001b3d0       _GLee_Lazy_glGetCombinerInputParameterivNV@20 0041c3d0 f   cinder:GLee.obj
 0001:0001b400       _GLee_Lazy_glSecondaryColor3usvEXT@4 0041c400 f   cinder:GLee.obj
 0001:0001b420       _GLee_Lazy_glUniform4fvARB@12 0041c420 f   cinder:GLee.obj
 0001:0001b450       _GLee_Lazy_glConvolutionParameterf@12 0041c450 f   cinder:GLee.obj
 0001:0001b480       _GLee_Lazy_glNamedFramebufferTextureFaceEXT@20 0041c480 f   cinder:GLee.obj
 0001:0001b4b0       _GLee_Lazy_glWeightPointerARB@16 0041c4b0 f   cinder:GLee.obj
 0001:0001b4e0       _GLee_Lazy_glVertexStream4fATI@20 0041c4e0 f   cinder:GLee.obj
 0001:0001b530       _GLee_Lazy_glVertexAttribs1svNV@12 0041c530 f   cinder:GLee.obj
 0001:0001b560       _GLee_Lazy_wglQueryPbufferEXT@12 0041c560 f   cinder:GLee.obj
 0001:0001b590       _GLee_Lazy_glColorTableParameterfvSGI@12 0041c590 f   cinder:GLee.obj
 0001:0001b5c0       _GLee_Lazy_glUniformMatrix4x3fv@16 0041c5c0 f   cinder:GLee.obj
 0001:0001b5f0       _GLee_Lazy_glVertexBlendARB@4 0041c5f0 f   cinder:GLee.obj
 0001:0001b610       _GLee_Lazy_glWindowPos3s@12 0041c610 f   cinder:GLee.obj
 0001:0001b640       _GLee_Lazy_glFramebufferTexture2DEXT@20 0041c640 f   cinder:GLee.obj
 0001:0001b670       _GLee_Lazy_glVertexStream4fvATI@8 0041c670 f   cinder:GLee.obj
 0001:0001b6a0       _GLee_Lazy_glUniform1ivARB@12 0041c6a0 f   cinder:GLee.obj
 0001:0001b6d0       _GLee_Lazy_glConvolutionParameterfv@12 0041c6d0 f   cinder:GLee.obj
 0001:0001b700       _GLee_Lazy_glTextureRenderbufferEXT@12 0041c700 f   cinder:GLee.obj
 0001:0001b730       _GLee_Lazy_glVertexAttribs2dvNV@12 0041c730 f   cinder:GLee.obj
 0001:0001b760       _GLee_Lazy_glGetCombinerOutputParameterfvNV@16 0041c760 f   cinder:GLee.obj
 0001:0001b790       _GLee_Lazy_glSecondaryColorPointerEXT@16 0041c790 f   cinder:GLee.obj
 0001:0001b7c0       _GLee_Lazy_glCurrentPaletteMatrixARB@4 0041c7c0 f   cinder:GLee.obj
 0001:0001b7e0       _GLee_Lazy_glWindowPos3sv@4 0041c7e0 f   cinder:GLee.obj
 0001:0001b800       _GLee_Lazy_glCopyTextureImage2DEXT@36 0041c800 f   cinder:GLee.obj
 0001:0001b840       _GLee_Lazy_wglGetDigitalVideoParametersI3D@12 0041c840 f   cinder:GLee.obj
 0001:0001b870       _GLee_Lazy_glCompressedMultiTexSubImage1DEXT@32 0041c870 f   cinder:GLee.obj
 0001:0001b8b0       _GLee_Lazy_glColorTableParameterivSGI@12 0041c8b0 f   cinder:GLee.obj
 0001:0001b8e0       _GLee_Lazy_glTextureNormalEXT@4 0041c8e0 f   cinder:GLee.obj
 0001:0001b900       _GLee_Lazy_glUniform2ivARB@12 0041c900 f   cinder:GLee.obj
 0001:0001b930       _GLee_Lazy_glMatrixIndexubvARB@8 0041c930 f   cinder:GLee.obj
 0001:0001b960       _GLee_Lazy_glColorMaski@20 0041c960 f   cinder:GLee.obj
 0001:0001b9a0       _GLee_Lazy_glConvolutionParameteri@12 0041c9a0 f   cinder:GLee.obj
 0001:0001b9d0       _GLee_Lazy_glMultiTexRenderbufferEXT@12 0041c9d0 f   cinder:GLee.obj
 0001:0001ba00       _GLee_Lazy_glGenQueries@8  0041ca00 f   cinder:GLee.obj
 0001:0001ba30       _GLee_Lazy_glVertexAttribs2fvNV@12 0041ca30 f   cinder:GLee.obj
 0001:0001ba60       _GLee_Lazy_glVertexStream4dATI@36 0041ca60 f   cinder:GLee.obj
 0001:0001bac0       _GLee_Lazy_glGetCombinerOutputParameterivNV@16 0041cac0 f   cinder:GLee.obj
 0001:0001baf0       _GLee_Lazy_glFramebufferTexture3DEXT@24 0041caf0 f   cinder:GLee.obj
 0001:0001bb30       _GLee_Lazy_wglSetDigitalVideoParametersI3D@12 0041cb30 f   cinder:GLee.obj
 0001:0001bb60       _GLee_Lazy_glGetCompressedMultiTexImageEXT@16 0041cb60 f   cinder:GLee.obj
 0001:0001bb90       _GLee_Lazy_glMatrixIndexusvARB@8 0041cb90 f   cinder:GLee.obj
 0001:0001bbc0       _GLee_Lazy_glDeleteQueries@8 0041cbc0 f   cinder:GLee.obj
 0001:0001bbf0       _GLee_Lazy_glMultiDrawArraysEXT@16 0041cbf0 f   cinder:GLee.obj
 0001:0001bc20       _GLee_Lazy_glCopyColorTableSGI@20 0041cc20 f   cinder:GLee.obj
 0001:0001bc50       _GLee_Lazy_glUniform3ivARB@12 0041cc50 f   cinder:GLee.obj
 0001:0001bc80       _GLee_Lazy_glGetBooleani_v@12 0041cc80 f   cinder:GLee.obj
 0001:0001bcb0       _GLee_Lazy_glConvolutionParameteriv@12 0041ccb0 f   cinder:GLee.obj
 0001:0001bce0       _GLee_Lazy_glGetMultisamplefvNV@12 0041cce0 f   cinder:GLee.obj
 0001:0001bd10       _GLee_Lazy_glVertexStream4dvATI@8 0041cd10 f   cinder:GLee.obj
 0001:0001bd40       _GLee_Lazy_glVertexAttribs2svNV@12 0041cd40 f   cinder:GLee.obj
 0001:0001bd70       _GLee_Lazy_glCopyTextureSubImage1DEXT@28 0041cd70 f   cinder:GLee.obj
 0001:0001bdb0       _GLee_Lazy_glGetFinalCombinerInputParameterfvNV@12 0041cdb0 f   cinder:GLee.obj
 0001:0001bde0       _GLee_Lazy_glIsQuery@4     0041cde0 f   cinder:GLee.obj
 0001:0001be10       _GLee_Lazy_glMatrixIndexuivARB@8 0041ce10 f   cinder:GLee.obj
 0001:0001be40       _GLee_Lazy_wglGetGammaTableParametersI3D@12 0041ce40 f   cinder:GLee.obj
 0001:0001be70       _GLee_Lazy_glFramebufferRenderbufferEXT@16 0041ce70 f   cinder:GLee.obj
 0001:0001bea0       _GLee_Lazy_glSampleMaskIndexedNV@8 0041cea0 f   cinder:GLee.obj
 0001:0001bed0       _GLee_Lazy_glUniform4ivARB@12 0041ced0 f   cinder:GLee.obj
 0001:0001bf00       _GLee_Lazy_glGetIntegeri_v@12 0041cf00 f   cinder:GLee.obj
 0001:0001bf30       _GLee_Lazy_glNamedProgramStringEXT@20 0041cf30 f   cinder:GLee.obj
 0001:0001bf60       _GLee_Lazy_glVertexAttribs3dvNV@12 0041cf60 f   cinder:GLee.obj
 0001:0001bf90       _GLee_Lazy_glGetColorTableSGI@16 0041cf90 f   cinder:GLee.obj
 0001:0001bfc0       _GLee_Lazy_glBeginQuery@8  0041cfc0 f   cinder:GLee.obj
 0001:0001bff0       _GLee_Lazy_glNormalStream3bATI@16 0041cff0 f   cinder:GLee.obj
 0001:0001c020       _GLee_Lazy_glGetFinalCombinerInputParameterivNV@12 0041d020 f   cinder:GLee.obj
 0001:0001c050       _GLee_Lazy_glMultiDrawElementsEXT@20 0041d050 f   cinder:GLee.obj
 0001:0001c080       _GLee_Lazy_glCopyConvolutionFilter1D@20 0041d080 f   cinder:GLee.obj
 0001:0001c0b0       _GLee_Lazy_glTexRenderbufferNV@8 0041d0b0 f   cinder:GLee.obj
 0001:0001c0e0       _GLee_Lazy_glMatrixIndexPointerARB@16 0041d0e0 f   cinder:GLee.obj
 0001:0001c110       _GLee_Lazy_glEnablei@8     0041d110 f   cinder:GLee.obj
 0001:0001c140       _GLee_Lazy_wglSetGammaTableParametersI3D@12 0041d140 f   cinder:GLee.obj
 0001:0001c170       _GLee_Lazy_glResizeBuffersMESA@0 0041d170 f   cinder:GLee.obj
 0001:0001c190       _GLee_Lazy_glEndQuery@4    0041d190 f   cinder:GLee.obj
 0001:0001c1b0       _GLee_Lazy_glGetFramebufferAttachmentParameterivEXT@16 0041d1b0 f   cinder:GLee.obj
 0001:0001c1e0       _GLee_Lazy_glFogCoordfEXT@4 0041d1e0 f   cinder:GLee.obj
 0001:0001c210       _GLee_Lazy_glNormalStream3bvATI@8 0041d210 f   cinder:GLee.obj
 0001:0001c240       _GLee_Lazy_glVertexAttribs3fvNV@12 0041d240 f   cinder:GLee.obj
 0001:0001c270       _GLee_Lazy_glGetColorTableParameterfvSGI@12 0041d270 f   cinder:GLee.obj
 0001:0001c2a0       _GLee_Lazy_glUniformMatrix2fvARB@16 0041d2a0 f   cinder:GLee.obj
 0001:0001c2d0       _GLee_Lazy_glBindTransformFeedbackNV@8 0041d2d0 f   cinder:GLee.obj
 0001:0001c300       _GLee_Lazy_glGenerateMipmapEXT@4 0041d300 f   cinder:GLee.obj
 0001:0001c320       _GLee_Lazy_glFogCoordfvEXT@4 0041d320 f   cinder:GLee.obj
 0001:0001c340       _GLee_Lazy_glWindowPos2dARB@16 0041d340 f   cinder:GLee.obj
 0001:0001c380       _GLee_Lazy_glDisablei@8    0041d380 f   cinder:GLee.obj
 0001:0001c3b0       _GLee_Lazy_glCopyTextureSubImage2DEXT@36 0041d3b0 f   cinder:GLee.obj
 0001:0001c3f0       _GLee_Lazy_glWindowPos2dMESA@16 0041d3f0 f   cinder:GLee.obj
 0001:0001c430       _GLee_Lazy_glGetQueryiv@12 0041d430 f   cinder:GLee.obj
 0001:0001c460       _GLee_Lazy_glNamedProgramLocalParameter4dEXT@44 0041d460 f   cinder:GLee.obj
 0001:0001c4c0       _GLee_Lazy_glFogCoorddEXT@8 0041d4c0 f   cinder:GLee.obj
 0001:0001c4f0       _GLee_Lazy_glWindowPos2dvARB@4 0041d4f0 f   cinder:GLee.obj
 0001:0001c510       _GLee_Lazy_glCopyConvolutionFilter2D@24 0041d510 f   cinder:GLee.obj
 0001:0001c550       _GLee_Lazy_glDeleteTransformFeedbacksNV@8 0041d550 f   cinder:GLee.obj
 0001:0001c580       _GLee_Lazy_glVertexAttribs3svNV@12 0041d580 f   cinder:GLee.obj
 0001:0001c5b0       _GLee_Lazy_glWindowPos2dvMESA@4 0041d5b0 f   cinder:GLee.obj
 0001:0001c5d0       _GLee_Lazy_glGetColorTableParameterivSGI@12 0041d5d0 f   cinder:GLee.obj
 0001:0001c600       _GLee_Lazy_glStringMarkerGREMEDY@8 0041d600 f   cinder:GLee.obj
 0001:0001c630       _GLee_Lazy_glIsEnabledi@8  0041d630 f   cinder:GLee.obj
 0001:0001c660       _GLee_Lazy_wglGetGammaTableI3D@20 0041d660 f   cinder:GLee.obj
 0001:0001c6a0       _GLee_Lazy_glNormalStream3sATI@16 0041d6a0 f   cinder:GLee.obj
 0001:0001c6d0       _GLee_Lazy_glUniformMatrix3fvARB@16 0041d6d0 f   cinder:GLee.obj
 0001:0001c700       _GLee_Lazy_glFogCoorddvEXT@4 0041d700 f   cinder:GLee.obj
 0001:0001c720       _GLee_Lazy_glWindowPos2fARB@8 0041d720 f   cinder:GLee.obj
 0001:0001c750       _GLee_Lazy_glGetQueryObjectiv@12 0041d750 f   cinder:GLee.obj
 0001:0001c780       _GLee_Lazy_glGenTransformFeedbacksNV@8 0041d780 f   cinder:GLee.obj
 0001:0001c7b0       _GLee_Lazy_glWindowPos2fMESA@8 0041d7b0 f   cinder:GLee.obj
 0001:0001c7e0       _GLee_Lazy_glPixelTexGenParameteriSGIS@8 0041d7e0 f   cinder:GLee.obj
 0001:0001c810       _GLee_Lazy_glBeginTransformFeedback@4 0041d810 f   cinder:GLee.obj
 0001:0001c830       _GLee_Lazy_glStencilClearTagEXT@8 0041d830 f   cinder:GLee.obj
 0001:0001c860       _GLee_Lazy_glNormalStream3svATI@8 0041d860 f   cinder:GLee.obj
 0001:0001c890       _GLee_Lazy_glVertexAttribs4dvNV@12 0041d890 f   cinder:GLee.obj
 0001:0001c8c0       _GLee_Lazy_glNamedProgramLocalParameter4dvEXT@16 0041d8c0 f   cinder:GLee.obj
 0001:0001c8f0       _GLee_Lazy_glGetTextureImageEXT@24 0041d8f0 f   cinder:GLee.obj
 0001:0001c930       _GLee_Lazy_glGetConvolutionFilter@16 0041d930 f   cinder:GLee.obj
 0001:0001c960       _GLee_Lazy_glWindowPos2fvARB@4 0041d960 f   cinder:GLee.obj
 0001:0001c980       _GLee_Lazy_glEndTransformFeedback@0 0041d980 f   cinder:GLee.obj
 0001:0001c9a0       _GLee_Lazy_glIsTransformFeedbackNV@4 0041d9a0 f   cinder:GLee.obj
 0001:0001c9d0       _GLee_Lazy_glWindowPos2fvMESA@4 0041d9d0 f   cinder:GLee.obj
 0001:0001c9f0       _GLee_Lazy_glFogCoordPointerEXT@12 0041d9f0 f   cinder:GLee.obj
 0001:0001ca20       _GLee_Lazy_glUniformMatrix4fvARB@16 0041da20 f   cinder:GLee.obj
 0001:0001ca50       _GLee_Lazy_glPixelTexGenParameterivSGIS@8 0041da50 f   cinder:GLee.obj
 0001:0001ca80       _GLee_Lazy_glGetQueryObjectuiv@12 0041da80 f   cinder:GLee.obj
 0001:0001cab0       _GLee_Lazy_wglSetGammaTableI3D@20 0041dab0 f   cinder:GLee.obj
 0001:0001caf0       _GLee_Lazy_glPauseTransformFeedbackNV@0 0041daf0 f   cinder:GLee.obj
 0001:0001cb10       _GLee_Lazy_glVertexAttribs4fvNV@12 0041db10 f   cinder:GLee.obj
 0001:0001cb40       _GLee_Lazy_glWindowPos2iARB@8 0041db40 f   cinder:GLee.obj
 0001:0001cb70       _GLee_Lazy_glWindowPos2iMESA@8 0041db70 f   cinder:GLee.obj
 0001:0001cba0       _GLee_Lazy_glGetConvolutionParameterfv@12 0041dba0 f   cinder:GLee.obj
 0001:0001cbd0       _GLee_Lazy_glNormalStream3iATI@16 0041dbd0 f   cinder:GLee.obj
 0001:0001cc00       _GLee_Lazy_glResumeTransformFeedbackNV@0 0041dc00 f   cinder:GLee.obj
 0001:0001cc20       _GLee_Lazy_glGetTextureParameterfvEXT@16 0041dc20 f   cinder:GLee.obj
 0001:0001cc50       _GLee_Lazy_glPixelTexGenParameterfSGIS@8 0041dc50 f   cinder:GLee.obj
 0001:0001cc80       _GLee_Lazy_wglEnableGenlockI3D@4 0041dc80 f   cinder:GLee.obj
 0001:0001ccb0       _GLee_Lazy_glTangent3bEXT@12 0041dcb0 f   cinder:GLee.obj
 0001:0001cce0       _GLee_Lazy_glGetObjectParameterfvARB@12 0041dce0 f   cinder:GLee.obj
 0001:0001cd10       _GLee_Lazy_glBindBuffer@8  0041dd10 f   cinder:GLee.obj
 0001:0001cd40       _GLee_Lazy_glWindowPos2ivARB@4 0041dd40 f   cinder:GLee.obj
 0001:0001cd60       _GLee_Lazy_glWindowPos2ivMESA@4 0041dd60 f   cinder:GLee.obj
 0001:0001cd80       _GLee_Lazy_glBindBufferRange@20 0041dd80 f   cinder:GLee.obj
 0001:0001cdb0       _GLee_Lazy_glNamedProgramLocalParameter4fEXT@28 0041ddb0 f   cinder:GLee.obj
 0001:0001ce10       _GLee_Lazy_glNormalStream3ivATI@8 0041de10 f   cinder:GLee.obj
 0001:0001ce40       _GLee_Lazy_glVertexAttribs4svNV@12 0041de40 f   cinder:GLee.obj
 0001:0001ce70       _GLee_Lazy_glTangent3bvEXT@4 0041de70 f   cinder:GLee.obj
 0001:0001ce90       _GLee_Lazy_wglDisableGenlockI3D@4 0041de90 f   cinder:GLee.obj
 0001:0001cec0       _GLee_Lazy_glDrawTransformFeedbackNV@8 0041dec0 f   cinder:GLee.obj
 0001:0001cef0       _GLee_Lazy_glPixelTexGenParameterfvSGIS@8 0041def0 f   cinder:GLee.obj
 0001:0001cf20       _GLee_Lazy_glGetConvolutionParameteriv@12 0041df20 f   cinder:GLee.obj
 0001:0001cf50       _GLee_Lazy_glDeleteBuffers@8 0041df50 f   cinder:GLee.obj
 0001:0001cf80       _GLee_Lazy_glWindowPos2sARB@8 0041df80 f   cinder:GLee.obj
 0001:0001cfb0       _GLee_Lazy_glBlitFramebufferEXT@40 0041dfb0 f   cinder:GLee.obj
 0001:0001d000       _GLee_Lazy_glWindowPos2sMESA@8 0041e000 f   cinder:GLee.obj
 0001:0001d030       _GLee_Lazy_glGetObjectParameterivARB@12 0041e030 f   cinder:GLee.obj
 0001:0001d060       _GLee_Lazy_glGetTextureParameterivEXT@16 0041e060 f   cinder:GLee.obj
 0001:0001d090       _GLee_Lazy_glBindBufferBase@12 0041e090 f   cinder:GLee.obj
 0001:0001d0c0       _GLee_Lazy_glGetPixelTexGenParameterivSGIS@8 0041e0c0 f   cinder:GLee.obj
 0001:0001d0f0       _GLee_Lazy_glWindowPos2svARB@4 0041e0f0 f   cinder:GLee.obj
 0001:0001d110       _GLee_Lazy_wglIsEnabledGenlockI3D@8 0041e110 f   cinder:GLee.obj
 0001:0001d140       _GLee_Lazy_glVertexAttribs4ubvNV@12 0041e140 f   cinder:GLee.obj
 0001:0001d170       _GLee_Lazy_glWindowPos2svMESA@4 0041e170 f   cinder:GLee.obj
 0001:0001d190       _GLee_Lazy_glTangent3dEXT@24 0041e190 f   cinder:GLee.obj
 0001:0001d1d0       _GLee_Lazy_glGenBuffers@8  0041e1d0 f   cinder:GLee.obj
 0001:0001d200       _GLee_Lazy_glNamedProgramLocalParameter4fvEXT@16 0041e200 f   cinder:GLee.obj
 0001:0001d230       _GLee_Lazy_glNormalStream3fATI@16 0041e230 f   cinder:GLee.obj
 0001:0001d270       _GLee_Lazy_glBlendFuncSeparateINGR@16 0041e270 f   cinder:GLee.obj
 0001:0001d2a0       _GLee_Lazy_glTangent3dvEXT@4 0041e2a0 f   cinder:GLee.obj
 0001:0001d2c0       _GLee_Lazy_glIsBuffer@4    0041e2c0 f   cinder:GLee.obj
 0001:0001d2f0       _GLee_Lazy_glGetPixelTexGenParameterfvSGIS@8 0041e2f0 f   cinder:GLee.obj
 0001:0001d320       _GLee_Lazy_glGetInfoLogARB@16 0041e320 f   cinder:GLee.obj
 0001:0001d350       _GLee_Lazy_glTexBumpParameterivATI@8 0041e350 f   cinder:GLee.obj
 0001:0001d380       _GLee_Lazy_glGetSeparableFilter@24 0041e380 f   cinder:GLee.obj
 0001:0001d3c0       _GLee_Lazy_wglGenlockSourceI3D@8 0041e3c0 f   cinder:GLee.obj
 0001:0001d3f0       _GLee_Lazy_glRenderbufferStorageMultisampleEXT@20 0041e3f0 f   cinder:GLee.obj
 0001:0001d420       _GLee_Lazy_glWindowPos3dARB@24 0041e420 f   cinder:GLee.obj
 0001:0001d460       _GLee_Lazy_glTransformFeedbackVaryings@16 0041e460 f   cinder:GLee.obj
 0001:0001d490       _GLee_Lazy_glGetTextureLevelParameterfvEXT@20 0041e490 f   cinder:GLee.obj
 0001:0001d4c0       _GLee_Lazy_glNormalStream3fvATI@8 0041e4c0 f   cinder:GLee.obj
 0001:0001d4f0       _GLee_Lazy_glWindowPos3dMESA@24 0041e4f0 f   cinder:GLee.obj
 0001:0001d530       _GLee_Lazy_glIglooInterfaceSGIX@8 0041e530 f   cinder:GLee.obj
 0001:0001d560       _GLee_Lazy_glPixelTexGenSGIX@4 0041e560 f   cinder:GLee.obj
 0001:0001d580       _GLee_Lazy_glGetNamedProgramLocalParameterdvEXT@16 0041e580 f   cinder:GLee.obj
 0001:0001d5b0       _GLee_Lazy_glWindowPos3dvARB@4 0041e5b0 f   cinder:GLee.obj
 0001:0001d5d0       _GLee_Lazy_glTexBumpParameterfvATI@8 0041e5d0 f   cinder:GLee.obj
 0001:0001d600       _GLee_Lazy_glWindowPos3dvMESA@4 0041e600 f   cinder:GLee.obj
 0001:0001d620       _GLee_Lazy_glTangent3fEXT@12 0041e620 f   cinder:GLee.obj
 0001:0001d660       _GLee_Lazy_wglGetGenlockSourceI3D@8 0041e660 f   cinder:GLee.obj
 0001:0001d690       _GLee_Lazy_glFragmentLightModeliEXT@8 0041e690 f   cinder:GLee.obj
 0001:0001d6c0       _GLee_Lazy_glGetQueryObjecti64vEXT@12 0041e6c0 f   cinder:GLee.obj
 0001:0001d6f0       _GLee_Lazy_glGetAttachedObjectsARB@16 0041e6f0 f   cinder:GLee.obj
 0001:0001d720       _GLee_Lazy_glGetTransformFeedbackVarying@12 0041e720 f   cinder:GLee.obj
 0001:0001d750       _GLee_Lazy_glBufferData@16 0041e750 f   cinder:GLee.obj
 0001:0001d780       _GLee_Lazy_glTangent3fvEXT@4 0041e780 f   cinder:GLee.obj
 0001:0001d7a0       _GLee_Lazy_glNormalStream3dATI@28 0041e7a0 f   cinder:GLee.obj
 0001:0001d7f0       _GLee_Lazy_glGetTexBumpParameterivATI@8 0041e7f0 f   cinder:GLee.obj
 0001:0001d820       _GLee_Lazy_glGetTextureLevelParameterivEXT@20 0041e820 f   cinder:GLee.obj
 0001:0001d850       _GLee_Lazy_glWindowPos3fARB@12 0041e850 f   cinder:GLee.obj
 0001:0001d890       _GLee_Lazy_glWindowPos3fMESA@12 0041e890 f   cinder:GLee.obj
 0001:0001d8d0       _GLee_Lazy_wglGenlockSourceEdgeI3D@8 0041e8d0 f   cinder:GLee.obj
 0001:0001d900       _GLee_Lazy_glFragmentLightModelfEXT@8 0041e900 f   cinder:GLee.obj
 0001:0001d930       _GLee_Lazy_glGetNamedProgramLocalParameterfvEXT@16 0041e930 f   cinder:GLee.obj
 0001:0001d960       _GLee_Lazy_glGetUniformLocationARB@8 0041e960 f   cinder:GLee.obj
 0001:0001d990       _GLee_Lazy_glClampColor@8  0041e990 f   cinder:GLee.obj
 0001:0001d9c0       _GLee_Lazy_glGetQueryObjectui64vEXT@12 0041e9c0 f   cinder:GLee.obj
 0001:0001d9f0       _GLee_Lazy_glSeparableFilter2D@32 0041e9f0 f   cinder:GLee.obj
 0001:0001da30       _GLee_Lazy_glNormalStream3dvATI@8 0041ea30 f   cinder:GLee.obj
 0001:0001da60       _GLee_Lazy_glWindowPos3fvARB@4 0041ea60 f   cinder:GLee.obj
 0001:0001da80       _GLee_Lazy_glGetTexBumpParameterfvATI@8 0041ea80 f   cinder:GLee.obj
 0001:0001dab0       _GLee_Lazy_glWindowPos3fvMESA@4 0041eab0 f   cinder:GLee.obj
 0001:0001dad0       _GLee_Lazy_glTangent3iEXT@12 0041ead0 f   cinder:GLee.obj
 0001:0001db00       _GLee_Lazy_glBufferSubData@16 0041eb00 f   cinder:GLee.obj
 0001:0001db30       _GLee_Lazy_glFragmentLightModelivEXT@8 0041eb30 f   cinder:GLee.obj
 0001:0001db60       _GLee_Lazy_glBeginConditionalRender@8 0041eb60 f   cinder:GLee.obj
 0001:0001db90       _GLee_Lazy_wglGetGenlockSourceEdgeI3D@8 0041eb90 f   cinder:GLee.obj
 0001:0001dbc0       _GLee_Lazy_glClientActiveVertexStreamATI@4 0041ebc0 f   cinder:GLee.obj
 0001:0001dbe0       _GLee_Lazy_glGenFragmentShadersATI@4 0041ebe0 f   cinder:GLee.obj
 0001:0001dc10       _GLee_Lazy_glTangent3ivEXT@4 0041ec10 f   cinder:GLee.obj
 0001:0001dc30       _GLee_Lazy_glGetNamedProgramivEXT@16 0041ec30 f   cinder:GLee.obj
 0001:0001dc60       _GLee_Lazy_glEndConditionalRender@0 0041ec60 f   cinder:GLee.obj
 0001:0001dc80       _GLee_Lazy_glTexImage4DSGIS@44 0041ec80 f   cinder:GLee.obj
 0001:0001dcd0       _GLee_Lazy_glWindowPos3iARB@12 0041ecd0 f   cinder:GLee.obj
 0001:0001dd00       _GLee_Lazy_glProgramEnvParameters4fvEXT@16 0041ed00 f   cinder:GLee.obj
 0001:0001dd30       _GLee_Lazy_glWindowPos3iMESA@12 0041ed30 f   cinder:GLee.obj
 0001:0001dd60       _GLee_Lazy_glFragmentLightModelfvEXT@8 0041ed60 f   cinder:GLee.obj
 0001:0001dd90       _GLee_Lazy_glVertexBlendEnviATI@8 0041ed90 f   cinder:GLee.obj
 0001:0001ddc0       _GLee_Lazy_glBindFragmentShaderATI@4 0041edc0 f   cinder:GLee.obj
 0001:0001dde0       _GLee_Lazy_glGetBufferSubData@16 0041ede0 f   cinder:GLee.obj
 0001:0001de10       _GLee_Lazy_glGetHistogram@20 0041ee10 f   cinder:GLee.obj
 0001:0001de40       _GLee_Lazy_wglGenlockSampleRateI3D@8 0041ee40 f   cinder:GLee.obj
 0001:0001de70       _GLee_Lazy_glWindowPos3ivARB@4 0041ee70 f   cinder:GLee.obj
 0001:0001de90       _GLee_Lazy_glWindowPos3ivMESA@4 0041ee90 f   cinder:GLee.obj
 0001:0001deb0       _GLee_Lazy_glTangent3sEXT@12 0041eeb0 f   cinder:GLee.obj
 0001:0001dee0       _GLee_Lazy_glGetActiveUniformARB@28 0041eee0 f   cinder:GLee.obj
 0001:0001df20       _GLee_Lazy_glVertexAttribI1i@8 0041ef20 f   cinder:GLee.obj
 0001:0001df50       _GLee_Lazy_glDeleteFragmentShaderATI@4 0041ef50 f   cinder:GLee.obj
 0001:0001df70       _GLee_Lazy_glGetNamedProgramStringEXT@16 0041ef70 f   cinder:GLee.obj
 0001:0001dfa0       _GLee_Lazy_glVertexBlendEnvfATI@8 0041efa0 f   cinder:GLee.obj
 0001:0001dfd0       _GLee_Lazy_glMapBuffer@8   0041efd0 f   cinder:GLee.obj
 0001:0001e000       _GLee_Lazy_glFragmentLightiEXT@12 0041f000 f   cinder:GLee.obj
 0001:0001e030       _GLee_Lazy_glTextureImage3DEXT@44 0041f030 f   cinder:GLee.obj
 0001:0001e080       _GLee_Lazy_glTangent3svEXT@4 0041f080 f   cinder:GLee.obj
 0001:0001e0a0       _GLee_Lazy_wglGetGenlockSampleRateI3D@8 0041f0a0 f   cinder:GLee.obj
 0001:0001e0d0       _GLee_Lazy_glProgramLocalParameters4fvEXT@16 0041f0d0 f   cinder:GLee.obj
 0001:0001e100       _GLee_Lazy_glBeginFragmentShaderATI@0 0041f100 f   cinder:GLee.obj
 0001:0001e120       _GLee_Lazy_glGetHistogramParameterfv@12 0041f120 f   cinder:GLee.obj
 0001:0001e150       _GLee_Lazy_glWindowPos3sARB@12 0041f150 f   cinder:GLee.obj
 0001:0001e180       _GLee_Lazy_glWindowPos3sMESA@12 0041f180 f   cinder:GLee.obj
 0001:0001e1b0       _GLee_Lazy_glGetUniformfvARB@12 0041f1b0 f   cinder:GLee.obj
 0001:0001e1e0       _GLee_Lazy_glVertexAttribI2i@12 0041f1e0 f   cinder:GLee.obj
 0001:0001e210       _GLee_Lazy_glEndFragmentShaderATI@0 0041f210 f   cinder:GLee.obj
 0001:0001e230       _GLee_Lazy_glUnmapBuffer@4 0041f230 f   cinder:GLee.obj
 0001:0001e260       _GLee_Lazy_glElementPointerATI@8 0041f260 f   cinder:GLee.obj
 0001:0001e290       _GLee_Lazy_glWindowPos3svARB@4 0041f290 f   cinder:GLee.obj
 0001:0001e2b0       _GLee_Lazy_wglGenlockSourceDelayI3D@8 0041f2b0 f   cinder:GLee.obj
 0001:0001e2e0       _GLee_Lazy_glFragmentLightfEXT@12 0041f2e0 f   cinder:GLee.obj
 0001:0001e310       _GLee_Lazy_glWindowPos3svMESA@4 0041f310 f   cinder:GLee.obj
 0001:0001e330       _GLee_Lazy_glBinormal3bEXT@12 0041f330 f   cinder:GLee.obj
 0001:0001e360       _GLee_Lazy_glBufferParameteriAPPLE@12 0041f360 f   cinder:GLee.obj
 0001:0001e390       _GLee_Lazy_glGetHistogramParameteriv@12 0041f390 f   cinder:GLee.obj
 0001:0001e3c0       _GLee_Lazy_glNamedProgramLocalParameters4fvEXT@20 0041f3c0 f   cinder:GLee.obj
 0001:0001e3f0       _GLee_Lazy_glDrawElementArrayATI@8 0041f3f0 f   cinder:GLee.obj
 0001:0001e420       _GLee_Lazy_glGetUniformivARB@12 0041f420 f   cinder:GLee.obj
 0001:0001e450       _GLee_Lazy_glPassTexCoordATI@12 0041f450 f   cinder:GLee.obj
 0001:0001e480       _GLee_Lazy_glBinormal3bvEXT@4 0041f480 f   cinder:GLee.obj
 0001:0001e4a0       _GLee_Lazy_glVertexAttrib1dARB@12 0041f4a0 f   cinder:GLee.obj
 0001:0001e4d0       _GLee_Lazy_glVertexAttribI3i@16 0041f4d0 f   cinder:GLee.obj
 0001:0001e500       _GLee_Lazy_glGetBufferParameteriv@12 0041f500 f   cinder:GLee.obj
 0001:0001e530       _GLee_Lazy_wglGetGenlockSourceDelayI3D@8 0041f530 f   cinder:GLee.obj
 0001:0001e560       _GLee_Lazy_glFragmentLightivEXT@12 0041f560 f   cinder:GLee.obj
 0001:0001e590       _GLee_Lazy_glTexSubImage4DSGIS@52 0041f590 f   cinder:GLee.obj
 0001:0001e5e0       _GLee_Lazy_glFlushMappedBufferRangeAPPLE@12 0041f5e0 f   cinder:GLee.obj
 0001:0001e610       _GLee_Lazy_glWindowPos4dMESA@32 0041f610 f   cinder:GLee.obj
 0001:0001e660       _GLee_Lazy_glVertexAttrib1dvARB@8 0041f660 f   cinder:GLee.obj
 0001:0001e690       _GLee_Lazy_glSampleMapATI@12 0041f690 f   cinder:GLee.obj
 0001:0001e6c0       _GLee_Lazy_glBinormal3dEXT@24 0041f6c0 f   cinder:GLee.obj
 0001:0001e700       _GLee_Lazy_glGetMinmax@20  0041f700 f   cinder:GLee.obj
 0001:0001e730       _GLee_Lazy_glDrawRangeElementArrayATI@16 0041f730 f   cinder:GLee.obj
 0001:0001e760       _GLee_Lazy_glGetShaderSourceARB@16 0041f760 f   cinder:GLee.obj
 0001:0001e790       _GLee_Lazy_glGetBufferPointerv@12 0041f790 f   cinder:GLee.obj
 0001:0001e7c0       _GLee_Lazy_glWindowPos4dvMESA@4 0041f7c0 f   cinder:GLee.obj
 0001:0001e7e0       _GLee_Lazy_wglQueryGenlockMaxSourceDelayI3D@12 0041f7e0 f   cinder:GLee.obj
 0001:0001e810       _GLee_Lazy_glFragmentLightfvEXT@12 0041f810 f   cinder:GLee.obj
 0001:0001e840       _GLee_Lazy_glTextureSubImage3DEXT@48 0041f840 f   cinder:GLee.obj
 0001:0001e890       _GLee_Lazy_glAreTexturesResidentEXT@12 0041f890 f   cinder:GLee.obj
 0001:0001e8c0       _GLee_Lazy_glGetUniformuivEXT@12 0041f8c0 f   cinder:GLee.obj
 0001:0001e8f0       _GLee_Lazy_glBinormal3dvEXT@4 0041f8f0 f   cinder:GLee.obj
 0001:0001e910       _GLee_Lazy_glVertexAttribI4i@20 0041f910 f   cinder:GLee.obj
 0001:0001e940       _GLee_Lazy_glNamedProgramLocalParameterI4iEXT@28 0041f940 f   cinder:GLee.obj
 0001:0001e980       _GLee_Lazy_glVertexAttrib1fARB@8 0041f980 f   cinder:GLee.obj
 0001:0001e9b0       _GLee_Lazy_glBlendEquationSeparate@8 0041f9b0 f   cinder:GLee.obj
 0001:0001e9e0       _GLee_Lazy_glGetMinmaxParameterfv@12 0041f9e0 f   cinder:GLee.obj
 0001:0001ea10       _GLee_Lazy_glBindAttribLocationARB@12 0041fa10 f   cinder:GLee.obj
 0001:0001ea40       _GLee_Lazy_glDrawMeshArraysSUN@16 0041fa40 f   cinder:GLee.obj
 0001:0001ea70       _GLee_Lazy_glBindTextureEXT@8 0041fa70 f   cinder:GLee.obj
 0001:0001eaa0       _GLee_Lazy_glVertexAttribI1ui@8 0041faa0 f   cinder:GLee.obj
 0001:0001ead0       _GLee_Lazy_glGetFragmentLightivEXT@12 0041fad0 f   cinder:GLee.obj
 0001:0001eb00       _GLee_Lazy_glWindowPos4fMESA@16 0041fb00 f   cinder:GLee.obj
 0001:0001eb50       _GLee_Lazy_glVertexAttrib1fvARB@8 0041fb50 f   cinder:GLee.obj
 0001:0001eb80       _GLee_Lazy_wglCreateImageBufferI3D@12 0041fb80 f   cinder:GLee.obj
 0001:0001ebb0       _GLee_Lazy_glBindFragDataLocationEXT@12 0041fbb0 f   cinder:GLee.obj
 0001:0001ebe0       _GLee_Lazy_glBinormal3fEXT@12 0041fbe0 f   cinder:GLee.obj
 0001:0001ec20       _GLee_Lazy_glDrawBuffers@8 0041fc20 f   cinder:GLee.obj
 0001:0001ec50       _GLee_Lazy_glNamedProgramLocalParameterI4ivEXT@16 0041fc50 f   cinder:GLee.obj
 0001:0001ec80       _GLee_Lazy_glColorFragmentOp1ATI@28 0041fc80 f   cinder:GLee.obj
 0001:0001ecc0       _GLee_Lazy_glWindowPos4fvMESA@4 0041fcc0 f   cinder:GLee.obj
 0001:0001ece0       _GLee_Lazy_glGetMinmaxParameteriv@12 0041fce0 f   cinder:GLee.obj
 0001:0001ed10       _GLee_Lazy_glGenOcclusionQueriesNV@8 0041fd10 f   cinder:GLee.obj
 0001:0001ed40       _GLee_Lazy_glBinormal3fvEXT@4 0041fd40 f   cinder:GLee.obj
 0001:0001ed60       _GLee_Lazy_glDeleteTexturesEXT@8 0041fd60 f   cinder:GLee.obj
 0001:0001ed90       _GLee_Lazy_glVertexAttrib1sARB@8 0041fd90 f   cinder:GLee.obj
 0001:0001edc0       _GLee_Lazy_glGetFragDataLocationEXT@8 0041fdc0 f   cinder:GLee.obj
 0001:0001edf0       _GLee_Lazy_glVertexAttribI2ui@12 0041fdf0 f   cinder:GLee.obj
 0001:0001ee20       _GLee_Lazy_wglDestroyImageBufferI3D@8 0041fe20 f   cinder:GLee.obj
 0001:0001ee50       _GLee_Lazy_glGetFragmentLightfvEXT@12 0041fe50 f   cinder:GLee.obj
 0001:0001ee80       _GLee_Lazy_glDeleteOcclusionQueriesNV@8 0041fe80 f   cinder:GLee.obj
 0001:0001eeb0       _GLee_Lazy_glGenTexturesEXT@8 0041feb0 f   cinder:GLee.obj
 0001:0001eee0       _GLee_Lazy_glStencilOpSeparate@16 0041fee0 f   cinder:GLee.obj
 0001:0001ef10       _GLee_Lazy_glCopyTextureSubImage3DEXT@40 0041ff10 f   cinder:GLee.obj
 0001:0001ef60       _GLee_Lazy_glGetActiveAttribARB@28 0041ff60 f   cinder:GLee.obj
 0001:0001efa0       _GLee_Lazy_glVertexAttrib1svARB@8 0041ffa0 f   cinder:GLee.obj
 0001:0001efd0       _GLee_Lazy_glBinormal3iEXT@12 0041ffd0 f   cinder:GLee.obj
 0001:0001f000       _GLee_Lazy_glUniform1uiEXT@8 00420000 f   cinder:GLee.obj
 0001:0001f030       _GLee_Lazy_glWindowPos4iMESA@16 00420030 f   cinder:GLee.obj
 0001:0001f060       _GLee_Lazy_glHistogram@16  00420060 f   cinder:GLee.obj
 0001:0001f090       _GLee_Lazy_glNamedProgramLocalParametersI4ivEXT@20 00420090 f   cinder:GLee.obj
 0001:0001f0c0       _GLee_Lazy_glFragmentMaterialfEXT@12 004200c0 f   cinder:GLee.obj
 0001:0001f0f0       _GLee_Lazy_glIsOcclusionQueryNV@4 004200f0 f   cinder:GLee.obj
 0001:0001f120       _GLee_Lazy_glIsTextureEXT@4 00420120 f   cinder:GLee.obj
 0001:0001f150       _GLee_Lazy_glVertexAttribI3ui@16 00420150 f   cinder:GLee.obj
 0001:0001f180       _GLeeEnabled               00420180 f   cinder:GLee.obj
 0001:0001f1a0       _GLeeInit                  004201a0 f   cinder:GLee.obj
 0001:00022440       ___GLeeCheckExtension      00423440 f   cinder:GLee.obj
 0001:000224e0       ___GLeeExtList_add         004234e0 f   cinder:GLee.obj
 0001:00022610       ___GLeeExtList_clean       00423610 f   cinder:GLee.obj
 0001:000226b0       ___GLeeExtList_init        004236b0 f   cinder:GLee.obj
 0001:000226e0       ___GLeeGetExtStrPlat       004236e0 f   cinder:GLee.obj
 0001:00022720       ___GLeeGetExtensions       00423720 f   cinder:GLee.obj
 0001:00022a10       ___GLeeGetProcAddress      00423a10 f   cinder:GLee.obj
 0001:00022a20       ___GLeeGetVersionNumber    00423a20 f   cinder:GLee.obj
 0001:00022a60       ___GLeeLink_GL_3DFX_tbuffer 00423a60 f   cinder:GLee.obj
 0001:00022ab0       ___GLeeLink_GL_APPLE_element_array 00423ab0 f   cinder:GLee.obj
 0001:00022b90       ___GLeeLink_GL_APPLE_fence 00423b90 f   cinder:GLee.obj
 0001:00022ce0       ___GLeeLink_GL_APPLE_flush_buffer_range 00423ce0 f   cinder:GLee.obj
 0001:00022d60       ___GLeeLink_GL_APPLE_vertex_array_object 00423d60 f   cinder:GLee.obj
 0001:00022e20       ___GLeeLink_GL_APPLE_vertex_array_range 00423e20 f   cinder:GLee.obj
 0001:00022ec0       ___GLeeLink_GL_ARB_color_buffer_float 00423ec0 f   cinder:GLee.obj
 0001:00022f10       ___GLeeLink_GL_ARB_draw_buffers 00423f10 f   cinder:GLee.obj
 0001:00022f60       ___GLeeLink_GL_ARB_draw_instanced 00423f60 f   cinder:GLee.obj
 0001:00022fe0       ___GLeeLink_GL_ARB_framebuffer_object 00423fe0 f   cinder:GLee.obj
 0001:000232e0       ___GLeeLink_GL_ARB_geometry_shader4 004242e0 f   cinder:GLee.obj
 0001:000233a0       ___GLeeLink_GL_ARB_instanced_arrays 004243a0 f   cinder:GLee.obj
 0001:000233f0       ___GLeeLink_GL_ARB_map_buffer_range 004243f0 f   cinder:GLee.obj
 0001:00023470       ___GLeeLink_GL_ARB_matrix_palette 00424470 f   cinder:GLee.obj
 0001:00023550       ___GLeeLink_GL_ARB_multisample 00424550 f   cinder:GLee.obj
 0001:000235a0       ___GLeeLink_GL_ARB_multitexture 004245a0 f   cinder:GLee.obj
 0001:00023aa0       ___GLeeLink_GL_ARB_occlusion_query 00424aa0 f   cinder:GLee.obj
 0001:00023bf0       ___GLeeLink_GL_ARB_point_parameters 00424bf0 f   cinder:GLee.obj
 0001:00023c70       ___GLeeLink_GL_ARB_shader_objects 00424c70 f   cinder:GLee.obj
 0001:00024220       ___GLeeLink_GL_ARB_texture_buffer_object 00425220 f   cinder:GLee.obj
 0001:00024270       ___GLeeLink_GL_ARB_texture_compression 00425270 f   cinder:GLee.obj
 0001:000243a0       ___GLeeLink_GL_ARB_transpose_matrix 004253a0 f   cinder:GLee.obj
 0001:00024460       ___GLeeLink_GL_ARB_vertex_array_object 00425460 f   cinder:GLee.obj
 0001:00024520       ___GLeeLink_GL_ARB_vertex_blend 00425520 f   cinder:GLee.obj
 0001:000246c0       ___GLeeLink_GL_ARB_vertex_buffer_object 004256c0 f   cinder:GLee.obj
 0001:00024880       ___GLeeLink_GL_ARB_vertex_program 00425880 f   cinder:GLee.obj
 0001:00025170       ___GLeeLink_GL_ARB_vertex_shader 00426170 f   cinder:GLee.obj
 0001:00025210       ___GLeeLink_GL_ARB_window_pos 00426210 f   cinder:GLee.obj
 0001:00025480       ___GLeeLink_GL_ATI_draw_buffers 00426480 f   cinder:GLee.obj
 0001:000254d0       ___GLeeLink_GL_ATI_element_array 004264d0 f   cinder:GLee.obj
 0001:00025570       ___GLeeLink_GL_ATI_envmap_bumpmap 00426570 f   cinder:GLee.obj
 0001:00025630       ___GLeeLink_GL_ATI_fragment_shader 00426630 f   cinder:GLee.obj
 0001:00025860       ___GLeeLink_GL_ATI_map_object_buffer 00426860 f   cinder:GLee.obj
 0001:000258e0       ___GLeeLink_GL_ATI_pn_triangles 004268e0 f   cinder:GLee.obj
 0001:00025960       ___GLeeLink_GL_ATI_separate_stencil 00426960 f   cinder:GLee.obj
 0001:000259e0       ___GLeeLink_GL_ATI_vertex_array_object 004269e0 f   cinder:GLee.obj
 0001:00025bc0       ___GLeeLink_GL_ATI_vertex_attrib_array_object 00426bc0 f   cinder:GLee.obj
 0001:00025c60       ___GLeeLink_GL_ATI_vertex_streams 00426c60 f   cinder:GLee.obj
 0001:000262e0       ___GLeeLink_GL_EXT_bindable_uniform 004272e0 f   cinder:GLee.obj
 0001:00026380       ___GLeeLink_GL_EXT_blend_color 00427380 f   cinder:GLee.obj
 0001:000263d0       ___GLeeLink_GL_EXT_blend_equation_separate 004273d0 f   cinder:GLee.obj
 0001:00026420       ___GLeeLink_GL_EXT_blend_func_separate 00427420 f   cinder:GLee.obj
 0001:00026470       ___GLeeLink_GL_EXT_blend_minmax 00427470 f   cinder:GLee.obj
 0001:000264c0       ___GLeeLink_GL_EXT_color_subtable 004274c0 f   cinder:GLee.obj
 0001:00026540       ___GLeeLink_GL_EXT_compiled_vertex_array 00427540 f   cinder:GLee.obj
 0001:000265c0       ___GLeeLink_GL_EXT_convolution 004275c0 f   cinder:GLee.obj
 0001:000267c0       ___GLeeLink_GL_EXT_coordinate_frame 004277c0 f   cinder:GLee.obj
 0001:00026b10       ___GLeeLink_GL_EXT_copy_texture 00427b10 f   cinder:GLee.obj
 0001:00026bf0       ___GLeeLink_GL_EXT_cull_vertex 00427bf0 f   cinder:GLee.obj
 0001:00026c70       ___GLeeLink_GL_EXT_depth_bounds_test 00427c70 f   cinder:GLee.obj
 0001:00026cc0       ___GLeeLink_GL_EXT_direct_state_access 00427cc0 f   cinder:GLee.obj
 0001:00028720       ___GLeeLink_GL_EXT_draw_buffers2 00429720 f   cinder:GLee.obj
 0001:00028830       ___GLeeLink_GL_EXT_draw_instanced 00429830 f   cinder:GLee.obj
 0001:000288b0       ___GLeeLink_GL_EXT_draw_range_elements 004298b0 f   cinder:GLee.obj
 0001:00028900       ___GLeeLink_GL_EXT_fog_coord 00429900 f   cinder:GLee.obj
 0001:000289e0       ___GLeeLink_GL_EXT_fragment_lighting 004299e0 f   cinder:GLee.obj
 0001:00028ca0       ___GLeeLink_GL_EXT_framebuffer_blit 00429ca0 f   cinder:GLee.obj
 0001:00028cf0       ___GLeeLink_GL_EXT_framebuffer_multisample 00429cf0 f   cinder:GLee.obj
 0001:00028d40       ___GLeeLink_GL_EXT_framebuffer_object 00429d40 f   cinder:GLee.obj
 0001:00028fd0       ___GLeeLink_GL_EXT_geometry_shader4 00429fd0 f   cinder:GLee.obj
 0001:00029090       ___GLeeLink_GL_EXT_gpu_program_parameters 0042a090 f   cinder:GLee.obj
 0001:00029110       ___GLeeLink_GL_EXT_gpu_shader4 0042a110 f   cinder:GLee.obj
 0001:000292d0       ___GLeeLink_GL_EXT_histogram 0042a2d0 f   cinder:GLee.obj
 0001:00029470       ___GLeeLink_GL_EXT_index_func 0042a470 f   cinder:GLee.obj
 0001:000294c0       ___GLeeLink_GL_EXT_index_material 0042a4c0 f   cinder:GLee.obj
 0001:00029510       ___GLeeLink_GL_EXT_light_texture 0042a510 f   cinder:GLee.obj
 0001:000295b0       ___GLeeLink_GL_EXT_multi_draw_arrays 0042a5b0 f   cinder:GLee.obj
 0001:00029630       ___GLeeLink_GL_EXT_multisample 0042a630 f   cinder:GLee.obj
 0001:000296b0       ___GLeeLink_GL_EXT_paletted_texture 0042a6b0 f   cinder:GLee.obj
 0001:000296e0       ___GLeeLink_GL_EXT_pixel_transform 0042a6e0 f   cinder:GLee.obj
 0001:000297a0       ___GLeeLink_GL_EXT_point_parameters 0042a7a0 f   cinder:GLee.obj
 0001:00029820       ___GLeeLink_GL_EXT_polygon_offset 0042a820 f   cinder:GLee.obj
 0001:00029870       ___GLeeLink_GL_EXT_scene_marker 0042a870 f   cinder:GLee.obj
 0001:000298f0       ___GLeeLink_GL_EXT_secondary_color 0042a8f0 f   cinder:GLee.obj
 0001:00029b80       ___GLeeLink_GL_EXT_stencil_clear_tag 0042ab80 f   cinder:GLee.obj
 0001:00029bd0       ___GLeeLink_GL_EXT_stencil_two_side 0042abd0 f   cinder:GLee.obj
 0001:00029c20       ___GLeeLink_GL_EXT_subtexture 0042ac20 f   cinder:GLee.obj
 0001:00029ca0       ___GLeeLink_GL_EXT_texture3D 0042aca0 f   cinder:GLee.obj
 0001:00029d20       ___GLeeLink_GL_EXT_texture_buffer_object 0042ad20 f   cinder:GLee.obj
 0001:00029d70       ___GLeeLink_GL_EXT_texture_integer 0042ad70 f   cinder:GLee.obj
 0001:00029e80       ___GLeeLink_GL_EXT_texture_object 0042ae80 f   cinder:GLee.obj
 0001:00029f90       ___GLeeLink_GL_EXT_texture_perturb_normal 0042af90 f   cinder:GLee.obj
 0001:00029fe0       ___GLeeLink_GL_EXT_timer_query 0042afe0 f   cinder:GLee.obj
 0001:0002a060       ___GLeeLink_GL_EXT_transform_feedback 0042b060 f   cinder:GLee.obj
 0001:0002a190       ___GLeeLink_GL_EXT_vertex_array 0042b190 f   cinder:GLee.obj
 0001:0002a1c0       ___GLeeLink_GL_EXT_vertex_shader 0042b1c0 f   cinder:GLee.obj
 0001:0002a7e0       ___GLeeLink_GL_EXT_vertex_weighting 0042b7e0 f   cinder:GLee.obj
 0001:0002a880       ___GLeeLink_GL_GREMEDY_frame_terminator 0042b880 f   cinder:GLee.obj
 0001:0002a8d0       ___GLeeLink_GL_GREMEDY_string_marker 0042b8d0 f   cinder:GLee.obj
 0001:0002a920       ___GLeeLink_GL_HP_image_transform 0042b920 f   cinder:GLee.obj
 0001:0002aa30       ___GLeeLink_GL_IBM_multimode_draw_arrays 0042ba30 f   cinder:GLee.obj
 0001:0002aab0       ___GLeeLink_GL_IBM_vertex_array_lists 0042bab0 f   cinder:GLee.obj
 0001:0002ac00       ___GLeeLink_GL_INGR_blend_func_separate 0042bc00 f   cinder:GLee.obj
 0001:0002ac50       ___GLeeLink_GL_INTEL_parallel_arrays 0042bc50 f   cinder:GLee.obj
 0001:0002ad10       ___GLeeLink_GL_MESA_resize_buffers 0042bd10 f   cinder:GLee.obj
 0001:0002ad60       ___GLeeLink_GL_MESA_window_pos 0042bd60 f   cinder:GLee.obj
 0001:0002b0f0       ___GLeeLink_GL_NV_conditional_render 0042c0f0 f   cinder:GLee.obj
 0001:0002b170       ___GLeeLink_GL_NV_depth_buffer_float 0042c170 f   cinder:GLee.obj
 0001:0002b210       ___GLeeLink_GL_NV_evaluators 0042c210 f   cinder:GLee.obj
 0001:0002b380       ___GLeeLink_GL_NV_explicit_multisample 0042c380 f   cinder:GLee.obj
 0001:0002b420       ___GLeeLink_GL_NV_fence    0042c420 f   cinder:GLee.obj
 0001:0002b550       ___GLeeLink_GL_NV_fragment_program 0042c550 f   cinder:GLee.obj
 0001:0002b660       ___GLeeLink_GL_NV_framebuffer_multisample_coverage 0042c660 f   cinder:GLee.obj
 0001:0002b6b0       ___GLeeLink_GL_NV_gpu_program4 0042c6b0 f   cinder:GLee.obj
 0001:0002bca0       ___GLeeLink_GL_NV_half_float 0042cca0 f   cinder:GLee.obj
 0001:0002c350       ___GLeeLink_GL_NV_occlusion_query 0042d350 f   cinder:GLee.obj
 0001:0002c480       ___GLeeLink_GL_NV_parameter_buffer_object 0042d480 f   cinder:GLee.obj
 0001:0002c520       ___GLeeLink_GL_NV_pixel_data_range 0042d520 f   cinder:GLee.obj
 0001:0002c5a0       ___GLeeLink_GL_NV_point_sprite 0042d5a0 f   cinder:GLee.obj
 0001:0002c620       ___GLeeLink_GL_NV_primitive_restart 0042d620 f   cinder:GLee.obj
 0001:0002c6a0       ___GLeeLink_GL_NV_register_combiners 0042d6a0 f   cinder:GLee.obj
 0001:0002c8a0       ___GLeeLink_GL_NV_register_combiners2 0042d8a0 f   cinder:GLee.obj
 0001:0002c920       ___GLeeLink_GL_NV_transform_feedback 0042d920 f   cinder:GLee.obj
 0001:0002cae0       ___GLeeLink_GL_NV_transform_feedback2 0042dae0 f   cinder:GLee.obj
 0001:0002cc10       ___GLeeLink_GL_NV_vertex_array_range 0042dc10 f   cinder:GLee.obj
 0001:0002cc90       ___GLeeLink_GL_NV_vertex_program 0042dc90 f   cinder:GLee.obj
 0001:0002d5c0       ___GLeeLink_GL_OES_single_precision 0042e5c0 f   cinder:GLee.obj
 0001:0002d6d0       ___GLeeLink_GL_PGI_misc_hints 0042e6d0 f   cinder:GLee.obj
 0001:0002d720       ___GLeeLink_GL_ATI_pixel_format_float 0042e720 f   cinder:GLee.obj
 0001:0002d720       ___GLeeLink_WGL_3DL_stereo_control 0042e720 f   cinder:GLee.obj
 0001:0002d720       ___GLeeLink_GL_EXT_shadow_funcs 0042e720 f   cinder:GLee.obj
 0001:0002d720       ___GLeeLink_GL_APPLE_specular_vector 0042e720 f   cinder:GLee.obj
 0001:0002d720       ___GLeeLink_GL_EXT_texture_compression_rgtc 0042e720 f   cinder:GLee.obj
 0001:0002d720       ___GLeeLink_GL_INTEL_texture_scissor 0042e720 f   cinder:GLee.obj
 0001:0002d720       ___GLeeLink_GL_ARB_half_float_vertex 0042e720 f   cinder:GLee.obj
 0001:0002d720       ___GLeeLink_GL_SGI_color_matrix 0042e720 f   cinder:GLee.obj
 0001:0002d720       ___GLeeLink_GL_EXT_texture_mirror_clamp 0042e720 f   cinder:GLee.obj
 0001:0002d720       ___GLeeLink_WGL_ARB_multisample 0042e720 f   cinder:GLee.obj
 0001:0002d720       ___GLeeLink_GL_SGIX_fog_scale 0042e720 f   cinder:GLee.obj
 0001:0002d720       ___GLeeLink_GL_MESA_pack_invert 0042e720 f   cinder:GLee.obj
 0001:0002d720       ___GLeeLink_GL_SGIX_calligraphic_fragment 0042e720 f   cinder:GLee.obj
 0001:0002d720       ___GLeeLink_GL_EXT_texture_env 0042e720 f   cinder:GLee.obj
 0001:0002d720       ___GLeeLink_GL_ARB_fragment_shader 0042e720 f   cinder:GLee.obj
 0001:0002d720       ___GLeeLink_GL_EXT_packed_pixels 0042e720 f   cinder:GLee.obj
 0001:0002d720       ___GLeeLink_GL_REND_screen_coordinates 0042e720 f   cinder:GLee.obj
 0001:0002d720       ___GLeeLink_GL_EXT_texture_compression_s3tc 0042e720 f   cinder:GLee.obj
 0001:0002d720       ___GLeeLink_GL_NV_float_buffer 0042e720 f   cinder:GLee.obj
 0001:0002d720       ___GLeeLink_GL_MESA_ycbcr_texture 0042e720 f   cinder:GLee.obj
 0001:0002d720       ___GLeeLink_GL_NV_texture_rectangle 0042e720 f   cinder:GLee.obj
 0001:0002d720       ___GLeeLink_GL_EXT_texture_compression_latc 0042e720 f   cinder:GLee.obj
 0001:0002d720       ___GLeeLink_GL_FfdMaskSGIX 0042e720 f   cinder:GLee.obj
 0001:0002d720       ___GLeeLink_GL_OML_subsample 0042e720 f   cinder:GLee.obj
 0001:0002d720       ___GLeeLink_GL_SGIX_resample 0042e720 f   cinder:GLee.obj
 0001:0002d720       ___GLeeLink_GL_NV_geometry_shader4 0042e720 f   cinder:GLee.obj
 0001:0002d720       ___GLeeLink_GL_EXT_texture_swizzle 0042e720 f   cinder:GLee.obj
 0001:0002d720       ___GLeeLink_GL_S3_s3tc     0042e720 f   cinder:GLee.obj
 0001:0002d720       ___GLeeLink_WGL_NV_render_texture_rectangle 0042e720 f   cinder:GLee.obj
 0001:0002d720       ___GLeeLink_GL_SGIX_texture_multi_buffer 0042e720 f   cinder:GLee.obj
 0001:0002d720       ___GLeeLink_GL_ARB_texture_border_clamp 0042e720 f   cinder:GLee.obj
 0001:0002d720       ___GLeeLink_GL_NV_packed_depth_stencil 0042e720 f   cinder:GLee.obj
 0001:0002d720       ___GLeeLink_GL_EXT_cmyka   0042e720 f   cinder:GLee.obj
 0001:0002d720       ___GLeeLink_GL_ARB_half_float_pixel 0042e720 f   cinder:GLee.obj
 0001:0002d720       ___GLeeLink_GL_NV_multisample_filter_hint 0042e720 f   cinder:GLee.obj
 0001:0002d720       ___GLeeLink_GL_ARB_texture_non_power_of_two 0042e720 f   cinder:GLee.obj
 0001:0002d720       ___GLeeLink_GL_SGIX_ycrcb_subsample 0042e720 f   cinder:GLee.obj
 0001:0002d720       ___GLeeLink_GL_EXT_index_array_formats 0042e720 f   cinder:GLee.obj
 0001:0002d720       ___GLeeLink_GL_SGIX_pixel_tiles 0042e720 f   cinder:GLee.obj
 0001:0002d720       ___GLeeLink_GL_EXT_packed_float 0042e720 f   cinder:GLee.obj
 0001:0002d720       ___GLeeLink_GL_EXT_422_pixels 0042e720 f   cinder:GLee.obj
 0001:0002d720       ___GLeeLink_GL_ARB_depth_texture 0042e720 f   cinder:GLee.obj
 0001:0002d720       ___GLeeLink_GL_SGIX_texture_select 0042e720 f   cinder:GLee.obj
 0001:0002d720       ___GLeeLink_WGL_EXT_pixel_format_packed_float 0042e720 f   cinder:GLee.obj
 0001:0002d720       ___GLeeLink_GL_ARB_texture_cube_map 0042e720 f   cinder:GLee.obj
 0001:0002d720       ___GLeeLink_GL_NV_copy_depth_to_color 0042e720 f   cinder:GLee.obj
 0001:0002d720       ___GLeeLink_GL_OML_interlace 0042e720 f   cinder:GLee.obj
 0001:0002d720       ___GLeeLink_WGL_3DFX_multisample 0042e720 f   cinder:GLee.obj
 0001:0002d720       ___GLeeLink_GL_EXT_texture_env_dot3 0042e720 f   cinder:GLee.obj
 0001:0002d720       ___GLeeLink_GL_EXT_separate_specular_color 0042e720 f   cinder:GLee.obj
 0001:0002d720       ___GLeeLink_GL_EXT_index_texture 0042e720 f   cinder:GLee.obj
 0001:0002d720       ___GLeeLink_GL_NV_fragment_program2 0042e720 f   cinder:GLee.obj
 0001:0002d720       ___GLeeLink_GL_OML_resample 0042e720 f   cinder:GLee.obj
 0001:0002d720       ___GLeeLink_GL_SGIX_interlace 0042e720 f   cinder:GLee.obj
 0001:0002d720       ___GLeeLink_GL_SGIS_texture_edge_clamp 0042e720 f   cinder:GLee.obj
 0001:0002d720       ___GLeeLink_GL_SGIX_depth_texture 0042e720 f   cinder:GLee.obj
 0001:0002d720       ___GLeeLink_WGL_EXT_depth_float 0042e720 f   cinder:GLee.obj
 0001:0002d720       ___GLeeLink_GL_SGIX_fog_offset 0042e720 f   cinder:GLee.obj
 0001:0002d720       ___GLeeLink_GL_IBM_cull_vertex 0042e720 f   cinder:GLee.obj
 0001:0002d720       ___GLeeLink_GL_EXT_vertex_array_bgra 0042e720 f   cinder:GLee.obj
 0001:0002d720       ___GLeeLink_GL_SGIX_texture_coordinate_clamp 0042e720 f   cinder:GLee.obj
 0001:0002d720       ___GLeeLink_GL_3DFX_texture_compression_FXT1 0042e720 f   cinder:GLee.obj
 0001:0002d720       ___GLeeLink_GL_SGIX_blend_alpha_minmax 0042e720 f   cinder:GLee.obj
 0001:0002d720       ___GLeeLink_GL_SGIX_depth_pass_instrument 0042e720 f   cinder:GLee.obj
 0001:0002d720       ___GLeeLink_GL_ATI_texture_mirror_once 0042e720 f   cinder:GLee.obj
 0001:0002d720       ___GLeeLink_GL_EXT_texture_sRGB 0042e720 f   cinder:GLee.obj
 0001:0002d720       ___GLeeLink_GL_EXT_texture_array 0042e720 f   cinder:GLee.obj
 0001:0002d720       ___GLeeLink_GL_WIN_specular_fog 0042e720 f   cinder:GLee.obj
 0001:0002d720       ___GLeeLink_GL_EXT_shared_texture_palette 0042e720 f   cinder:GLee.obj
 0001:0002d720       ___GLeeLink_GL_INGR_palette_buffer 0042e720 f   cinder:GLee.obj
 0001:0002d720       ___GLeeLink_GL_NV_fog_distance 0042e720 f   cinder:GLee.obj
 0001:0002d720       ___GLeeLink_GL_OES_read_format 0042e720 f   cinder:GLee.obj
 0001:0002d720       ___GLeeLink_GL_HP_occlusion_test 0042e720 f   cinder:GLee.obj
 0001:0002d720       ___GLeeLink_GL_NV_fragment_program_option 0042e720 f   cinder:GLee.obj
 0001:0002d720       ___GLeeLink_GL_NV_texgen_reflection 0042e720 f   cinder:GLee.obj
 0001:0002d720       ___GLeeLink_GL_EXT_rescale_normal 0042e720 f   cinder:GLee.obj
 0001:0002d720       ___GLeeLink_GL_EXT_misc_attribute 0042e720 f   cinder:GLee.obj
 0001:0002d720       ___GLeeLink_WGL_NV_render_depth_texture 0042e720 f   cinder:GLee.obj
 0001:0002d720       ___GLeeLink_GL_SGI_texture_color_table 0042e720 f   cinder:GLee.obj
 0001:0002d720       ___GLeeLink_GL_HP_texture_lighting 0042e720 f   cinder:GLee.obj
 0001:0002d720       ___GLeeLink_GL_NV_blend_square 0042e720 f   cinder:GLee.obj
 0001:0002d720       ___GLeeLink_GL_SGIX_ycrcb  0042e720 f   cinder:GLee.obj
 0001:0002d720       ___GLeeLink_GL_NV_vertex_program1_1 0042e720 f   cinder:GLee.obj
 0001:0002d720       ___GLeeLink_GL_SGIX_convolution_accuracy 0042e720 f   cinder:GLee.obj
 0001:0002d720       ___GLeeLink_WGL_NV_float_buffer 0042e720 f   cinder:GLee.obj
 0001:0002d720       ___GLeeLink_GL_IBM_rasterpos_clip 0042e720 f   cinder:GLee.obj
 0001:0002d720       ___GLeeLink_GL_EXT_framebuffer_sRGB 0042e720 f   cinder:GLee.obj
 0001:0002d720       ___GLeeLink_GL_SGIX_texture_scale_bias 0042e720 f   cinder:GLee.obj
 0001:0002d720       ___GLeeLink_GL_NV_vertex_array_range2 0042e720 f   cinder:GLee.obj
 0001:0002d720       ___GLeeLink_GL_ARB_texture_compression_rgtc 0042e720 f   cinder:GLee.obj
 0001:0002d720       ___GLeeLink_GL_ARB_shadow  0042e720 f   cinder:GLee.obj
 0001:0002d720       ___GLeeLink_GL_SGIX_impact_pixel_texture 0042e720 f   cinder:GLee.obj
 0001:0002d720       ___GLeeLink_GL_EXT_bgra    0042e720 f   cinder:GLee.obj
 0001:0002d720       ___GLeeLink_GL_OES_compressed_paletted_texture 0042e720 f   cinder:GLee.obj
 0001:0002d720       ___GLeeLink_GL_EXT_pixel_buffer_object 0042e720 f   cinder:GLee.obj
 0001:0002d720       ___GLeeLink_GL_APPLE_ycbcr_422 0042e720 f   cinder:GLee.obj
 0001:0002d720       ___GLeeLink_GL_EXT_texture_env_add 0042e720 f   cinder:GLee.obj
 0001:0002d720       ___GLeeLink_GL_ARB_texture_env_combine 0042e720 f   cinder:GLee.obj
 0001:0002d720       ___GLeeLink_GL_NV_texture_shader2 0042e720 f   cinder:GLee.obj
 0001:0002d720       ___GLeeLink_GL_EXT_packed_depth_stencil 0042e720 f   cinder:GLee.obj
 0001:0002d720       ___GLeeLink_GL_ARB_texture_env_add 0042e720 f   cinder:GLee.obj
 0001:0002d720       ___GLeeLink_GL_IBM_texture_mirrored_repeat 0042e720 f   cinder:GLee.obj
 0001:0002d720       ___GLeeLink_GL_INGR_color_clamp 0042e720 f   cinder:GLee.obj
 0001:0002d720       ___GLeeLink_GL_NV_texture_shader3 0042e720 f   cinder:GLee.obj
 0001:0002d720       ___GLeeLink_GL_ARB_texture_env_crossbar 0042e720 f   cinder:GLee.obj
 0001:0002d720       ___GLeeLink_GL_SGIX_vertex_preclip 0042e720 f   cinder:GLee.obj
 0001:0002d720       ___GLeeLink_GL_SUN_convolution_border_modes 0042e720 f   cinder:GLee.obj
 0001:0002d720       ___GLeeLink_GL_OES_byte_coordinates 0042e720 f   cinder:GLee.obj
 0001:0002d720       ___GLeeLink_GL_ARB_point_sprite 0042e720 f   cinder:GLee.obj
 0001:0002d720       ___GLeeLink_GL_SGIS_generate_mipmap 0042e720 f   cinder:GLee.obj
 0001:0002d720       ___GLeeLink_WGL_ATI_pixel_format_float 0042e720 f   cinder:GLee.obj
 0001:0002d720       ___GLeeLink_GL_NV_texture_expand_normal 0042e720 f   cinder:GLee.obj
 0001:0002d720       ___GLeeLink_WGL_ARB_pixel_format_float 0042e720 f   cinder:GLee.obj
 0001:0002d720       ___GLeeLink_GL_HP_convolution_border_modes 0042e720 f   cinder:GLee.obj
 0001:0002d720       ___GLeeLink_GL_SGIX_async_pixel 0042e720 f   cinder:GLee.obj
 0001:0002d720       ___GLeeLink_GL_NV_vertex_program3 0042e720 f   cinder:GLee.obj
 0001:0002d720       ___GLeeLink_GL_ARB_depth_buffer_float 0042e720 f   cinder:GLee.obj
 0001:0002d720       ___GLeeLink_GL_ARB_shading_language_100 0042e720 f   cinder:GLee.obj
 0001:0002d720       ___GLeeLink_GL_SGIX_shadow_ambient 0042e720 f   cinder:GLee.obj
 0001:0002d720       ___GLeeLink_GL_APPLE_transform_hint 0042e720 f   cinder:GLee.obj
 0001:0002d720       ___GLeeLink_GL_SGIX_ir_instrument1 0042e720 f   cinder:GLee.obj
 0001:0002d720       ___GLeeLink_WGL_EXT_multisample 0042e720 f   cinder:GLee.obj
 0001:0002d720       ___GLeeLink_GL_SGIX_shadow 0042e720 f   cinder:GLee.obj
 0001:0002d720       ___GLeeLink_GL_NV_texture_shader 0042e720 f   cinder:GLee.obj
 0001:0002d720       ___GLeeLink_GL_NV_texture_env_combine4 0042e720 f   cinder:GLee.obj
 0001:0002d720       ___GLeeLink_GL_SGIX_texture_range 0042e720 f   cinder:GLee.obj
 0001:0002d720       ___GLeeLink_GL_NV_present_video 0042e720 f   cinder:GLee.obj
 0001:0002d720       ___GLeeLink_GL_SGIX_pixel_texture_bits 0042e720 f   cinder:GLee.obj
 0001:0002d720       ___GLeeLink_GL_ARB_texture_rg 0042e720 f   cinder:GLee.obj
 0001:0002d720       ___GLeeLink_GL_ATI_text_fragment_shader 0042e720 f   cinder:GLee.obj
 0001:0002d720       ___GLeeLink_GL_MESAX_texture_stack 0042e720 f   cinder:GLee.obj
 0001:0002d720       ___GLeeLink_GL_EXT_blend_logic_op 0042e720 f   cinder:GLee.obj
 0001:0002d720       ___GLeeLink_GL_APPLE_client_storage 0042e720 f   cinder:GLee.obj
 0001:0002d720       ___GLeeLink_GL_NV_vertex_program2_option 0042e720 f   cinder:GLee.obj
 0001:0002d720       ___GLeeLink_GL_NV_texgen_emboss 0042e720 f   cinder:GLee.obj
 0001:0002d720       ___GLeeLink_GL_INGR_interlace_read 0042e720 f   cinder:GLee.obj
 0001:0002d720       ___GLeeLink_GL_EXT_texture_cube_map 0042e720 f   cinder:GLee.obj
 0001:0002d720       ___GLeeLink_GL_ARB_texture_env_dot3 0042e720 f   cinder:GLee.obj
 0001:0002d720       ___GLeeLink_GL_ATI_texture_float 0042e720 f   cinder:GLee.obj
 0001:0002d720       ___GLeeLink_GL_SGIX_async_histogram 0042e720 f   cinder:GLee.obj
 0001:0002d720       ___GLeeLink_GL_ARB_texture_mirrored_repeat 0042e720 f   cinder:GLee.obj
 0001:0002d720       ___GLeeLink_GL_EXT_texture_shared_exponent 0042e720 f   cinder:GLee.obj
 0001:0002d720       ___GLeeLink_GL_EXT_blend_subtract 0042e720 f   cinder:GLee.obj
 0001:0002d720       ___GLeeLink_GL_EXT_abgr    0042e720 f   cinder:GLee.obj
 0001:0002d720       ___GLeeLink_GL_EXT_pixel_transform_color_table 0042e720 f   cinder:GLee.obj
 0001:0002d720       ___GLeeLink_GL_SUN_slice_accum 0042e720 f   cinder:GLee.obj
 0001:0002d720       ___GLeeLink_GL_NV_vertex_program2 0042e720 f   cinder:GLee.obj
 0001:0002d720       ___GLeeLink_GL_ARB_framebuffer_sRGB 0042e720 f   cinder:GLee.obj
 0001:0002d720       ___GLeeLink_GL_SGI_depth_pass_instrument 0042e720 f   cinder:GLee.obj
 0001:0002d720       ___GLeeLink_GL_3DFX_multisample 0042e720 f   cinder:GLee.obj
 0001:0002d720       ___GLeeLink_GL_EXT_stencil_wrap 0042e720 f   cinder:GLee.obj
 0001:0002d720       ___GLeeLink_GL_SGIX_clipmap 0042e720 f   cinder:GLee.obj
 0001:0002d720       ___GLeeLink_GL_EXT_texture_filter_anisotropic 0042e720 f   cinder:GLee.obj
 0001:0002d720       ___GLeeLink_GL_SGIX_texture_add_env 0042e720 f   cinder:GLee.obj
 0001:0002d720       ___GLeeLink_GL_PGI_vertex_hints 0042e720 f   cinder:GLee.obj
 0001:0002d720       ___GLeeLink_GL_SGIX_scalebias_hint 0042e720 f   cinder:GLee.obj
 0001:0002d720       ___GLeeLink_GL_NV_depth_clamp 0042e720 f   cinder:GLee.obj
 0001:0002d720       ___GLeeLink_GL_ATI_texture_env_combine3 0042e720 f   cinder:GLee.obj
 0001:0002d720       ___GLeeLink_GL_EXT_texture_lod_bias 0042e720 f   cinder:GLee.obj
 0001:0002d720       ___GLeeLink_GL_NV_light_max_exponent 0042e720 f   cinder:GLee.obj
 0001:0002d720       ___GLeeLink_GL_NV_texture_compression_vtc 0042e720 f   cinder:GLee.obj
 0001:0002d720       ___GLeeLink_GL_ARB_texture_rectangle 0042e720 f   cinder:GLee.obj
 0001:0002d720       ___GLeeLink_GL_EXT_clip_volume_hint 0042e720 f   cinder:GLee.obj
 0001:0002d720       ___GLeeLink_GL_SGIX_texture_lod_bias 0042e720 f   cinder:GLee.obj
 0001:0002d720       ___GLeeLink_GL_EXT_texture 0042e720 f   cinder:GLee.obj
 0001:0002d720       ___GLeeLink_WGL_EXT_framebuffer_sRGB 0042e720 f   cinder:GLee.obj
 0001:0002d720       ___GLeeLink_GL_ARB_texture_float 0042e720 f   cinder:GLee.obj
 0001:0002d720       ___GLeeLink_GL_ARB_shadow_ambient 0042e720 f   cinder:GLee.obj
 0001:0002d720       ___GLeeLink_GL_SGIX_ycrcba 0042e720 f   cinder:GLee.obj
 0001:0002d720       ___GLeeLink_GL_SGIX_subsample 0042e720 f   cinder:GLee.obj
 0001:0002d720       ___GLeeLink_GL_ARB_imaging 0042e720 f   cinder:GLee.obj
 0001:0002d720       ___GLeeLink_GL_EXT_texture_env_combine 0042e720 f   cinder:GLee.obj
 0001:0002d720       ___GLeeLink_GL_ARB_fragment_program_shadow 0042e720 f   cinder:GLee.obj
 0001:0002d720       ___GLeeLink_GL_ARB_pixel_buffer_object 0042e720 f   cinder:GLee.obj
 0001:0002d720       ___GLeeLink_GL_EXT_texture_compression_dxt1 0042e720 f   cinder:GLee.obj
 0001:0002d720       ___GLeeLink_GL_SGIS_texture_lod 0042e720 f   cinder:GLee.obj
 0001:0002d720       ___GLeeLink_GL_ARB_fragment_program 0042e720 f   cinder:GLee.obj
 0001:0002d720       ___GLeeLink_GL_SGIS_texture_border_clamp 0042e720 f   cinder:GLee.obj
 0001:0002d720       ___GLeeLink_GL_SGIS_texture_select 0042e720 f   cinder:GLee.obj
 0001:0002d720       ___GLeeLink_GL_WIN_phong_shading 0042e720 f   cinder:GLee.obj
 0001:0002d720       ___GLeeLink_GL_IBM_static_data 0042e720 f   cinder:GLee.obj
 0001:0002d720       ___GLeeLink_GL_SGIS_point_line_texgen 0042e720 f   cinder:GLee.obj
 0001:0002d730       ___GLeeLink_GL_SGIS_detail_texture 0042e730 f   cinder:GLee.obj
 0001:0002d7b0       ___GLeeLink_GL_SGIS_fog_function 0042e7b0 f   cinder:GLee.obj
 0001:0002d830       ___GLeeLink_GL_SGIS_multisample 0042e830 f   cinder:GLee.obj
 0001:0002d8b0       ___GLeeLink_GL_SGIS_pixel_texture 0042e8b0 f   cinder:GLee.obj
 0001:0002d9c0       ___GLeeLink_GL_SGIS_point_parameters 0042e9c0 f   cinder:GLee.obj
 0001:0002da40       ___GLeeLink_GL_SGIS_sharpen_texture 0042ea40 f   cinder:GLee.obj
 0001:0002dac0       ___GLeeLink_GL_SGIS_texture4D 0042eac0 f   cinder:GLee.obj
 0001:0002db40       ___GLeeLink_GL_SGIS_texture_color_mask 0042eb40 f   cinder:GLee.obj
 0001:0002db90       ___GLeeLink_GL_SGIS_texture_filter4 0042eb90 f   cinder:GLee.obj
 0001:0002dc10       ___GLeeLink_GL_SGIX_async  0042ec10 f   cinder:GLee.obj
 0001:0002dd20       ___GLeeLink_GL_SGIX_flush_raster 0042ed20 f   cinder:GLee.obj
 0001:0002dd70       ___GLeeLink_GL_SGIX_fragment_lighting 0042ed70 f   cinder:GLee.obj
 0001:0002e030       ___GLeeLink_GL_SGIX_framezoom 0042f030 f   cinder:GLee.obj
 0001:0002e080       ___GLeeLink_GL_SGIX_igloo_interface 0042f080 f   cinder:GLee.obj
 0001:0002e0d0       ___GLeeLink_GL_SGIX_instruments 0042f0d0 f   cinder:GLee.obj
 0001:0002e1e0       ___GLeeLink_GL_SGIX_list_priority 0042f1e0 f   cinder:GLee.obj
 0001:0002e2f0       ___GLeeLink_GL_SGIX_pixel_texture 0042f2f0 f   cinder:GLee.obj
 0001:0002e340       ___GLeeLink_GL_SGIX_polynomial_ffd 0042f340 f   cinder:GLee.obj
 0001:0002e400       ___GLeeLink_GL_SGIX_reference_plane 0042f400 f   cinder:GLee.obj
 0001:0002e450       ___GLeeLink_GL_SGIX_sprite 0042f450 f   cinder:GLee.obj
 0001:0002e510       ___GLeeLink_GL_SGIX_tag_sample_buffer 0042f510 f   cinder:GLee.obj
 0001:0002e560       ___GLeeLink_GL_SGI_color_table 0042f560 f   cinder:GLee.obj
 0001:0002e690       ___GLeeLink_GL_SUNX_constant_data 0042f690 f   cinder:GLee.obj
 0001:0002e6e0       ___GLeeLink_GL_SUN_global_alpha 0042f6e0 f   cinder:GLee.obj
 0001:0002e830       ___GLeeLink_GL_SUN_mesh_array 0042f830 f   cinder:GLee.obj
 0001:0002e880       ___GLeeLink_GL_SUN_triangle_list 0042f880 f   cinder:GLee.obj
 0001:0002e9b0       ___GLeeLink_GL_SUN_vertex  0042f9b0 f   cinder:GLee.obj
 0001:0002ef80       ___GLeeLink_GL_VERSION_1_2 0042ff80 f   cinder:GLee.obj
 0001:0002f510       ___GLeeLink_GL_VERSION_1_3 00430510 f   cinder:GLee.obj
 0001:0002fbc0       ___GLeeLink_GL_VERSION_1_4 00430bc0 f   cinder:GLee.obj
 0001:00030240       ___GLeeLink_GL_VERSION_1_5 00431240 f   cinder:GLee.obj
 0001:00030520       ___GLeeLink_GL_VERSION_2_0 00431520 f   cinder:GLee.obj
 0001:00031260       ___GLeeLink_GL_VERSION_2_1 00432260 f   cinder:GLee.obj
 0001:00031370       ___GLeeLink_GL_VERSION_3_0 00432370 f   cinder:GLee.obj
 0001:00031bd0       ___GLeeLink_WGL_ARB_buffer_region 00432bd0 f   cinder:GLee.obj
 0001:00031c90       ___GLeeLink_WGL_ARB_create_context 00432c90 f   cinder:GLee.obj
 0001:00031ce0       ___GLeeLink_WGL_ARB_extensions_string 00432ce0 f   cinder:GLee.obj
 0001:00031d30       ___GLeeLink_WGL_ARB_make_current_read 00432d30 f   cinder:GLee.obj
 0001:00031db0       ___GLeeLink_WGL_ARB_pbuffer 00432db0 f   cinder:GLee.obj
 0001:00031e90       ___GLeeLink_WGL_ARB_pixel_format 00432e90 f   cinder:GLee.obj
 0001:00031f30       ___GLeeLink_WGL_ARB_render_texture 00432f30 f   cinder:GLee.obj
 0001:00031fd0       ___GLeeLink_WGL_EXT_display_color_table 00432fd0 f   cinder:GLee.obj
 0001:00032090       ___GLeeLink_WGL_EXT_extensions_string 00433090 f   cinder:GLee.obj
 0001:000320e0       ___GLeeLink_WGL_EXT_make_current_read 004330e0 f   cinder:GLee.obj
 0001:00032160       ___GLeeLink_WGL_EXT_pbuffer 00433160 f   cinder:GLee.obj
 0001:00032240       ___GLeeLink_WGL_EXT_pixel_format 00433240 f   cinder:GLee.obj
 0001:000322e0       ___GLeeLink_WGL_EXT_swap_control 004332e0 f   cinder:GLee.obj
 0001:00032360       ___GLeeLink_WGL_I3D_digital_video_control 00433360 f   cinder:GLee.obj
 0001:000323e0       ___GLeeLink_WGL_I3D_gamma  004333e0 f   cinder:GLee.obj
 0001:000324a0       ___GLeeLink_WGL_I3D_genlock 004334a0 f   cinder:GLee.obj
 0001:00032680       ___GLeeLink_WGL_I3D_image_buffer 00433680 f   cinder:GLee.obj
 0001:00032740       ___GLeeLink_WGL_I3D_swap_frame_lock 00433740 f   cinder:GLee.obj
 0001:00032800       ___GLeeLink_WGL_I3D_swap_frame_usage 00433800 f   cinder:GLee.obj
 0001:000328c0       ___GLeeLink_WGL_NV_gpu_affinity 004338c0 f   cinder:GLee.obj
 0001:000329a0       ___GLeeLink_WGL_NV_present_video 004339a0 f   cinder:GLee.obj
 0001:00032a40       ___GLeeLink_WGL_NV_swap_group 00433a40 f   cinder:GLee.obj
 0001:00032b50       ___GLeeLink_WGL_NV_vertex_array_range 00433b50 f   cinder:GLee.obj
 0001:00032bd0       ___GLeeLink_WGL_NV_video_output 00433bd0 f   cinder:GLee.obj
 0001:00032ce0       ___GLeeLink_WGL_OML_sync_control 00433ce0 f   cinder:GLee.obj
 0001:00032df0       ___GLeeWriteError          00433df0 f   cinder:GLee.obj
 0001:00032e60       ??6cinder@@YAAAV?$basic_ostream@DU?$char_traits@D@std@@@std@@AAV12@ABV?$ColorT@M@0@@Z 00433e60 f   cinder:Color.obj
 0001:00032ee0       ??0?$RectT@M@cinder@@QAE@ABVArea@1@@Z 00433ee0 f i cinder:Rect.obj
 0001:00032f30       ?offset@?$RectT@M@cinder@@QAEXABV?$Vec2@M@2@@Z 00433f30 f i cinder:Rect.obj
 0001:00032f80       ?scale@?$RectT@M@cinder@@QAEXM@Z 00433f80 f i cinder:Rect.obj
 0001:00032fd0       ?scaled@?$RectT@M@cinder@@QBE?AV12@M@Z 00433fd0 f i cinder:Rect.obj
 0001:00033020       ?set@?$RectT@M@cinder@@QAEXMMMM@Z 00434020 f i cinder:Rect.obj
 0001:00033050       ??$_Resetp@VRendererGl@app@cinder@@@?$shared_ptr@VRendererGl@app@cinder@@@std@@AAEXPAVRendererGl@app@cinder@@@Z 00434050 f i cinder:Renderer.obj
 0001:00033120       ??0RendererGl@app@cinder@@QAE@H@Z 00434120 f   cinder:Renderer.obj
 0001:00033150       ??_GRenderer@app@cinder@@UAEPAXI@Z 00434150 f i cinder:Renderer.obj
 0001:00033150       ??_ERenderer@app@cinder@@UAEPAXI@Z 00434150 f i cinder:Renderer.obj
 0001:00033180       ??_GRendererGl@app@cinder@@UAEPAXI@Z 00434180 f i cinder:Renderer.obj
 0001:00033180       ??_ERendererGl@app@cinder@@UAEPAXI@Z 00434180 f i cinder:Renderer.obj
 0001:000331c0       ?clone@RendererGl@app@cinder@@UBE?AV?$shared_ptr@VRenderer@app@cinder@@@std@@XZ 004341c0 f i cinder:Renderer.obj
 0001:00033240       ?copyWindowSurface@RendererGl@app@cinder@@UAE?AV?$SurfaceT@E@3@ABVArea@3@@Z 00434240 f   cinder:Renderer.obj
 0001:00033400       ?defaultResize@RendererGl@app@cinder@@UAEXXZ 00434400 f   cinder:Renderer.obj
 0001:00033410       ?finishDraw@RendererGl@app@cinder@@UAEXXZ 00434410 f   cinder:Renderer.obj
 0001:00033420       ?finishToggleFullScreen@RendererGl@app@cinder@@UAEXXZ 00434420 f   cinder:Renderer.obj
 0001:00033430       ?kill@RendererGl@app@cinder@@UAEXXZ 00434430 f   cinder:Renderer.obj
 0001:00033440       ?makeCurrentContext@RendererGl@app@cinder@@UAEXXZ 00434440 f   cinder:Renderer.obj
 0001:00033440       ?startDraw@RendererGl@app@cinder@@UAEXXZ 00434440 f   cinder:Renderer.obj
 0001:00033450       ?prepareToggleFullScreen@RendererGl@app@cinder@@UAEXXZ 00434450 f   cinder:Renderer.obj
 0001:00033460       ?setAntiAliasing@RendererGl@app@cinder@@QAEXH@Z 00434460 f   cinder:Renderer.obj
 0001:00033470       ?setup@RendererGl@app@cinder@@UAEXPAVApp@23@PAUHWND__@@PAUHDC__@@V?$shared_ptr@VRenderer@app@cinder@@@std@@@Z 00434470 f   cinder:Renderer.obj
 0001:000335a0       ??$?0U?$EventCombiner@VFileDropEvent@app@cinder@@@app@cinder@@@?$shared_ptr@U?$EventCombiner@VFileDropEvent@app@cinder@@@app@cinder@@@boost@@QAE@PAU?$EventCombiner@VFileDropEvent@app@cinder@@@app@cinder@@@Z 004345a0 f i cinder:Window.obj
 0001:00033650       ??$?0U?$EventCombiner@VFileDropEvent@app@cinder@@@app@cinder@@@shared_count@detail@boost@@QAE@PAU?$EventCombiner@VFileDropEvent@app@cinder@@@app@cinder@@@Z 00434650 f i cinder:Window.obj
 0001:000336f0       ??$?0U?$EventCombiner@VKeyEvent@app@cinder@@@app@cinder@@@?$shared_ptr@U?$EventCombiner@VKeyEvent@app@cinder@@@app@cinder@@@boost@@QAE@PAU?$EventCombiner@VKeyEvent@app@cinder@@@app@cinder@@@Z 004346f0 f i cinder:Window.obj
 0001:000337a0       ??$?0U?$EventCombiner@VKeyEvent@app@cinder@@@app@cinder@@@shared_count@detail@boost@@QAE@PAU?$EventCombiner@VKeyEvent@app@cinder@@@app@cinder@@@Z 004347a0 f i cinder:Window.obj
 0001:00033840       ??$?0U?$EventCombiner@VMouseEvent@app@cinder@@@app@cinder@@@?$shared_ptr@U?$EventCombiner@VMouseEvent@app@cinder@@@app@cinder@@@boost@@QAE@PAU?$EventCombiner@VMouseEvent@app@cinder@@@app@cinder@@@Z 00434840 f i cinder:Window.obj
 0001:000338f0       ??$?0U?$EventCombiner@VMouseEvent@app@cinder@@@app@cinder@@@shared_count@detail@boost@@QAE@PAU?$EventCombiner@VMouseEvent@app@cinder@@@app@cinder@@@Z 004348f0 f i cinder:Window.obj
 0001:00033990       ??$?0U?$EventCombiner@VTouchEvent@app@cinder@@@app@cinder@@@?$shared_ptr@U?$EventCombiner@VTouchEvent@app@cinder@@@app@cinder@@@boost@@QAE@PAU?$EventCombiner@VTouchEvent@app@cinder@@@app@cinder@@@Z 00434990 f i cinder:Window.obj
 0001:00033a40       ??$?0U?$EventCombiner@VTouchEvent@app@cinder@@@app@cinder@@@shared_count@detail@boost@@QAE@PAU?$EventCombiner@VTouchEvent@app@cinder@@@app@cinder@@@Z 00434a40 f i cinder:Window.obj
 0001:00033ae0       ??$?0V?$grouped_list@HU?$less@H@std@@V?$shared_ptr@V?$connection_body@U?$pair@W4slot_meta_group@detail@signals2@boost@@V?$optional@H@4@@std@@V?$slot0@XV?$function@$$A6AXXZ@boost@@@signals2@boost@@Vmutex@45@@detail@signals2@boost@@@boost@@@detail@signals2@boost@@@?$shared_ptr@V?$grouped_list@HU?$less@H@std@@V?$shared_ptr@V?$connection_body@U?$pair@W4slot_meta_group@detail@signals2@boost@@V?$optional@H@4@@std@@V?$slot0@XV?$function@$$A6AXXZ@boost@@@signals2@boost@@Vmutex@45@@detail@signals2@boost@@@boost@@@detail@signals2@boost@@@boost@@QAE@PAV?$grouped_list@HU?$less@H@std@@V?$shared_ptr@V?$connection_body@U?$pair@W4slot_meta_group@detail@signals2@boost@@V?$optional@H@4@@std@@V?$slot0@XV?$function@$$A6AXXZ@boost@@@signals2@boost@@Vmutex@45@@detail@signals2@boost@@@boost@@@detail@signals2@1@@Z 00434ae0 f i cinder:Window.obj
 0001:00033b90       ??$?0V?$grouped_list@HU?$less@H@std@@V?$shared_ptr@V?$connection_body@U?$pair@W4slot_meta_group@detail@signals2@boost@@V?$optional@H@4@@std@@V?$slot0@XV?$function@$$A6AXXZ@boost@@@signals2@boost@@Vmutex@45@@detail@signals2@boost@@@boost@@@detail@signals2@boost@@@shared_count@detail@boost@@QAE@PAV?$grouped_list@HU?$less@H@std@@V?$shared_ptr@V?$connection_body@U?$pair@W4slot_meta_group@detail@signals2@boost@@V?$optional@H@4@@std@@V?$slot0@XV?$function@$$A6AXXZ@boost@@@signals2@boost@@Vmutex@45@@detail@signals2@boost@@@boost@@@1signals2@2@@Z 00434b90 f i cinder:Window.obj
 0001:00033c30       ??$?0V?$grouped_list@HU?$less@H@std@@V?$shared_ptr@V?$connection_body@U?$pair@W4slot_meta_group@detail@signals2@boost@@V?$optional@H@4@@std@@V?$slot1@XAAVFileDropEvent@app@cinder@@V?$function@$$A6AXAAVFileDropEvent@app@cinder@@@Z@boost@@@signals2@boost@@Vmutex@45@@detail@signals2@boost@@@boost@@@detail@signals2@boost@@@?$shared_ptr@V?$grouped_list@HU?$less@H@std@@V?$shared_ptr@V?$connection_body@U?$pair@W4slot_meta_group@detail@signals2@boost@@V?$optional@H@4@@std@@V?$slot1@XAAVFileDropEvent@app@cinder@@V?$function@$$A6AXAAVFileDropEvent@app@cinder@@@Z@boost@@@signals2@boost@@Vmutex@45@@detail@signals2@boost@@@boost@@@detail@signals2@boost@@@boost@@QAE@PAV?$grouped_list@HU?$less@H@std@@V?$shared_ptr@V?$connection_body@U?$pair@W4slot_meta_group@detail@signals2@boost@@V?$optional@H@4@@std@@V?$slot1@XAAVFileDropEvent@app@cinder@@V?$function@$$A6AXAAVFileDropEvent@app@cinder@@@Z@boost@@@signals2@boost@@Vmutex@45@@detail@signals2@boost@@@boost@@@detail@signals2@1@@Z 00434c30 f i cinder:Window.obj
 0001:00033ce0       ??$?0V?$grouped_list@HU?$less@H@std@@V?$shared_ptr@V?$connection_body@U?$pair@W4slot_meta_group@detail@signals2@boost@@V?$optional@H@4@@std@@V?$slot1@XAAVFileDropEvent@app@cinder@@V?$function@$$A6AXAAVFileDropEvent@app@cinder@@@Z@boost@@@signals2@boost@@Vmutex@45@@detail@signals2@boost@@@boost@@@detail@signals2@boost@@@shared_count@detail@boost@@QAE@PAV?$grouped_list@HU?$less@H@std@@V?$shared_ptr@V?$connection_body@U?$pair@W4slot_meta_group@detail@signals2@boost@@V?$optional@H@4@@std@@V?$slot1@XAAVFileDropEvent@app@cinder@@V?$function@$$A6AXAAVFileDropEvent@app@cinder@@@Z@boost@@@signals2@boost@@Vmutex@45@@detail@signals2@boost@@@boost@@@1signals2@2@@Z 00434ce0 f i cinder:Window.obj
 0001:00033d80       ??$?0V?$grouped_list@HU?$less@H@std@@V?$shared_ptr@V?$connection_body@U?$pair@W4slot_meta_group@detail@signals2@boost@@V?$optional@H@4@@std@@V?$slot1@XAAVKeyEvent@app@cinder@@V?$function@$$A6AXAAVKeyEvent@app@cinder@@@Z@boost@@@signals2@boost@@Vmutex@45@@detail@signals2@boost@@@boost@@@detail@signals2@boost@@@?$shared_ptr@V?$grouped_list@HU?$less@H@std@@V?$shared_ptr@V?$connection_body@U?$pair@W4slot_meta_group@detail@signals2@boost@@V?$optional@H@4@@std@@V?$slot1@XAAVKeyEvent@app@cinder@@V?$function@$$A6AXAAVKeyEvent@app@cinder@@@Z@boost@@@signals2@boost@@Vmutex@45@@detail@signals2@boost@@@boost@@@detail@signals2@boost@@@boost@@QAE@PAV?$grouped_list@HU?$less@H@std@@V?$shared_ptr@V?$connection_body@U?$pair@W4slot_meta_group@detail@signals2@boost@@V?$optional@H@4@@std@@V?$slot1@XAAVKeyEvent@app@cinder@@V?$function@$$A6AXAAVKeyEvent@app@cinder@@@Z@boost@@@signals2@boost@@Vmutex@45@@detail@signals2@boost@@@boost@@@detail@signals2@1@@Z 00434d80 f i cinder:Window.obj
 0001:00033e30       ??$?0V?$grouped_list@HU?$less@H@std@@V?$shared_ptr@V?$connection_body@U?$pair@W4slot_meta_group@detail@signals2@boost@@V?$optional@H@4@@std@@V?$slot1@XAAVKeyEvent@app@cinder@@V?$function@$$A6AXAAVKeyEvent@app@cinder@@@Z@boost@@@signals2@boost@@Vmutex@45@@detail@signals2@boost@@@boost@@@detail@signals2@boost@@@shared_count@detail@boost@@QAE@PAV?$grouped_list@HU?$less@H@std@@V?$shared_ptr@V?$connection_body@U?$pair@W4slot_meta_group@detail@signals2@boost@@V?$optional@H@4@@std@@V?$slot1@XAAVKeyEvent@app@cinder@@V?$function@$$A6AXAAVKeyEvent@app@cinder@@@Z@boost@@@signals2@boost@@Vmutex@45@@detail@signals2@boost@@@boost@@@1signals2@2@@Z 00434e30 f i cinder:Window.obj
 0001:00033ed0       ??$?0V?$grouped_list@HU?$less@H@std@@V?$shared_ptr@V?$connection_body@U?$pair@W4slot_meta_group@detail@signals2@boost@@V?$optional@H@4@@std@@V?$slot1@XAAVMouseEvent@app@cinder@@V?$function@$$A6AXAAVMouseEvent@app@cinder@@@Z@boost@@@signals2@boost@@Vmutex@45@@detail@signals2@boost@@@boost@@@detail@signals2@boost@@@?$shared_ptr@V?$grouped_list@HU?$less@H@std@@V?$shared_ptr@V?$connection_body@U?$pair@W4slot_meta_group@detail@signals2@boost@@V?$optional@H@4@@std@@V?$slot1@XAAVMouseEvent@app@cinder@@V?$function@$$A6AXAAVMouseEvent@app@cinder@@@Z@boost@@@signals2@boost@@Vmutex@45@@detail@signals2@boost@@@boost@@@detail@signals2@boost@@@boost@@QAE@PAV?$grouped_list@HU?$less@H@std@@V?$shared_ptr@V?$connection_body@U?$pair@W4slot_meta_group@detail@signals2@boost@@V?$optional@H@4@@std@@V?$slot1@XAAVMouseEvent@app@cinder@@V?$function@$$A6AXAAVMouseEvent@app@cinder@@@Z@boost@@@signals2@boost@@Vmutex@45@@detail@signals2@boost@@@boost@@@detail@signals2@1@@Z 00434ed0 f i cinder:Window.obj
 0001:00033f80       ??$?0V?$grouped_list@HU?$less@H@std@@V?$shared_ptr@V?$connection_body@U?$pair@W4slot_meta_group@detail@signals2@boost@@V?$optional@H@4@@std@@V?$slot1@XAAVMouseEvent@app@cinder@@V?$function@$$A6AXAAVMouseEvent@app@cinder@@@Z@boost@@@signals2@boost@@Vmutex@45@@detail@signals2@boost@@@boost@@@detail@signals2@boost@@@shared_count@detail@boost@@QAE@PAV?$grouped_list@HU?$less@H@std@@V?$shared_ptr@V?$connection_body@U?$pair@W4slot_meta_group@detail@signals2@boost@@V?$optional@H@4@@std@@V?$slot1@XAAVMouseEvent@app@cinder@@V?$function@$$A6AXAAVMouseEvent@app@cinder@@@Z@boost@@@signals2@boost@@Vmutex@45@@detail@signals2@boost@@@boost@@@1signals2@2@@Z 00434f80 f i cinder:Window.obj
 0001:00034020       ??$?0V?$grouped_list@HU?$less@H@std@@V?$shared_ptr@V?$connection_body@U?$pair@W4slot_meta_group@detail@signals2@boost@@V?$optional@H@4@@std@@V?$slot1@XAAVTouchEvent@app@cinder@@V?$function@$$A6AXAAVTouchEvent@app@cinder@@@Z@boost@@@signals2@boost@@Vmutex@45@@detail@signals2@boost@@@boost@@@detail@signals2@boost@@@?$shared_ptr@V?$grouped_list@HU?$less@H@std@@V?$shared_ptr@V?$connection_body@U?$pair@W4slot_meta_group@detail@signals2@boost@@V?$optional@H@4@@std@@V?$slot1@XAAVTouchEvent@app@cinder@@V?$function@$$A6AXAAVTouchEvent@app@cinder@@@Z@boost@@@signals2@boost@@Vmutex@45@@detail@signals2@boost@@@boost@@@detail@signals2@boost@@@boost@@QAE@PAV?$grouped_list@HU?$less@H@std@@V?$shared_ptr@V?$connection_body@U?$pair@W4slot_meta_group@detail@signals2@boost@@V?$optional@H@4@@std@@V?$slot1@XAAVTouchEvent@app@cinder@@V?$function@$$A6AXAAVTouchEvent@app@cinder@@@Z@boost@@@signals2@boost@@Vmutex@45@@detail@signals2@boost@@@boost@@@detail@signals2@1@@Z 00435020 f i cinder:Window.obj
 0001:000340d0       ??$?0V?$grouped_list@HU?$less@H@std@@V?$shared_ptr@V?$connection_body@U?$pair@W4slot_meta_group@detail@signals2@boost@@V?$optional@H@4@@std@@V?$slot1@XAAVTouchEvent@app@cinder@@V?$function@$$A6AXAAVTouchEvent@app@cinder@@@Z@boost@@@signals2@boost@@Vmutex@45@@detail@signals2@boost@@@boost@@@detail@signals2@boost@@@shared_count@detail@boost@@QAE@PAV?$grouped_list@HU?$less@H@std@@V?$shared_ptr@V?$connection_body@U?$pair@W4slot_meta_group@detail@signals2@boost@@V?$optional@H@4@@std@@V?$slot1@XAAVTouchEvent@app@cinder@@V?$function@$$A6AXAAVTouchEvent@app@cinder@@@Z@boost@@@signals2@boost@@Vmutex@45@@detail@signals2@boost@@@boost@@@1signals2@2@@Z 004350d0 f i cinder:Window.obj
 0001:00034170       ??$?0Vinvocation_state@?$signal0_impl@XV?$optional_last_value@X@signals2@boost@@HU?$less@H@std@@V?$function@$$A6AXXZ@3@V?$function@$$A6AXABVconnection@signals2@boost@@@Z@3@Vmutex@23@@detail@signals2@boost@@@?$shared_ptr@Vinvocation_state@?$signal0_impl@XV?$optional_last_value@X@signals2@boost@@HU?$less@H@std@@V?$function@$$A6AXXZ@3@V?$function@$$A6AXABVconnection@signals2@boost@@@Z@3@Vmutex@23@@detail@signals2@boost@@@boost@@QAE@PAVinvocation_state@?$signal0_impl@XV?$optional_last_value@X@signals2@boost@@HU?$less@H@std@@V?$function@$$A6AXXZ@3@V?$function@$$A6AXABVconnection@signals2@boost@@@Z@3@Vmutex@23@@detail@signals2@1@@Z 00435170 f i cinder:Window.obj
 0001:00034220       ??$?0Vinvocation_state@?$signal0_impl@XV?$optional_last_value@X@signals2@boost@@HU?$less@H@std@@V?$function@$$A6AXXZ@3@V?$function@$$A6AXABVconnection@signals2@boost@@@Z@3@Vmutex@23@@detail@signals2@boost@@@shared_count@detail@boost@@QAE@PAVinvocation_state@?$signal0_impl@XV?$optional_last_value@X@signals2@boost@@HU?$less@H@std@@V?$function@$$A6AXXZ@3@V?$function@$$A6AXABVconnection@signals2@boost@@@Z@3@Vmutex@23@@1signals2@2@@Z 00435220 f i cinder:Window.obj
 0001:000342c0       ??$?0Vinvocation_state@?$signal1_impl@XAAVFileDropEvent@app@cinder@@U?$EventCombiner@VFileDropEvent@app@cinder@@@23@HU?$less@H@std@@V?$function@$$A6AXAAVFileDropEvent@app@cinder@@@Z@boost@@V?$function@$$A6AXABVconnection@signals2@boost@@AAVFileDropEvent@app@cinder@@@Z@8@Vmutex@signals2@8@@detail@signals2@boost@@@?$shared_ptr@Vinvocation_state@?$signal1_impl@XAAVFileDropEvent@app@cinder@@U?$EventCombiner@VFileDropEvent@app@cinder@@@23@HU?$less@H@std@@V?$function@$$A6AXAAVFileDropEvent@app@cinder@@@Z@boost@@V?$function@$$A6AXABVconnection@signals2@boost@@AAVFileDropEvent@app@cinder@@@Z@8@Vmutex@signals2@8@@detail@signals2@boost@@@boost@@QAE@PAVinvocation_state@?$signal1_impl@XAAVFileDropEvent@app@cinder@@U?$EventCombiner@VFileDropEvent@app@cinder@@@23@HU?$less@H@std@@V?$function@$$A6AXAAVFileDropEvent@app@cinder@@@Z@boost@@V?$function@$$A6AXABVconnection@signals2@boost@@AAVFileDropEvent@app@cinder@@@Z@8@Vmutex@signals2@8@@detail@signals2@1@@Z 004352c0 f i cinder:Window.obj
 0001:00034370       ??$?0Vinvocation_state@?$signal1_impl@XAAVFileDropEvent@app@cinder@@U?$EventCombiner@VFileDropEvent@app@cinder@@@23@HU?$less@H@std@@V?$function@$$A6AXAAVFileDropEvent@app@cinder@@@Z@boost@@V?$function@$$A6AXABVconnection@signals2@boost@@AAVFileDropEvent@app@cinder@@@Z@8@Vmutex@signals2@8@@detail@signals2@boost@@@shared_count@detail@boost@@QAE@PAVinvocation_state@?$signal1_impl@XAAVFileDropEvent@app@cinder@@U?$EventCombiner@VFileDropEvent@app@cinder@@@23@HU?$less@H@std@@V?$function@$$A6AXAAVFileDropEvent@app@cinder@@@Z@boost@@V?$function@$$A6AXABVconnection@signals2@boost@@AAVFileDropEvent@app@cinder@@@Z@8@Vmutex@signals2@8@@1signals2@2@@Z 00435370 f i cinder:Window.obj
 0001:00034410       ??$?0Vinvocation_state@?$signal1_impl@XAAVKeyEvent@app@cinder@@U?$EventCombiner@VKeyEvent@app@cinder@@@23@HU?$less@H@std@@V?$function@$$A6AXAAVKeyEvent@app@cinder@@@Z@boost@@V?$function@$$A6AXABVconnection@signals2@boost@@AAVKeyEvent@app@cinder@@@Z@8@Vmutex@signals2@8@@detail@signals2@boost@@@?$shared_ptr@Vinvocation_state@?$signal1_impl@XAAVKeyEvent@app@cinder@@U?$EventCombiner@VKeyEvent@app@cinder@@@23@HU?$less@H@std@@V?$function@$$A6AXAAVKeyEvent@app@cinder@@@Z@boost@@V?$function@$$A6AXABVconnection@signals2@boost@@AAVKeyEvent@app@cinder@@@Z@8@Vmutex@signals2@8@@detail@signals2@boost@@@boost@@QAE@PAVinvocation_state@?$signal1_impl@XAAVKeyEvent@app@cinder@@U?$EventCombiner@VKeyEvent@app@cinder@@@23@HU?$less@H@std@@V?$function@$$A6AXAAVKeyEvent@app@cinder@@@Z@boost@@V?$function@$$A6AXABVconnection@signals2@boost@@AAVKeyEvent@app@cinder@@@Z@8@Vmutex@signals2@8@@detail@signals2@1@@Z 00435410 f i cinder:Window.obj
 0001:000344c0       ??$?0Vinvocation_state@?$signal1_impl@XAAVKeyEvent@app@cinder@@U?$EventCombiner@VKeyEvent@app@cinder@@@23@HU?$less@H@std@@V?$function@$$A6AXAAVKeyEvent@app@cinder@@@Z@boost@@V?$function@$$A6AXABVconnection@signals2@boost@@AAVKeyEvent@app@cinder@@@Z@8@Vmutex@signals2@8@@detail@signals2@boost@@@shared_count@detail@boost@@QAE@PAVinvocation_state@?$signal1_impl@XAAVKeyEvent@app@cinder@@U?$EventCombiner@VKeyEvent@app@cinder@@@23@HU?$less@H@std@@V?$function@$$A6AXAAVKeyEvent@app@cinder@@@Z@boost@@V?$function@$$A6AXABVconnection@signals2@boost@@AAVKeyEvent@app@cinder@@@Z@8@Vmutex@signals2@8@@1signals2@2@@Z 004354c0 f i cinder:Window.obj
 0001:00034560       ??$?0Vinvocation_state@?$signal1_impl@XAAVMouseEvent@app@cinder@@U?$EventCombiner@VMouseEvent@app@cinder@@@23@HU?$less@H@std@@V?$function@$$A6AXAAVMouseEvent@app@cinder@@@Z@boost@@V?$function@$$A6AXABVconnection@signals2@boost@@AAVMouseEvent@app@cinder@@@Z@8@Vmutex@signals2@8@@detail@signals2@boost@@@?$shared_ptr@Vinvocation_state@?$signal1_impl@XAAVMouseEvent@app@cinder@@U?$EventCombiner@VMouseEvent@app@cinder@@@23@HU?$less@H@std@@V?$function@$$A6AXAAVMouseEvent@app@cinder@@@Z@boost@@V?$function@$$A6AXABVconnection@signals2@boost@@AAVMouseEvent@app@cinder@@@Z@8@Vmutex@signals2@8@@detail@signals2@boost@@@boost@@QAE@PAVinvocation_state@?$signal1_impl@XAAVMouseEvent@app@cinder@@U?$EventCombiner@VMouseEvent@app@cinder@@@23@HU?$less@H@std@@V?$function@$$A6AXAAVMouseEvent@app@cinder@@@Z@boost@@V?$function@$$A6AXABVconnection@signals2@boost@@AAVMouseEvent@app@cinder@@@Z@8@Vmutex@signals2@8@@detail@signals2@1@@Z 00435560 f i cinder:Window.obj
 0001:00034610       ??$?0Vinvocation_state@?$signal1_impl@XAAVMouseEvent@app@cinder@@U?$EventCombiner@VMouseEvent@app@cinder@@@23@HU?$less@H@std@@V?$function@$$A6AXAAVMouseEvent@app@cinder@@@Z@boost@@V?$function@$$A6AXABVconnection@signals2@boost@@AAVMouseEvent@app@cinder@@@Z@8@Vmutex@signals2@8@@detail@signals2@boost@@@shared_count@detail@boost@@QAE@PAVinvocation_state@?$signal1_impl@XAAVMouseEvent@app@cinder@@U?$EventCombiner@VMouseEvent@app@cinder@@@23@HU?$less@H@std@@V?$function@$$A6AXAAVMouseEvent@app@cinder@@@Z@boost@@V?$function@$$A6AXABVconnection@signals2@boost@@AAVMouseEvent@app@cinder@@@Z@8@Vmutex@signals2@8@@1signals2@2@@Z 00435610 f i cinder:Window.obj
 0001:000346b0       ??$?0Vinvocation_state@?$signal1_impl@XAAVTouchEvent@app@cinder@@U?$EventCombiner@VTouchEvent@app@cinder@@@23@HU?$less@H@std@@V?$function@$$A6AXAAVTouchEvent@app@cinder@@@Z@boost@@V?$function@$$A6AXABVconnection@signals2@boost@@AAVTouchEvent@app@cinder@@@Z@8@Vmutex@signals2@8@@detail@signals2@boost@@@?$shared_ptr@Vinvocation_state@?$signal1_impl@XAAVTouchEvent@app@cinder@@U?$EventCombiner@VTouchEvent@app@cinder@@@23@HU?$less@H@std@@V?$function@$$A6AXAAVTouchEvent@app@cinder@@@Z@boost@@V?$function@$$A6AXABVconnection@signals2@boost@@AAVTouchEvent@app@cinder@@@Z@8@Vmutex@signals2@8@@detail@signals2@boost@@@boost@@QAE@PAVinvocation_state@?$signal1_impl@XAAVTouchEvent@app@cinder@@U?$EventCombiner@VTouchEvent@app@cinder@@@23@HU?$less@H@std@@V?$function@$$A6AXAAVTouchEvent@app@cinder@@@Z@boost@@V?$function@$$A6AXABVconnection@signals2@boost@@AAVTouchEvent@app@cinder@@@Z@8@Vmutex@signals2@8@@detail@signals2@1@@Z 004356b0 f i cinder:Window.obj
 0001:00034760       ??$?0Vinvocation_state@?$signal1_impl@XAAVTouchEvent@app@cinder@@U?$EventCombiner@VTouchEvent@app@cinder@@@23@HU?$less@H@std@@V?$function@$$A6AXAAVTouchEvent@app@cinder@@@Z@boost@@V?$function@$$A6AXABVconnection@signals2@boost@@AAVTouchEvent@app@cinder@@@Z@8@Vmutex@signals2@8@@detail@signals2@boost@@@shared_count@detail@boost@@QAE@PAVinvocation_state@?$signal1_impl@XAAVTouchEvent@app@cinder@@U?$EventCombiner@VTouchEvent@app@cinder@@@23@HU?$less@H@std@@V?$function@$$A6AXAAVTouchEvent@app@cinder@@@Z@boost@@V?$function@$$A6AXABVconnection@signals2@boost@@AAVTouchEvent@app@cinder@@@Z@8@Vmutex@signals2@8@@1signals2@2@@Z 00435760 f i cinder:Window.obj
 0001:00034800       ??$?0X@?$shared_ptr@X@boost@@QAE@ABV?$weak_ptr@X@1@Usp_nothrow_tag@detail@1@@Z 00435800 f i cinder:Window.obj
 0001:00034860       ??$?RV?$slot_call_iterator_t@Vslot_invoker@?$signal0_impl@XV?$optional_last_value@X@signals2@boost@@HU?$less@H@std@@V?$function@$$A6AXXZ@3@V?$function@$$A6AXABVconnection@signals2@boost@@@Z@3@Vmutex@23@@detail@signals2@boost@@V?$_List_iterator@V?$_List_val@U?$_List_simple_types@V?$shared_ptr@V?$connection_body@U?$pair@W4slot_meta_group@detail@signals2@boost@@V?$optional@H@4@@std@@V?$slot0@XV?$function@$$A6AXXZ@boost@@@signals2@boost@@Vmutex@45@@detail@signals2@boost@@@boost@@@std@@@std@@@std@@V?$connection_body@U?$pair@W4slot_meta_group@detail@signals2@boost@@V?$optional@H@4@@std@@V?$slot0@XV?$function@$$A6AXXZ@boost@@@signals2@boost@@Vmutex@45@@345@@detail@signals2@boost@@@?$optional_last_value@X@signals2@boost@@QBEXV?$slot_call_iterator_t@Vslot_invoker@?$signal0_impl@XV?$optional_last_value@X@signals2@boost@@HU?$less@H@std@@V?$function@$$A6AXXZ@3@V?$function@$$A6AXABVconnection@signals2@boost@@@Z@3@Vmutex@23@@detail@signals2@boost@@V?$_List_iterator@V?$_List_val@U?$_List_simple_types@V?$shared_ptr@V?$connection_body@U?$pair@W4slot_meta_group@detail@signals2@boost@@V?$optional@H@4@@std@@V?$slot0@XV?$function@$$A6AXXZ@boost@@@signals2@boost@@Vmutex@45@@detail@signals2@boost@@@boost@@@std@@@std@@@std@@V?$connection_body@U?$pair@W4slot_meta_group@detail@signals2@boost@@V?$optional@H@4@@std@@V?$slot0@XV?$function@$$A6AXXZ@boost@@@signals2@boost@@Vmutex@45@@345@@detail@12@0@Z 00435860 f i cinder:Window.obj
 0001:000348f0       ??$?RV?$slot_call_iterator_t@Vslot_invoker@?$signal1_impl@XAAVKeyEvent@app@cinder@@U?$EventCombiner@VKeyEvent@app@cinder@@@23@HU?$less@H@std@@V?$function@$$A6AXAAVKeyEvent@app@cinder@@@Z@boost@@V?$function@$$A6AXABVconnection@signals2@boost@@AAVKeyEvent@app@cinder@@@Z@8@Vmutex@signals2@8@@detail@signals2@boost@@V?$_List_iterator@V?$_List_val@U?$_List_simple_types@V?$shared_ptr@V?$connection_body@U?$pair@W4slot_meta_group@detail@signals2@boost@@V?$optional@H@4@@std@@V?$slot1@XAAVKeyEvent@app@cinder@@V?$function@$$A6AXAAVKeyEvent@app@cinder@@@Z@boost@@@signals2@boost@@Vmutex@45@@detail@signals2@boost@@@boost@@@std@@@std@@@std@@V?$connection_body@U?$pair@W4slot_meta_group@detail@signals2@boost@@V?$optional@H@4@@std@@V?$slot1@XAAVKeyEvent@app@cinder@@V?$function@$$A6AXAAVKeyEvent@app@cinder@@@Z@boost@@@signals2@boost@@Vmutex@45@@345@@detail@signals2@boost@@@?$EventCombiner@VKeyEvent@app@cinder@@@app@cinder@@QBEXV?$slot_call_iterator_t@Vslot_invoker@?$signal1_impl@XAAVKeyEvent@app@cinder@@U?$EventCombiner@VKeyEvent@app@cinder@@@23@HU?$less@H@std@@V?$function@$$A6AXAAVKeyEvent@app@cinder@@@Z@boost@@V?$function@$$A6AXABVconnection@signals2@boost@@AAVKeyEvent@app@cinder@@@Z@8@Vmutex@signals2@8@@detail@signals2@boost@@V?$_List_iterator@V?$_List_val@U?$_List_simple_types@V?$shared_ptr@V?$connection_body@U?$pair@W4slot_meta_group@detail@signals2@boost@@V?$optional@H@4@@std@@V?$slot1@XAAVKeyEvent@app@cinder@@V?$function@$$A6AXAAVKeyEvent@app@cinder@@@Z@boost@@@signals2@boost@@Vmutex@45@@detail@signals2@boost@@@boost@@@std@@@std@@@std@@V?$connection_body@U?$pair@W4slot_meta_group@detail@signals2@boost@@V?$optional@H@4@@std@@V?$slot1@XAAVKeyEvent@app@cinder@@V?$function@$$A6AXAAVKeyEvent@app@cinder@@@Z@boost@@@signals2@boost@@Vmutex@45@@345@@detail@signals2@boost@@0@Z 004358f0 f i cinder:Window.obj
 0001:000348f0       ??$?RV?$slot_call_iterator_t@Vslot_invoker@?$signal1_impl@XAAVFileDropEvent@app@cinder@@U?$EventCombiner@VFileDropEvent@app@cinder@@@23@HU?$less@H@std@@V?$function@$$A6AXAAVFileDropEvent@app@cinder@@@Z@boost@@V?$function@$$A6AXABVconnection@signals2@boost@@AAVFileDropEvent@app@cinder@@@Z@8@Vmutex@signals2@8@@detail@signals2@boost@@V?$_List_iterator@V?$_List_val@U?$_List_simple_types@V?$shared_ptr@V?$connection_body@U?$pair@W4slot_meta_group@detail@signals2@boost@@V?$optional@H@4@@std@@V?$slot1@XAAVFileDropEvent@app@cinder@@V?$function@$$A6AXAAVFileDropEvent@app@cinder@@@Z@boost@@@signals2@boost@@Vmutex@45@@detail@signals2@boost@@@boost@@@std@@@std@@@std@@V?$connection_body@U?$pair@W4slot_meta_group@detail@signals2@boost@@V?$optional@H@4@@std@@V?$slot1@XAAVFileDropEvent@app@cinder@@V?$function@$$A6AXAAVFileDropEvent@app@cinder@@@Z@boost@@@signals2@boost@@Vmutex@45@@345@@detail@signals2@boost@@@?$EventCombiner@VFileDropEvent@app@cinder@@@app@cinder@@QBEXV?$slot_call_iterator_t@Vslot_invoker@?$signal1_impl@XAAVFileDropEvent@app@cinder@@U?$EventCombiner@VFileDropEvent@app@cinder@@@23@HU?$less@H@std@@V?$function@$$A6AXAAVFileDropEvent@app@cinder@@@Z@boost@@V?$function@$$A6AXABVconnection@signals2@boost@@AAVFileDropEvent@app@cinder@@@Z@8@Vmutex@signals2@8@@detail@signals2@boost@@V?$_List_iterator@V?$_List_val@U?$_List_simple_types@V?$shared_ptr@V?$connection_body@U?$pair@W4slot_meta_group@detail@signals2@boost@@V?$optional@H@4@@std@@V?$slot1@XAAVFileDropEvent@app@cinder@@V?$function@$$A6AXAAVFileDropEvent@app@cinder@@@Z@boost@@@signals2@boost@@Vmutex@45@@detail@signals2@boost@@@boost@@@std@@@std@@@std@@V?$connection_body@U?$pair@W4slot_meta_group@detail@signals2@boost@@V?$optional@H@4@@std@@V?$slot1@XAAVFileDropEvent@app@cinder@@V?$function@$$A6AXAAVFileDropEvent@app@cinder@@@Z@boost@@@signals2@boost@@Vmutex@45@@345@@detail@signals2@boost@@0@Z 004358f0 f i cinder:Window.obj
 0001:000348f0       ??$?RV?$slot_call_iterator_t@Vslot_invoker@?$signal1_impl@XAAVTouchEvent@app@cinder@@U?$EventCombiner@VTouchEvent@app@cinder@@@23@HU?$less@H@std@@V?$function@$$A6AXAAVTouchEvent@app@cinder@@@Z@boost@@V?$function@$$A6AXABVconnection@signals2@boost@@AAVTouchEvent@app@cinder@@@Z@8@Vmutex@signals2@8@@detail@signals2@boost@@V?$_List_iterator@V?$_List_val@U?$_List_simple_types@V?$shared_ptr@V?$connection_body@U?$pair@W4slot_meta_group@detail@signals2@boost@@V?$optional@H@4@@std@@V?$slot1@XAAVTouchEvent@app@cinder@@V?$function@$$A6AXAAVTouchEvent@app@cinder@@@Z@boost@@@signals2@boost@@Vmutex@45@@detail@signals2@boost@@@boost@@@std@@@std@@@std@@V?$connection_body@U?$pair@W4slot_meta_group@detail@signals2@boost@@V?$optional@H@4@@std@@V?$slot1@XAAVTouchEvent@app@cinder@@V?$function@$$A6AXAAVTouchEvent@app@cinder@@@Z@boost@@@signals2@boost@@Vmutex@45@@345@@detail@signals2@boost@@@?$EventCombiner@VTouchEvent@app@cinder@@@app@cinder@@QBEXV?$slot_call_iterator_t@Vslot_invoker@?$signal1_impl@XAAVTouchEvent@app@cinder@@U?$EventCombiner@VTouchEvent@app@cinder@@@23@HU?$less@H@std@@V?$function@$$A6AXAAVTouchEvent@app@cinder@@@Z@boost@@V?$function@$$A6AXABVconnection@signals2@boost@@AAVTouchEvent@app@cinder@@@Z@8@Vmutex@signals2@8@@detail@signals2@boost@@V?$_List_iterator@V?$_List_val@U?$_List_simple_types@V?$shared_ptr@V?$connection_body@U?$pair@W4slot_meta_group@detail@signals2@boost@@V?$optional@H@4@@std@@V?$slot1@XAAVTouchEvent@app@cinder@@V?$function@$$A6AXAAVTouchEvent@app@cinder@@@Z@boost@@@signals2@boost@@Vmutex@45@@detail@signals2@boost@@@boost@@@std@@@std@@@std@@V?$connection_body@U?$pair@W4slot_meta_group@detail@signals2@boost@@V?$optional@H@4@@std@@V?$slot1@XAAVTouchEvent@app@cinder@@V?$function@$$A6AXAAVTouchEvent@app@cinder@@@Z@boost@@@signals2@boost@@Vmutex@45@@345@@detail@signals2@boost@@0@Z 004358f0 f i cinder:Window.obj
 0001:000348f0       ??$?RV?$slot_call_iterator_t@Vslot_invoker@?$signal1_impl@XAAVMouseEvent@app@cinder@@U?$EventCombiner@VMouseEvent@app@cinder@@@23@HU?$less@H@std@@V?$function@$$A6AXAAVMouseEvent@app@cinder@@@Z@boost@@V?$function@$$A6AXABVconnection@signals2@boost@@AAVMouseEvent@app@cinder@@@Z@8@Vmutex@signals2@8@@detail@signals2@boost@@V?$_List_iterator@V?$_List_val@U?$_List_simple_types@V?$shared_ptr@V?$connection_body@U?$pair@W4slot_meta_group@detail@signals2@boost@@V?$optional@H@4@@std@@V?$slot1@XAAVMouseEvent@app@cinder@@V?$function@$$A6AXAAVMouseEvent@app@cinder@@@Z@boost@@@signals2@boost@@Vmutex@45@@detail@signals2@boost@@@boost@@@std@@@std@@@std@@V?$connection_body@U?$pair@W4slot_meta_group@detail@signals2@boost@@V?$optional@H@4@@std@@V?$slot1@XAAVMouseEvent@app@cinder@@V?$function@$$A6AXAAVMouseEvent@app@cinder@@@Z@boost@@@signals2@boost@@Vmutex@45@@345@@detail@signals2@boost@@@?$EventCombiner@VMouseEvent@app@cinder@@@app@cinder@@QBEXV?$slot_call_iterator_t@Vslot_invoker@?$signal1_impl@XAAVMouseEvent@app@cinder@@U?$EventCombiner@VMouseEvent@app@cinder@@@23@HU?$less@H@std@@V?$function@$$A6AXAAVMouseEvent@app@cinder@@@Z@boost@@V?$function@$$A6AXABVconnection@signals2@boost@@AAVMouseEvent@app@cinder@@@Z@8@Vmutex@signals2@8@@detail@signals2@boost@@V?$_List_iterator@V?$_List_val@U?$_List_simple_types@V?$shared_ptr@V?$connection_body@U?$pair@W4slot_meta_group@detail@signals2@boost@@V?$optional@H@4@@std@@V?$slot1@XAAVMouseEvent@app@cinder@@V?$function@$$A6AXAAVMouseEvent@app@cinder@@@Z@boost@@@signals2@boost@@Vmutex@45@@detail@signals2@boost@@@boost@@@std@@@std@@@std@@V?$connection_body@U?$pair@W4slot_meta_group@detail@signals2@boost@@V?$optional@H@4@@std@@V?$slot1@XAAVMouseEvent@app@cinder@@V?$function@$$A6AXAAVMouseEvent@app@cinder@@@Z@boost@@@signals2@boost@@Vmutex@45@@345@@detail@signals2@boost@@0@Z 004358f0 f i cinder:Window.obj
 0001:00034940       ??$?RV?$weak_ptr@X@boost@@@lock_weak_ptr_visitor@detail@signals2@boost@@QBE?AV?$variant@V?$shared_ptr@X@boost@@Vforeign_void_shared_ptr@detail@signals2@2@Uvoid_@042@U6042@U6042@U6042@U6042@U6042@U6042@U6042@U6042@U6042@U6042@U6042@U6042@U6042@U6042@U6042@U6042@U6042@@3@ABV?$weak_ptr@X@3@@Z 00435940 f i cinder:Window.obj
 0001:00034a00       ??$?RVforeign_void_weak_ptr@detail@signals2@boost@@@lock_weak_ptr_visitor@detail@signals2@boost@@QBE?AV?$variant@V?$shared_ptr@X@boost@@Vforeign_void_shared_ptr@detail@signals2@2@Uvoid_@042@U6042@U6042@U6042@U6042@U6042@U6042@U6042@U6042@U6042@U6042@U6042@U6042@U6042@U6042@U6042@U6042@U6042@@3@ABVforeign_void_weak_ptr@123@@Z 00435a00 f i cinder:Window.obj
 0001:00034aa0       ??$_Buynode@U?$pair@U?$pair@W4slot_meta_group@detail@signals2@boost@@V?$optional@H@4@@std@@V?$_List_iterator@V?$_List_val@U?$_List_simple_types@V?$shared_ptr@V?$connection_body@U?$pair@W4slot_meta_group@detail@signals2@boost@@V?$optional@H@4@@std@@V?$slot1@XAAVFileDropEvent@app@cinder@@V?$function@$$A6AXAAVFileDropEvent@app@cinder@@@Z@boost@@@signals2@boost@@Vmutex@45@@detail@signals2@boost@@@boost@@@std@@@std@@@2@@std@@@?$_Tree_buy@U?$pair@$$CBU?$pair@W4slot_meta_group@detail@signals2@boost@@V?$optional@H@4@@std@@V?$_List_iterator@V?$_List_val@U?$_List_simple_types@V?$shared_ptr@V?$connection_body@U?$pair@W4slot_meta_group@detail@signals2@boost@@V?$optional@H@4@@std@@V?$slot1@XAAVFileDropEvent@app@cinder@@V?$function@$$A6AXAAVFileDropEvent@app@cinder@@@Z@boost@@@signals2@boost@@Vmutex@45@@detail@signals2@boost@@@boost@@@std@@@std@@@2@@std@@V?$allocator@U?$pair@$$CBU?$pair@W4slot_meta_group@detail@signals2@boost@@V?$optional@H@4@@std@@V?$_List_iterator@V?$_List_val@U?$_List_simple_types@V?$shared_ptr@V?$connection_body@U?$pair@W4slot_meta_group@detail@signals2@boost@@V?$optional@H@4@@std@@V?$slot1@XAAVFileDropEvent@app@cinder@@V?$function@$$A6AXAAVFileDropEvent@app@cinder@@@Z@boost@@@signals2@boost@@Vmutex@45@@detail@signals2@boost@@@boost@@@std@@@std@@@2@@std@@@2@@std@@QAEPAU?$_Tree_node@U?$pair@$$CBU?$pair@W4slot_meta_group@detail@signals2@boost@@V?$optional@H@4@@std@@V?$_List_iterator@V?$_List_val@U?$_List_simple_types@V?$shared_ptr@V?$connection_body@U?$pair@W4slot_meta_group@detail@signals2@boost@@V?$optional@H@4@@std@@V?$slot1@XAAVFileDropEvent@app@cinder@@V?$function@$$A6AXAAVFileDropEvent@app@cinder@@@Z@boost@@@signals2@boost@@Vmutex@45@@detail@signals2@boost@@@boost@@@std@@@std@@@2@@std@@PAX@1@$$QAU?$pair@U?$pair@W4slot_meta_group@detail@signals2@boost@@V?$optional@H@4@@std@@V?$_List_iterator@V?$_List_val@U?$_List_simple_types@V?$shared_ptr@V?$connection_body@U?$pair@W4slot_meta_group@detail@signals2@boost@@V?$optional@H@4@@std@@V?$slot1@XAAVFileDropEvent@app@cinder@@V?$function@$$A6AXAAVFileDropEvent@app@cinder@@@Z@boost@@@signals2@boost@@Vmutex@45@@detail@signals2@boost@@@boost@@@std@@@std@@@2@@1@@Z 00435aa0 f i cinder:Window.obj
 0001:00034aa0       ??$_Buynode@AAU?$pair@$$CBU?$pair@W4slot_meta_group@detail@signals2@boost@@V?$optional@H@4@@std@@V?$_List_iterator@V?$_List_val@U?$_List_simple_types@V?$shared_ptr@V?$connection_body@U?$pair@W4slot_meta_group@detail@signals2@boost@@V?$optional@H@4@@std@@V?$slot1@XAAVKeyEvent@app@cinder@@V?$function@$$A6AXAAVKeyEvent@app@cinder@@@Z@boost@@@signals2@boost@@Vmutex@45@@detail@signals2@boost@@@boost@@@std@@@std@@@2@@std@@@?$_Tree_buy@U?$pair@$$CBU?$pair@W4slot_meta_group@detail@signals2@boost@@V?$optional@H@4@@std@@V?$_List_iterator@V?$_List_val@U?$_List_simple_types@V?$shared_ptr@V?$connection_body@U?$pair@W4slot_meta_group@detail@signals2@boost@@V?$optional@H@4@@std@@V?$slot1@XAAVKeyEvent@app@cinder@@V?$function@$$A6AXAAVKeyEvent@app@cinder@@@Z@boost@@@signals2@boost@@Vmutex@45@@detail@signals2@boost@@@boost@@@std@@@std@@@2@@std@@V?$allocator@U?$pair@$$CBU?$pair@W4slot_meta_group@detail@signals2@boost@@V?$optional@H@4@@std@@V?$_List_iterator@V?$_List_val@U?$_List_simple_types@V?$shared_ptr@V?$connection_body@U?$pair@W4slot_meta_group@detail@signals2@boost@@V?$optional@H@4@@std@@V?$slot1@XAAVKeyEvent@app@cinder@@V?$function@$$A6AXAAVKeyEvent@app@cinder@@@Z@boost@@@signals2@boost@@Vmutex@45@@detail@signals2@boost@@@boost@@@std@@@std@@@2@@std@@@2@@std@@QAEPAU?$_Tree_node@U?$pair@$$CBU?$pair@W4slot_meta_group@detail@signals2@boost@@V?$optional@H@4@@std@@V?$_List_iterator@V?$_List_val@U?$_List_simple_types@V?$shared_ptr@V?$connection_body@U?$pair@W4slot_meta_group@detail@signals2@boost@@V?$optional@H@4@@std@@V?$slot1@XAAVKeyEvent@app@cinder@@V?$function@$$A6AXAAVKeyEvent@app@cinder@@@Z@boost@@@signals2@boost@@Vmutex@45@@detail@signals2@boost@@@boost@@@std@@@std@@@2@@std@@PAX@1@AAU?$pair@$$CBU?$pair@W4slot_meta_group@detail@signals2@boost@@V?$optional@H@4@@std@@V?$_List_iterator@V?$_List_val@U?$_List_simple_types@V?$shared_ptr@V?$connection_body@U?$pair@W4slot_meta_group@detail@signals2@boost@@V?$optional@H@4@@std@@V?$slot1@XAAVKeyEvent@app@cinder@@V?$function@$$A6AXAAVKeyEvent@app@cinder@@@Z@boost@@@signals2@boost@@Vmutex@45@@detail@signals2@boost@@@boost@@@std@@@std@@@2@@1@@Z 00435aa0 f i cinder:Window.obj
 0001:00034aa0       ??$_Buynode@AAU?$pair@$$CBU?$pair@W4slot_meta_group@detail@signals2@boost@@V?$optional@H@4@@std@@V?$_List_iterator@V?$_List_val@U?$_List_simple_types@V?$shared_ptr@V?$connection_body@U?$pair@W4slot_meta_group@detail@signals2@boost@@V?$optional@H@4@@std@@V?$slot1@XAAVMouseEvent@app@cinder@@V?$function@$$A6AXAAVMouseEvent@app@cinder@@@Z@boost@@@signals2@boost@@Vmutex@45@@detail@signals2@boost@@@boost@@@std@@@std@@@2@@std@@@?$_Tree_buy@U?$pair@$$CBU?$pair@W4slot_meta_group@detail@signals2@boost@@V?$optional@H@4@@std@@V?$_List_iterator@V?$_List_val@U?$_List_simple_types@V?$shared_ptr@V?$connection_body@U?$pair@W4slot_meta_group@detail@signals2@boost@@V?$optional@H@4@@std@@V?$slot1@XAAVMouseEvent@app@cinder@@V?$function@$$A6AXAAVMouseEvent@app@cinder@@@Z@boost@@@signals2@boost@@Vmutex@45@@detail@signals2@boost@@@boost@@@std@@@std@@@2@@std@@V?$allocator@U?$pair@$$CBU?$pair@W4slot_meta_group@detail@signals2@boost@@V?$optional@H@4@@std@@V?$_List_iterator@V?$_List_val@U?$_List_simple_types@V?$shared_ptr@V?$connection_body@U?$pair@W4slot_meta_group@detail@signals2@boost@@V?$optional@H@4@@std@@V?$slot1@XAAVMouseEvent@app@cinder@@V?$function@$$A6AXAAVMouseEvent@app@cinder@@@Z@boost@@@signals2@boost@@Vmutex@45@@detail@signals2@boost@@@boost@@@std@@@std@@@2@@std@@@2@@std@@QAEPAU?$_Tree_node@U?$pair@$$CBU?$pair@W4slot_meta_group@detail@signals2@boost@@V?$optional@H@4@@std@@V?$_List_iterator@V?$_List_val@U?$_List_simple_types@V?$shared_ptr@V?$connection_body@U?$pair@W4slot_meta_group@detail@signals2@boost@@V?$optional@H@4@@std@@V?$slot1@XAAVMouseEvent@app@cinder@@V?$function@$$A6AXAAVMouseEvent@app@cinder@@@Z@boost@@@signals2@boost@@Vmutex@45@@detail@signals2@boost@@@boost@@@std@@@std@@@2@@std@@PAX@1@AAU?$pair@$$CBU?$pair@W4slot_meta_group@detail@signals2@boost@@V?$optional@H@4@@std@@V?$_List_iterator@V?$_List_val@U?$_List_simple_types@V?$shared_ptr@V?$connection_body@U?$pair@W4slot_meta_group@detail@signals2@boost@@V?$optional@H@4@@std@@V?$slot1@XAAVMouseEvent@app@cinder@@V?$function@$$A6AXAAVMouseEvent@app@cinder@@@Z@boost@@@signals2@boost@@Vmutex@45@@detail@signals2@boost@@@boost@@@std@@@std@@@2@@1@@Z 00435aa0 f i cinder:Window.obj
 0001:00034aa0       ??$_Buynode@AAU?$pair@$$CBU?$pair@W4slot_meta_group@detail@signals2@boost@@V?$optional@H@4@@std@@V?$_List_iterator@V?$_List_val@U?$_List_simple_types@V?$shared_ptr@V?$connection_body@U?$pair@W4slot_meta_group@detail@signals2@boost@@V?$optional@H@4@@std@@V?$slot1@XAAVFileDropEvent@app@cinder@@V?$function@$$A6AXAAVFileDropEvent@app@cinder@@@Z@boost@@@signals2@boost@@Vmutex@45@@detail@signals2@boost@@@boost@@@std@@@std@@@2@@std@@@?$_Tree_buy@U?$pair@$$CBU?$pair@W4slot_meta_group@detail@signals2@boost@@V?$optional@H@4@@std@@V?$_List_iterator@V?$_List_val@U?$_List_simple_types@V?$shared_ptr@V?$connection_body@U?$pair@W4slot_meta_group@detail@signals2@boost@@V?$optional@H@4@@std@@V?$slot1@XAAVFileDropEvent@app@cinder@@V?$function@$$A6AXAAVFileDropEvent@app@cinder@@@Z@boost@@@signals2@boost@@Vmutex@45@@detail@signals2@boost@@@boost@@@std@@@std@@@2@@std@@V?$allocator@U?$pair@$$CBU?$pair@W4slot_meta_group@detail@signals2@boost@@V?$optional@H@4@@std@@V?$_List_iterator@V?$_List_val@U?$_List_simple_types@V?$shared_ptr@V?$connection_body@U?$pair@W4slot_meta_group@detail@signals2@boost@@V?$optional@H@4@@std@@V?$slot1@XAAVFileDropEvent@app@cinder@@V?$function@$$A6AXAAVFileDropEvent@app@cinder@@@Z@boost@@@signals2@boost@@Vmutex@45@@detail@signals2@boost@@@boost@@@std@@@std@@@2@@std@@@2@@std@@QAEPAU?$_Tree_node@U?$pair@$$CBU?$pair@W4slot_meta_group@detail@signals2@boost@@V?$optional@H@4@@std@@V?$_List_iterator@V?$_List_val@U?$_List_simple_types@V?$shared_ptr@V?$connection_body@U?$pair@W4slot_meta_group@detail@signals2@boost@@V?$optional@H@4@@std@@V?$slot1@XAAVFileDropEvent@app@cinder@@V?$function@$$A6AXAAVFileDropEvent@app@cinder@@@Z@boost@@@signals2@boost@@Vmutex@45@@detail@signals2@boost@@@boost@@@std@@@std@@@2@@std@@PAX@1@AAU?$pair@$$CBU?$pair@W4slot_meta_group@detail@signals2@boost@@V?$optional@H@4@@std@@V?$_List_iterator@V?$_List_val@U?$_List_simple_types@V?$shared_ptr@V?$connection_body@U?$pair@W4slot_meta_group@detail@signals2@boost@@V?$optional@H@4@@std@@V?$slot1@XAAVFileDropEvent@app@cinder@@V?$function@$$A6AXAAVFileDropEvent@app@cinder@@@Z@boost@@@signals2@boost@@Vmutex@45@@detail@signals2@boost@@@boost@@@std@@@std@@@2@@1@@Z 00435aa0 f i cinder:Window.obj
 0001:00034aa0       ??$_Buynode@AAU?$pair@$$CBU?$pair@W4slot_meta_group@detail@signals2@boost@@V?$optional@H@4@@std@@V?$_List_iterator@V?$_List_val@U?$_List_simple_types@V?$shared_ptr@V?$connection_body@U?$pair@W4slot_meta_group@detail@signals2@boost@@V?$optional@H@4@@std@@V?$slot1@XAAVTouchEvent@app@cinder@@V?$function@$$A6AXAAVTouchEvent@app@cinder@@@Z@boost@@@signals2@boost@@Vmutex@45@@detail@signals2@boost@@@boost@@@std@@@std@@@2@@std@@@?$_Tree_buy@U?$pair@$$CBU?$pair@W4slot_meta_group@detail@signals2@boost@@V?$optional@H@4@@std@@V?$_List_iterator@V?$_List_val@U?$_List_simple_types@V?$shared_ptr@V?$connection_body@U?$pair@W4slot_meta_group@detail@signals2@boost@@V?$optional@H@4@@std@@V?$slot1@XAAVTouchEvent@app@cinder@@V?$function@$$A6AXAAVTouchEvent@app@cinder@@@Z@boost@@@signals2@boost@@Vmutex@45@@detail@signals2@boost@@@boost@@@std@@@std@@@2@@std@@V?$allocator@U?$pair@$$CBU?$pair@W4slot_meta_group@detail@signals2@boost@@V?$optional@H@4@@std@@V?$_List_iterator@V?$_List_val@U?$_List_simple_types@V?$shared_ptr@V?$connection_body@U?$pair@W4slot_meta_group@detail@signals2@boost@@V?$optional@H@4@@std@@V?$slot1@XAAVTouchEvent@app@cinder@@V?$function@$$A6AXAAVTouchEvent@app@cinder@@@Z@boost@@@signals2@boost@@Vmutex@45@@detail@signals2@boost@@@boost@@@std@@@std@@@2@@std@@@2@@std@@QAEPAU?$_Tree_node@U?$pair@$$CBU?$pair@W4slot_meta_group@detail@signals2@boost@@V?$optional@H@4@@std@@V?$_List_iterator@V?$_List_val@U?$_List_simple_types@V?$shared_ptr@V?$connection_body@U?$pair@W4slot_meta_group@detail@signals2@boost@@V?$optional@H@4@@std@@V?$slot1@XAAVTouchEvent@app@cinder@@V?$function@$$A6AXAAVTouchEvent@app@cinder@@@Z@boost@@@signals2@boost@@Vmutex@45@@detail@signals2@boost@@@boost@@@std@@@std@@@2@@std@@PAX@1@AAU?$pair@$$CBU?$pair@W4slot_meta_group@detail@signals2@boost@@V?$optional@H@4@@std@@V?$_List_iterator@V?$_List_val@U?$_List_simple_types@V?$shared_ptr@V?$connection_body@U?$pair@W4slot_meta_group@detail@signals2@boost@@V?$optional@H@4@@std@@V?$slot1@XAAVTouchEvent@app@cinder@@V?$function@$$A6AXAAVTouchEvent@app@cinder@@@Z@boost@@@signals2@boost@@Vmutex@45@@detail@signals2@boost@@@boost@@@std@@@std@@@2@@1@@Z 00435aa0 f i cinder:Window.obj
 0001:00034aa0       ??$_Buynode@U?$pair@U?$pair@W4slot_meta_group@detail@signals2@boost@@V?$optional@H@4@@std@@V?$_List_iterator@V?$_List_val@U?$_List_simple_types@V?$shared_ptr@V?$connection_body@U?$pair@W4slot_meta_group@detail@signals2@boost@@V?$optional@H@4@@std@@V?$slot1@XAAVMouseEvent@app@cinder@@V?$function@$$A6AXAAVMouseEvent@app@cinder@@@Z@boost@@@signals2@boost@@Vmutex@45@@detail@signals2@boost@@@boost@@@std@@@std@@@2@@std@@@?$_Tree_buy@U?$pair@$$CBU?$pair@W4slot_meta_group@detail@signals2@boost@@V?$optional@H@4@@std@@V?$_List_iterator@V?$_List_val@U?$_List_simple_types@V?$shared_ptr@V?$connection_body@U?$pair@W4slot_meta_group@detail@signals2@boost@@V?$optional@H@4@@std@@V?$slot1@XAAVMouseEvent@app@cinder@@V?$function@$$A6AXAAVMouseEvent@app@cinder@@@Z@boost@@@signals2@boost@@Vmutex@45@@detail@signals2@boost@@@boost@@@std@@@std@@@2@@std@@V?$allocator@U?$pair@$$CBU?$pair@W4slot_meta_group@detail@signals2@boost@@V?$optional@H@4@@std@@V?$_List_iterator@V?$_List_val@U?$_List_simple_types@V?$shared_ptr@V?$connection_body@U?$pair@W4slot_meta_group@detail@signals2@boost@@V?$optional@H@4@@std@@V?$slot1@XAAVMouseEvent@app@cinder@@V?$function@$$A6AXAAVMouseEvent@app@cinder@@@Z@boost@@@signals2@boost@@Vmutex@45@@detail@signals2@boost@@@boost@@@std@@@std@@@2@@std@@@2@@std@@QAEPAU?$_Tree_node@U?$pair@$$CBU?$pair@W4slot_meta_group@detail@signals2@boost@@V?$optional@H@4@@std@@V?$_List_iterator@V?$_List_val@U?$_List_simple_types@V?$shared_ptr@V?$connection_body@U?$pair@W4slot_meta_group@detail@signals2@boost@@V?$optional@H@4@@std@@V?$slot1@XAAVMouseEvent@app@cinder@@V?$function@$$A6AXAAVMouseEvent@app@cinder@@@Z@boost@@@signals2@boost@@Vmutex@45@@detail@signals2@boost@@@boost@@@std@@@std@@@2@@std@@PAX@1@$$QAU?$pair@U?$pair@W4slot_meta_group@detail@signals2@boost@@V?$optional@H@4@@std@@V?$_List_iterator@V?$_List_val@U?$_List_simple_types@V?$shared_ptr@V?$connection_body@U?$pair@W4slot_meta_group@detail@signals2@boost@@V?$optional@H@4@@std@@V?$slot1@XAAVMouseEvent@app@cinder@@V?$function@$$A6AXAAVMouseEvent@app@cinder@@@Z@boost@@@signals2@boost@@Vmutex@45@@detail@signals2@boost@@@boost@@@std@@@std@@@2@@1@@Z 00435aa0 f i cinder:Window.obj
 0001:00034aa0       ??$_Buynode@U?$pair@U?$pair@W4slot_meta_group@detail@signals2@boost@@V?$optional@H@4@@std@@V?$_List_iterator@V?$_List_val@U?$_List_simple_types@V?$shared_ptr@V?$connection_body@U?$pair@W4slot_meta_group@detail@signals2@boost@@V?$optional@H@4@@std@@V?$slot0@XV?$function@$$A6AXXZ@boost@@@signals2@boost@@Vmutex@45@@detail@signals2@boost@@@boost@@@std@@@std@@@2@@std@@@?$_Tree_buy@U?$pair@$$CBU?$pair@W4slot_meta_group@detail@signals2@boost@@V?$optional@H@4@@std@@V?$_List_iterator@V?$_List_val@U?$_List_simple_types@V?$shared_ptr@V?$connection_body@U?$pair@W4slot_meta_group@detail@signals2@boost@@V?$optional@H@4@@std@@V?$slot0@XV?$function@$$A6AXXZ@boost@@@signals2@boost@@Vmutex@45@@detail@signals2@boost@@@boost@@@std@@@std@@@2@@std@@V?$allocator@U?$pair@$$CBU?$pair@W4slot_meta_group@detail@signals2@boost@@V?$optional@H@4@@std@@V?$_List_iterator@V?$_List_val@U?$_List_simple_types@V?$shared_ptr@V?$connection_body@U?$pair@W4slot_meta_group@detail@signals2@boost@@V?$optional@H@4@@std@@V?$slot0@XV?$function@$$A6AXXZ@boost@@@signals2@boost@@Vmutex@45@@detail@signals2@boost@@@boost@@@std@@@std@@@2@@std@@@2@@std@@QAEPAU?$_Tree_node@U?$pair@$$CBU?$pair@W4slot_meta_group@detail@signals2@boost@@V?$optional@H@4@@std@@V?$_List_iterator@V?$_List_val@U?$_List_simple_types@V?$shared_ptr@V?$connection_body@U?$pair@W4slot_meta_group@detail@signals2@boost@@V?$optional@H@4@@std@@V?$slot0@XV?$function@$$A6AXXZ@boost@@@signals2@boost@@Vmutex@45@@detail@signals2@boost@@@boost@@@std@@@std@@@2@@std@@PAX@1@$$QAU?$pair@U?$pair@W4slot_meta_group@detail@signals2@boost@@V?$optional@H@4@@std@@V?$_List_iterator@V?$_List_val@U?$_List_simple_types@V?$shared_ptr@V?$connection_body@U?$pair@W4slot_meta_group@detail@signals2@boost@@V?$optional@H@4@@std@@V?$slot0@XV?$function@$$A6AXXZ@boost@@@signals2@boost@@Vmutex@45@@detail@signals2@boost@@@boost@@@std@@@std@@@2@@1@@Z 00435aa0 f i cinder:Window.obj
 0001:00034aa0       ??$_Buynode@U?$pair@U?$pair@W4slot_meta_group@detail@signals2@boost@@V?$optional@H@4@@std@@V?$_List_iterator@V?$_List_val@U?$_List_simple_types@V?$shared_ptr@V?$connection_body@U?$pair@W4slot_meta_group@detail@signals2@boost@@V?$optional@H@4@@std@@V?$slot1@XAAVKeyEvent@app@cinder@@V?$function@$$A6AXAAVKeyEvent@app@cinder@@@Z@boost@@@signals2@boost@@Vmutex@45@@detail@signals2@boost@@@boost@@@std@@@std@@@2@@std@@@?$_Tree_buy@U?$pair@$$CBU?$pair@W4slot_meta_group@detail@signals2@boost@@V?$optional@H@4@@std@@V?$_List_iterator@V?$_List_val@U?$_List_simple_types@V?$shared_ptr@V?$connection_body@U?$pair@W4slot_meta_group@detail@signals2@boost@@V?$optional@H@4@@std@@V?$slot1@XAAVKeyEvent@app@cinder@@V?$function@$$A6AXAAVKeyEvent@app@cinder@@@Z@boost@@@signals2@boost@@Vmutex@45@@detail@signals2@boost@@@boost@@@std@@@std@@@2@@std@@V?$allocator@U?$pair@$$CBU?$pair@W4slot_meta_group@detail@signals2@boost@@V?$optional@H@4@@std@@V?$_List_iterator@V?$_List_val@U?$_List_simple_types@V?$shared_ptr@V?$connection_body@U?$pair@W4slot_meta_group@detail@signals2@boost@@V?$optional@H@4@@std@@V?$slot1@XAAVKeyEvent@app@cinder@@V?$function@$$A6AXAAVKeyEvent@app@cinder@@@Z@boost@@@signals2@boost@@Vmutex@45@@detail@signals2@boost@@@boost@@@std@@@std@@@2@@std@@@2@@std@@QAEPAU?$_Tree_node@U?$pair@$$CBU?$pair@W4slot_meta_group@detail@signals2@boost@@V?$optional@H@4@@std@@V?$_List_iterator@V?$_List_val@U?$_List_simple_types@V?$shared_ptr@V?$connection_body@U?$pair@W4slot_meta_group@detail@signals2@boost@@V?$optional@H@4@@std@@V?$slot1@XAAVKeyEvent@app@cinder@@V?$function@$$A6AXAAVKeyEvent@app@cinder@@@Z@boost@@@signals2@boost@@Vmutex@45@@detail@signals2@boost@@@boost@@@std@@@std@@@2@@std@@PAX@1@$$QAU?$pair@U?$pair@W4slot_meta_group@detail@signals2@boost@@V?$optional@H@4@@std@@V?$_List_iterator@V?$_List_val@U?$_List_simple_types@V?$shared_ptr@V?$connection_body@U?$pair@W4slot_meta_group@detail@signals2@boost@@V?$optional@H@4@@std@@V?$slot1@XAAVKeyEvent@app@cinder@@V?$function@$$A6AXAAVKeyEvent@app@cinder@@@Z@boost@@@signals2@boost@@Vmutex@45@@detail@signals2@boost@@@boost@@@std@@@std@@@2@@1@@Z 00435aa0 f i cinder:Window.obj
 0001:00034aa0       ??$_Buynode@U?$pair@U?$pair@W4slot_meta_group@detail@signals2@boost@@V?$optional@H@4@@std@@V?$_List_iterator@V?$_List_val@U?$_List_simple_types@V?$shared_ptr@V?$connection_body@U?$pair@W4slot_meta_group@detail@signals2@boost@@V?$optional@H@4@@std@@V?$slot1@XAAVTouchEvent@app@cinder@@V?$function@$$A6AXAAVTouchEvent@app@cinder@@@Z@boost@@@signals2@boost@@Vmutex@45@@detail@signals2@boost@@@boost@@@std@@@std@@@2@@std@@@?$_Tree_buy@U?$pair@$$CBU?$pair@W4slot_meta_group@detail@signals2@boost@@V?$optional@H@4@@std@@V?$_List_iterator@V?$_List_val@U?$_List_simple_types@V?$shared_ptr@V?$connection_body@U?$pair@W4slot_meta_group@detail@signals2@boost@@V?$optional@H@4@@std@@V?$slot1@XAAVTouchEvent@app@cinder@@V?$function@$$A6AXAAVTouchEvent@app@cinder@@@Z@boost@@@signals2@boost@@Vmutex@45@@detail@signals2@boost@@@boost@@@std@@@std@@@2@@std@@V?$allocator@U?$pair@$$CBU?$pair@W4slot_meta_group@detail@signals2@boost@@V?$optional@H@4@@std@@V?$_List_iterator@V?$_List_val@U?$_List_simple_types@V?$shared_ptr@V?$connection_body@U?$pair@W4slot_meta_group@detail@signals2@boost@@V?$optional@H@4@@std@@V?$slot1@XAAVTouchEvent@app@cinder@@V?$function@$$A6AXAAVTouchEvent@app@cinder@@@Z@boost@@@signals2@boost@@Vmutex@45@@detail@signals2@boost@@@boost@@@std@@@std@@@2@@std@@@2@@std@@QAEPAU?$_Tree_node@U?$pair@$$CBU?$pair@W4slot_meta_group@detail@signals2@boost@@V?$optional@H@4@@std@@V?$_List_iterator@V?$_List_val@U?$_List_simple_types@V?$shared_ptr@V?$connection_body@U?$pair@W4slot_meta_group@detail@signals2@boost@@V?$optional@H@4@@std@@V?$slot1@XAAVTouchEvent@app@cinder@@V?$function@$$A6AXAAVTouchEvent@app@cinder@@@Z@boost@@@signals2@boost@@Vmutex@45@@detail@signals2@boost@@@boost@@@std@@@std@@@2@@std@@PAX@1@$$QAU?$pair@U?$pair@W4slot_meta_group@detail@signals2@boost@@V?$optional@H@4@@std@@V?$_List_iterator@V?$_List_val@U?$_List_simple_types@V?$shared_ptr@V?$connection_body@U?$pair@W4slot_meta_group@detail@signals2@boost@@V?$optional@H@4@@std@@V?$slot1@XAAVTouchEvent@app@cinder@@V?$function@$$A6AXAAVTouchEvent@app@cinder@@@Z@boost@@@signals2@boost@@Vmutex@45@@detail@signals2@boost@@@boost@@@std@@@std@@@2@@1@@Z 00435aa0 f i cinder:Window.obj
 0001:00034aa0       ??$_Buynode@AAU?$pair@$$CBU?$pair@W4slot_meta_group@detail@signals2@boost@@V?$optional@H@4@@std@@V?$_List_iterator@V?$_List_val@U?$_List_simple_types@V?$shared_ptr@V?$connection_body@U?$pair@W4slot_meta_group@detail@signals2@boost@@V?$optional@H@4@@std@@V?$slot0@_NV?$function@$$A6A_NXZ@boost@@@signals2@boost@@Vmutex@45@@detail@signals2@boost@@@boost@@@std@@@std@@@2@@std@@@?$_Tree_buy@U?$pair@$$CBU?$pair@W4slot_meta_group@detail@signals2@boost@@V?$optional@H@4@@std@@V?$_List_iterator@V?$_List_val@U?$_List_simple_types@V?$shared_ptr@V?$connection_body@U?$pair@W4slot_meta_group@detail@signals2@boost@@V?$optional@H@4@@std@@V?$slot0@_NV?$function@$$A6A_NXZ@boost@@@signals2@boost@@Vmutex@45@@detail@signals2@boost@@@boost@@@std@@@std@@@2@@std@@V?$allocator@U?$pair@$$CBU?$pair@W4slot_meta_group@detail@signals2@boost@@V?$optional@H@4@@std@@V?$_List_iterator@V?$_List_val@U?$_List_simple_types@V?$shared_ptr@V?$connection_body@U?$pair@W4slot_meta_group@detail@signals2@boost@@V?$optional@H@4@@std@@V?$slot0@_NV?$function@$$A6A_NXZ@boost@@@signals2@boost@@Vmutex@45@@detail@signals2@boost@@@boost@@@std@@@std@@@2@@std@@@2@@std@@QAEPAU?$_Tree_node@U?$pair@$$CBU?$pair@W4slot_meta_group@detail@signals2@boost@@V?$optional@H@4@@std@@V?$_List_iterator@V?$_List_val@U?$_List_simple_types@V?$shared_ptr@V?$connection_body@U?$pair@W4slot_meta_group@detail@signals2@boost@@V?$optional@H@4@@std@@V?$slot0@_NV?$function@$$A6A_NXZ@boost@@@signals2@boost@@Vmutex@45@@detail@signals2@boost@@@boost@@@std@@@std@@@2@@std@@PAX@1@AAU?$pair@$$CBU?$pair@W4slot_meta_group@detail@signals2@boost@@V?$optional@H@4@@std@@V?$_List_iterator@V?$_List_val@U?$_List_simple_types@V?$shared_ptr@V?$connection_body@U?$pair@W4slot_meta_group@detail@signals2@boost@@V?$optional@H@4@@std@@V?$slot0@_NV?$function@$$A6A_NXZ@boost@@@signals2@boost@@Vmutex@45@@detail@signals2@boost@@@boost@@@std@@@std@@@2@@1@@Z 00435aa0 f i cinder:AppBasic.obj
 0001:00034aa0       ??$_Buynode@AAU?$pair@$$CBU?$pair@W4slot_meta_group@detail@signals2@boost@@V?$optional@H@4@@std@@V?$_List_iterator@V?$_List_val@U?$_List_simple_types@V?$shared_ptr@V?$connection_body@U?$pair@W4slot_meta_group@detail@signals2@boost@@V?$optional@H@4@@std@@V?$slot0@XV?$function@$$A6AXXZ@boost@@@signals2@boost@@Vmutex@45@@detail@signals2@boost@@@boost@@@std@@@std@@@2@@std@@@?$_Tree_buy@U?$pair@$$CBU?$pair@W4slot_meta_group@detail@signals2@boost@@V?$optional@H@4@@std@@V?$_List_iterator@V?$_List_val@U?$_List_simple_types@V?$shared_ptr@V?$connection_body@U?$pair@W4slot_meta_group@detail@signals2@boost@@V?$optional@H@4@@std@@V?$slot0@XV?$function@$$A6AXXZ@boost@@@signals2@boost@@Vmutex@45@@detail@signals2@boost@@@boost@@@std@@@std@@@2@@std@@V?$allocator@U?$pair@$$CBU?$pair@W4slot_meta_group@detail@signals2@boost@@V?$optional@H@4@@std@@V?$_List_iterator@V?$_List_val@U?$_List_simple_types@V?$shared_ptr@V?$connection_body@U?$pair@W4slot_meta_group@detail@signals2@boost@@V?$optional@H@4@@std@@V?$slot0@XV?$function@$$A6AXXZ@boost@@@signals2@boost@@Vmutex@45@@detail@signals2@boost@@@boost@@@std@@@std@@@2@@std@@@2@@std@@QAEPAU?$_Tree_node@U?$pair@$$CBU?$pair@W4slot_meta_group@detail@signals2@boost@@V?$optional@H@4@@std@@V?$_List_iterator@V?$_List_val@U?$_List_simple_types@V?$shared_ptr@V?$connection_body@U?$pair@W4slot_meta_group@detail@signals2@boost@@V?$optional@H@4@@std@@V?$slot0@XV?$function@$$A6AXXZ@boost@@@signals2@boost@@Vmutex@45@@detail@signals2@boost@@@boost@@@std@@@std@@@2@@std@@PAX@1@AAU?$pair@$$CBU?$pair@W4slot_meta_group@detail@signals2@boost@@V?$optional@H@4@@std@@V?$_List_iterator@V?$_List_val@U?$_List_simple_types@V?$shared_ptr@V?$connection_body@U?$pair@W4slot_meta_group@detail@signals2@boost@@V?$optional@H@4@@std@@V?$slot0@XV?$function@$$A6AXXZ@boost@@@signals2@boost@@Vmutex@45@@detail@signals2@boost@@@boost@@@std@@@std@@@2@@1@@Z 00435aa0 f i cinder:Window.obj
 0001:00034af0       ??$_Destroy@V?$variant@V?$shared_ptr@X@boost@@Vforeign_void_shared_ptr@detail@signals2@2@Uvoid_@042@U6042@U6042@U6042@U6042@U6042@U6042@U6042@U6042@U6042@U6042@U6042@U6042@U6042@U6042@U6042@U6042@U6042@@boost@@@std@@YAXPAV?$variant@V?$shared_ptr@X@boost@@Vforeign_void_shared_ptr@detail@signals2@2@Uvoid_@042@U6042@U6042@U6042@U6042@U6042@U6042@U6042@U6042@U6042@U6042@U6042@U6042@U6042@U6042@U6042@U6042@U6042@@boost@@@Z 00435af0 f i cinder:Window.obj
 0001:00034b30       ??$_Insert_at@AAU?$pair@$$CBU?$pair@W4slot_meta_group@detail@signals2@boost@@V?$optional@H@4@@std@@V?$_List_iterator@V?$_List_val@U?$_List_simple_types@V?$shared_ptr@V?$connection_body@U?$pair@W4slot_meta_group@detail@signals2@boost@@V?$optional@H@4@@std@@V?$slot1@XAAVMouseEvent@app@cinder@@V?$function@$$A6AXAAVMouseEvent@app@cinder@@@Z@boost@@@signals2@boost@@Vmutex@45@@detail@signals2@boost@@@boost@@@std@@@std@@@2@@std@@PAU?$_Tree_node@U?$pair@$$CBU?$pair@W4slot_meta_group@detail@signals2@boost@@V?$optional@H@4@@std@@V?$_List_iterator@V?$_List_val@U?$_List_simple_types@V?$shared_ptr@V?$connection_body@U?$pair@W4slot_meta_group@detail@signals2@boost@@V?$optional@H@4@@std@@V?$slot1@XAAVMouseEvent@app@cinder@@V?$function@$$A6AXAAVMouseEvent@app@cinder@@@Z@boost@@@signals2@boost@@Vmutex@45@@detail@signals2@boost@@@boost@@@std@@@std@@@2@@std@@PAX@2@@?$_Tree@V?$_Tmap_traits@U?$pair@W4slot_meta_group@detail@signals2@boost@@V?$optional@H@4@@std@@V?$_List_iterator@V?$_List_val@U?$_List_simple_types@V?$shared_ptr@V?$connection_body@U?$pair@W4slot_meta_group@detail@signals2@boost@@V?$optional@H@4@@std@@V?$slot1@XAAVMouseEvent@app@cinder@@V?$function@$$A6AXAAVMouseEvent@app@cinder@@@Z@boost@@@signals2@boost@@Vmutex@45@@detail@signals2@boost@@@boost@@@std@@@std@@@2@V?$group_key_less@HU?$less@H@std@@@detail@signals2@boost@@V?$allocator@U?$pair@$$CBU?$pair@W4slot_meta_group@detail@signals2@boost@@V?$optional@H@4@@std@@V?$_List_iterator@V?$_List_val@U?$_List_simple_types@V?$shared_ptr@V?$connection_body@U?$pair@W4slot_meta_group@detail@signals2@boost@@V?$optional@H@4@@std@@V?$slot1@XAAVMouseEvent@app@cinder@@V?$function@$$A6AXAAVMouseEvent@app@cinder@@@Z@boost@@@signals2@boost@@Vmutex@45@@detail@signals2@boost@@@boost@@@std@@@std@@@2@@std@@@2@$0A@@std@@@std@@IAE?AV?$_Tree_iterator@V?$_Tree_val@U?$_Tree_simple_types@U?$pair@$$CBU?$pair@W4slot_meta_group@detail@signals2@boost@@V?$optional@H@4@@std@@V?$_List_iterator@V?$_List_val@U?$_List_simple_types@V?$shared_ptr@V?$connection_body@U?$pair@W4slot_meta_group@detail@signals2@boost@@V?$optional@H@4@@std@@V?$slot1@XAAVMouseEvent@app@cinder@@V?$function@$$A6AXAAVMouseEvent@app@cinder@@@Z@boost@@@signals2@boost@@Vmutex@45@@detail@signals2@boost@@@boost@@@std@@@std@@@2@@std@@@std@@@std@@@1@_NPAU?$_Tree_node@U?$pair@$$CBU?$pair@W4slot_meta_group@detail@signals2@boost@@V?$optional@H@4@@std@@V?$_List_iterator@V?$_List_val@U?$_List_simple_types@V?$shared_ptr@V?$connection_body@U?$pair@W4slot_meta_group@detail@signals2@boost@@V?$optional@H@4@@std@@V?$slot1@XAAVMouseEvent@app@cinder@@V?$function@$$A6AXAAVMouseEvent@app@cinder@@@Z@boost@@@signals2@boost@@Vmutex@45@@detail@signals2@boost@@@boost@@@std@@@std@@@2@@std@@PAX@1@AAU?$pair@$$CBU?$pair@W4slot_meta_group@detail@signals2@boost@@V?$optional@H@4@@std@@V?$_List_iterator@V?$_List_val@U?$_List_simple_types@V?$shared_ptr@V?$connection_body@U?$pair@W4slot_meta_group@detail@signals2@boost@@V?$optional@H@4@@std@@V?$slot1@XAAVMouseEvent@app@cinder@@V?$function@$$A6AXAAVMouseEvent@app@cinder@@@Z@boost@@@signals2@boost@@Vmutex@45@@detail@signals2@boost@@@boost@@@std@@@std@@@2@@1@1@Z 00435b30 f i cinder:Window.obj
 0001:00034b30       ??$_Insert_at@AAU?$pair@$$CBU?$pair@W4slot_meta_group@detail@signals2@boost@@V?$optional@H@4@@std@@V?$_List_iterator@V?$_List_val@U?$_List_simple_types@V?$shared_ptr@V?$connection_body@U?$pair@W4slot_meta_group@detail@signals2@boost@@V?$optional@H@4@@std@@V?$slot1@XAAVFileDropEvent@app@cinder@@V?$function@$$A6AXAAVFileDropEvent@app@cinder@@@Z@boost@@@signals2@boost@@Vmutex@45@@detail@signals2@boost@@@boost@@@std@@@std@@@2@@std@@PAU?$_Tree_node@U?$pair@$$CBU?$pair@W4slot_meta_group@detail@signals2@boost@@V?$optional@H@4@@std@@V?$_List_iterator@V?$_List_val@U?$_List_simple_types@V?$shared_ptr@V?$connection_body@U?$pair@W4slot_meta_group@detail@signals2@boost@@V?$optional@H@4@@std@@V?$slot1@XAAVFileDropEvent@app@cinder@@V?$function@$$A6AXAAVFileDropEvent@app@cinder@@@Z@boost@@@signals2@boost@@Vmutex@45@@detail@signals2@boost@@@boost@@@std@@@std@@@2@@std@@PAX@2@@?$_Tree@V?$_Tmap_traits@U?$pair@W4slot_meta_group@detail@signals2@boost@@V?$optional@H@4@@std@@V?$_List_iterator@V?$_List_val@U?$_List_simple_types@V?$shared_ptr@V?$connection_body@U?$pair@W4slot_meta_group@detail@signals2@boost@@V?$optional@H@4@@std@@V?$slot1@XAAVFileDropEvent@app@cinder@@V?$function@$$A6AXAAVFileDropEvent@app@cinder@@@Z@boost@@@signals2@boost@@Vmutex@45@@detail@signals2@boost@@@boost@@@std@@@std@@@2@V?$group_key_less@HU?$less@H@std@@@detail@signals2@boost@@V?$allocator@U?$pair@$$CBU?$pair@W4slot_meta_group@detail@signals2@boost@@V?$optional@H@4@@std@@V?$_List_iterator@V?$_List_val@U?$_List_simple_types@V?$shared_ptr@V?$connection_body@U?$pair@W4slot_meta_group@detail@signals2@boost@@V?$optional@H@4@@std@@V?$slot1@XAAVFileDropEvent@app@cinder@@V?$function@$$A6AXAAVFileDropEvent@app@cinder@@@Z@boost@@@signals2@boost@@Vmutex@45@@detail@signals2@boost@@@boost@@@std@@@std@@@2@@std@@@2@$0A@@std@@@std@@IAE?AV?$_Tree_iterator@V?$_Tree_val@U?$_Tree_simple_types@U?$pair@$$CBU?$pair@W4slot_meta_group@detail@signals2@boost@@V?$optional@H@4@@std@@V?$_List_iterator@V?$_List_val@U?$_List_simple_types@V?$shared_ptr@V?$connection_body@U?$pair@W4slot_meta_group@detail@signals2@boost@@V?$optional@H@4@@std@@V?$slot1@XAAVFileDropEvent@app@cinder@@V?$function@$$A6AXAAVFileDropEvent@app@cinder@@@Z@boost@@@signals2@boost@@Vmutex@45@@detail@signals2@boost@@@boost@@@std@@@std@@@2@@std@@@std@@@std@@@1@_NPAU?$_Tree_node@U?$pair@$$CBU?$pair@W4slot_meta_group@detail@signals2@boost@@V?$optional@H@4@@std@@V?$_List_iterator@V?$_List_val@U?$_List_simple_types@V?$shared_ptr@V?$connection_body@U?$pair@W4slot_meta_group@detail@signals2@boost@@V?$optional@H@4@@std@@V?$slot1@XAAVFileDropEvent@app@cinder@@V?$function@$$A6AXAAVFileDropEvent@app@cinder@@@Z@boost@@@signals2@boost@@Vmutex@45@@detail@signals2@boost@@@boost@@@std@@@std@@@2@@std@@PAX@1@AAU?$pair@$$CBU?$pair@W4slot_meta_group@detail@signals2@boost@@V?$optional@H@4@@std@@V?$_List_iterator@V?$_List_val@U?$_List_simple_types@V?$shared_ptr@V?$connection_body@U?$pair@W4slot_meta_group@detail@signals2@boost@@V?$optional@H@4@@std@@V?$slot1@XAAVFileDropEvent@app@cinder@@V?$function@$$A6AXAAVFileDropEvent@app@cinder@@@Z@boost@@@signals2@boost@@Vmutex@45@@detail@signals2@boost@@@boost@@@std@@@std@@@2@@1@1@Z 00435b30 f i cinder:Window.obj
 0001:00034b30       ??$_Insert_at@AAU?$pair@$$CBU?$pair@W4slot_meta_group@detail@signals2@boost@@V?$optional@H@4@@std@@V?$_List_iterator@V?$_List_val@U?$_List_simple_types@V?$shared_ptr@V?$connection_body@U?$pair@W4slot_meta_group@detail@signals2@boost@@V?$optional@H@4@@std@@V?$slot1@XAAVKeyEvent@app@cinder@@V?$function@$$A6AXAAVKeyEvent@app@cinder@@@Z@boost@@@signals2@boost@@Vmutex@45@@detail@signals2@boost@@@boost@@@std@@@std@@@2@@std@@PAU?$_Tree_node@U?$pair@$$CBU?$pair@W4slot_meta_group@detail@signals2@boost@@V?$optional@H@4@@std@@V?$_List_iterator@V?$_List_val@U?$_List_simple_types@V?$shared_ptr@V?$connection_body@U?$pair@W4slot_meta_group@detail@signals2@boost@@V?$optional@H@4@@std@@V?$slot1@XAAVKeyEvent@app@cinder@@V?$function@$$A6AXAAVKeyEvent@app@cinder@@@Z@boost@@@signals2@boost@@Vmutex@45@@detail@signals2@boost@@@boost@@@std@@@std@@@2@@std@@PAX@2@@?$_Tree@V?$_Tmap_traits@U?$pair@W4slot_meta_group@detail@signals2@boost@@V?$optional@H@4@@std@@V?$_List_iterator@V?$_List_val@U?$_List_simple_types@V?$shared_ptr@V?$connection_body@U?$pair@W4slot_meta_group@detail@signals2@boost@@V?$optional@H@4@@std@@V?$slot1@XAAVKeyEvent@app@cinder@@V?$function@$$A6AXAAVKeyEvent@app@cinder@@@Z@boost@@@signals2@boost@@Vmutex@45@@detail@signals2@boost@@@boost@@@std@@@std@@@2@V?$group_key_less@HU?$less@H@std@@@detail@signals2@boost@@V?$allocator@U?$pair@$$CBU?$pair@W4slot_meta_group@detail@signals2@boost@@V?$optional@H@4@@std@@V?$_List_iterator@V?$_List_val@U?$_List_simple_types@V?$shared_ptr@V?$connection_body@U?$pair@W4slot_meta_group@detail@signals2@boost@@V?$optional@H@4@@std@@V?$slot1@XAAVKeyEvent@app@cinder@@V?$function@$$A6AXAAVKeyEvent@app@cinder@@@Z@boost@@@signals2@boost@@Vmutex@45@@detail@signals2@boost@@@boost@@@std@@@std@@@2@@std@@@2@$0A@@std@@@std@@IAE?AV?$_Tree_iterator@V?$_Tree_val@U?$_Tree_simple_types@U?$pair@$$CBU?$pair@W4slot_meta_group@detail@signals2@boost@@V?$optional@H@4@@std@@V?$_List_iterator@V?$_List_val@U?$_List_simple_types@V?$shared_ptr@V?$connection_body@U?$pair@W4slot_meta_group@detail@signals2@boost@@V?$optional@H@4@@std@@V?$slot1@XAAVKeyEvent@app@cinder@@V?$function@$$A6AXAAVKeyEvent@app@cinder@@@Z@boost@@@signals2@boost@@Vmutex@45@@detail@signals2@boost@@@boost@@@std@@@std@@@2@@std@@@std@@@std@@@1@_NPAU?$_Tree_node@U?$pair@$$CBU?$pair@W4slot_meta_group@detail@signals2@boost@@V?$optional@H@4@@std@@V?$_List_iterator@V?$_List_val@U?$_List_simple_types@V?$shared_ptr@V?$connection_body@U?$pair@W4slot_meta_group@detail@signals2@boost@@V?$optional@H@4@@std@@V?$slot1@XAAVKeyEvent@app@cinder@@V?$function@$$A6AXAAVKeyEvent@app@cinder@@@Z@boost@@@signals2@boost@@Vmutex@45@@detail@signals2@boost@@@boost@@@std@@@std@@@2@@std@@PAX@1@AAU?$pair@$$CBU?$pair@W4slot_meta_group@detail@signals2@boost@@V?$optional@H@4@@std@@V?$_List_iterator@V?$_List_val@U?$_List_simple_types@V?$shared_ptr@V?$connection_body@U?$pair@W4slot_meta_group@detail@signals2@boost@@V?$optional@H@4@@std@@V?$slot1@XAAVKeyEvent@app@cinder@@V?$function@$$A6AXAAVKeyEvent@app@cinder@@@Z@boost@@@signals2@boost@@Vmutex@45@@detail@signals2@boost@@@boost@@@std@@@std@@@2@@1@1@Z 00435b30 f i cinder:Window.obj
 0001:00034b30       ??$_Insert_at@AAU?$pair@$$CBU?$pair@W4slot_meta_group@detail@signals2@boost@@V?$optional@H@4@@std@@V?$_List_iterator@V?$_List_val@U?$_List_simple_types@V?$shared_ptr@V?$connection_body@U?$pair@W4slot_meta_group@detail@signals2@boost@@V?$optional@H@4@@std@@V?$slot1@XAAVTouchEvent@app@cinder@@V?$function@$$A6AXAAVTouchEvent@app@cinder@@@Z@boost@@@signals2@boost@@Vmutex@45@@detail@signals2@boost@@@boost@@@std@@@std@@@2@@std@@PAU?$_Tree_node@U?$pair@$$CBU?$pair@W4slot_meta_group@detail@signals2@boost@@V?$optional@H@4@@std@@V?$_List_iterator@V?$_List_val@U?$_List_simple_types@V?$shared_ptr@V?$connection_body@U?$pair@W4slot_meta_group@detail@signals2@boost@@V?$optional@H@4@@std@@V?$slot1@XAAVTouchEvent@app@cinder@@V?$function@$$A6AXAAVTouchEvent@app@cinder@@@Z@boost@@@signals2@boost@@Vmutex@45@@detail@signals2@boost@@@boost@@@std@@@std@@@2@@std@@PAX@2@@?$_Tree@V?$_Tmap_traits@U?$pair@W4slot_meta_group@detail@signals2@boost@@V?$optional@H@4@@std@@V?$_List_iterator@V?$_List_val@U?$_List_simple_types@V?$shared_ptr@V?$connection_body@U?$pair@W4slot_meta_group@detail@signals2@boost@@V?$optional@H@4@@std@@V?$slot1@XAAVTouchEvent@app@cinder@@V?$function@$$A6AXAAVTouchEvent@app@cinder@@@Z@boost@@@signals2@boost@@Vmutex@45@@detail@signals2@boost@@@boost@@@std@@@std@@@2@V?$group_key_less@HU?$less@H@std@@@detail@signals2@boost@@V?$allocator@U?$pair@$$CBU?$pair@W4slot_meta_group@detail@signals2@boost@@V?$optional@H@4@@std@@V?$_List_iterator@V?$_List_val@U?$_List_simple_types@V?$shared_ptr@V?$connection_body@U?$pair@W4slot_meta_group@detail@signals2@boost@@V?$optional@H@4@@std@@V?$slot1@XAAVTouchEvent@app@cinder@@V?$function@$$A6AXAAVTouchEvent@app@cinder@@@Z@boost@@@signals2@boost@@Vmutex@45@@detail@signals2@boost@@@boost@@@std@@@std@@@2@@std@@@2@$0A@@std@@@std@@IAE?AV?$_Tree_iterator@V?$_Tree_val@U?$_Tree_simple_types@U?$pair@$$CBU?$pair@W4slot_meta_group@detail@signals2@boost@@V?$optional@H@4@@std@@V?$_List_iterator@V?$_List_val@U?$_List_simple_types@V?$shared_ptr@V?$connection_body@U?$pair@W4slot_meta_group@detail@signals2@boost@@V?$optional@H@4@@std@@V?$slot1@XAAVTouchEvent@app@cinder@@V?$function@$$A6AXAAVTouchEvent@app@cinder@@@Z@boost@@@signals2@boost@@Vmutex@45@@detail@signals2@boost@@@boost@@@std@@@std@@@2@@std@@@std@@@std@@@1@_NPAU?$_Tree_node@U?$pair@$$CBU?$pair@W4slot_meta_group@detail@signals2@boost@@V?$optional@H@4@@std@@V?$_List_iterator@V?$_List_val@U?$_List_simple_types@V?$shared_ptr@V?$connection_body@U?$pair@W4slot_meta_group@detail@signals2@boost@@V?$optional@H@4@@std@@V?$slot1@XAAVTouchEvent@app@cinder@@V?$function@$$A6AXAAVTouchEvent@app@cinder@@@Z@boost@@@signals2@boost@@Vmutex@45@@detail@signals2@boost@@@boost@@@std@@@std@@@2@@std@@PAX@1@AAU?$pair@$$CBU?$pair@W4slot_meta_group@detail@signals2@boost@@V?$optional@H@4@@std@@V?$_List_iterator@V?$_List_val@U?$_List_simple_types@V?$shared_ptr@V?$connection_body@U?$pair@W4slot_meta_group@detail@signals2@boost@@V?$optional@H@4@@std@@V?$slot1@XAAVTouchEvent@app@cinder@@V?$function@$$A6AXAAVTouchEvent@app@cinder@@@Z@boost@@@signals2@boost@@Vmutex@45@@detail@signals2@boost@@@boost@@@std@@@std@@@2@@1@1@Z 00435b30 f i cinder:Window.obj
 0001:00034b30       ??$_Insert_at@AAU?$pair@$$CBU?$pair@W4slot_meta_group@detail@signals2@boost@@V?$optional@H@4@@std@@V?$_List_iterator@V?$_List_val@U?$_List_simple_types@V?$shared_ptr@V?$connection_body@U?$pair@W4slot_meta_group@detail@signals2@boost@@V?$optional@H@4@@std@@V?$slot0@XV?$function@$$A6AXXZ@boost@@@signals2@boost@@Vmutex@45@@detail@signals2@boost@@@boost@@@std@@@std@@@2@@std@@PAU?$_Tree_node@U?$pair@$$CBU?$pair@W4slot_meta_group@detail@signals2@boost@@V?$optional@H@4@@std@@V?$_List_iterator@V?$_List_val@U?$_List_simple_types@V?$shared_ptr@V?$connection_body@U?$pair@W4slot_meta_group@detail@signals2@boost@@V?$optional@H@4@@std@@V?$slot0@XV?$function@$$A6AXXZ@boost@@@signals2@boost@@Vmutex@45@@detail@signals2@boost@@@boost@@@std@@@std@@@2@@std@@PAX@2@@?$_Tree@V?$_Tmap_traits@U?$pair@W4slot_meta_group@detail@signals2@boost@@V?$optional@H@4@@std@@V?$_List_iterator@V?$_List_val@U?$_List_simple_types@V?$shared_ptr@V?$connection_body@U?$pair@W4slot_meta_group@detail@signals2@boost@@V?$optional@H@4@@std@@V?$slot0@XV?$function@$$A6AXXZ@boost@@@signals2@boost@@Vmutex@45@@detail@signals2@boost@@@boost@@@std@@@std@@@2@V?$group_key_less@HU?$less@H@std@@@detail@signals2@boost@@V?$allocator@U?$pair@$$CBU?$pair@W4slot_meta_group@detail@signals2@boost@@V?$optional@H@4@@std@@V?$_List_iterator@V?$_List_val@U?$_List_simple_types@V?$shared_ptr@V?$connection_body@U?$pair@W4slot_meta_group@detail@signals2@boost@@V?$optional@H@4@@std@@V?$slot0@XV?$function@$$A6AXXZ@boost@@@signals2@boost@@Vmutex@45@@detail@signals2@boost@@@boost@@@std@@@std@@@2@@std@@@2@$0A@@std@@@std@@IAE?AV?$_Tree_iterator@V?$_Tree_val@U?$_Tree_simple_types@U?$pair@$$CBU?$pair@W4slot_meta_group@detail@signals2@boost@@V?$optional@H@4@@std@@V?$_List_iterator@V?$_List_val@U?$_List_simple_types@V?$shared_ptr@V?$connection_body@U?$pair@W4slot_meta_group@detail@signals2@boost@@V?$optional@H@4@@std@@V?$slot0@XV?$function@$$A6AXXZ@boost@@@signals2@boost@@Vmutex@45@@detail@signals2@boost@@@boost@@@std@@@std@@@2@@std@@@std@@@std@@@1@_NPAU?$_Tree_node@U?$pair@$$CBU?$pair@W4slot_meta_group@detail@signals2@boost@@V?$optional@H@4@@std@@V?$_List_iterator@V?$_List_val@U?$_List_simple_types@V?$shared_ptr@V?$connection_body@U?$pair@W4slot_meta_group@detail@signals2@boost@@V?$optional@H@4@@std@@V?$slot0@XV?$function@$$A6AXXZ@boost@@@signals2@boost@@Vmutex@45@@detail@signals2@boost@@@boost@@@std@@@std@@@2@@std@@PAX@1@AAU?$pair@$$CBU?$pair@W4slot_meta_group@detail@signals2@boost@@V?$optional@H@4@@std@@V?$_List_iterator@V?$_List_val@U?$_List_simple_types@V?$shared_ptr@V?$connection_body@U?$pair@W4slot_meta_group@detail@signals2@boost@@V?$optional@H@4@@std@@V?$slot0@XV?$function@$$A6AXXZ@boost@@@signals2@boost@@Vmutex@45@@detail@signals2@boost@@@boost@@@std@@@std@@@2@@1@1@Z 00435b30 f i cinder:Window.obj
 0001:00034d50       ??$_Insert_hint@AAU?$pair@$$CBU?$pair@W4slot_meta_group@detail@signals2@boost@@V?$optional@H@4@@std@@V?$_List_iterator@V?$_List_val@U?$_List_simple_types@V?$shared_ptr@V?$connection_body@U?$pair@W4slot_meta_group@detail@signals2@boost@@V?$optional@H@4@@std@@V?$slot1@XAAVMouseEvent@app@cinder@@V?$function@$$A6AXAAVMouseEvent@app@cinder@@@Z@boost@@@signals2@boost@@Vmutex@45@@detail@signals2@boost@@@boost@@@std@@@std@@@2@@std@@PAU?$_Tree_node@U?$pair@$$CBU?$pair@W4slot_meta_group@detail@signals2@boost@@V?$optional@H@4@@std@@V?$_List_iterator@V?$_List_val@U?$_List_simple_types@V?$shared_ptr@V?$connection_body@U?$pair@W4slot_meta_group@detail@signals2@boost@@V?$optional@H@4@@std@@V?$slot1@XAAVMouseEvent@app@cinder@@V?$function@$$A6AXAAVMouseEvent@app@cinder@@@Z@boost@@@signals2@boost@@Vmutex@45@@detail@signals2@boost@@@boost@@@std@@@std@@@2@@std@@PAX@2@@?$_Tree@V?$_Tmap_traits@U?$pair@W4slot_meta_group@detail@signals2@boost@@V?$optional@H@4@@std@@V?$_List_iterator@V?$_List_val@U?$_List_simple_types@V?$shared_ptr@V?$connection_body@U?$pair@W4slot_meta_group@detail@signals2@boost@@V?$optional@H@4@@std@@V?$slot1@XAAVMouseEvent@app@cinder@@V?$function@$$A6AXAAVMouseEvent@app@cinder@@@Z@boost@@@signals2@boost@@Vmutex@45@@detail@signals2@boost@@@boost@@@std@@@std@@@2@V?$group_key_less@HU?$less@H@std@@@detail@signals2@boost@@V?$allocator@U?$pair@$$CBU?$pair@W4slot_meta_group@detail@signals2@boost@@V?$optional@H@4@@std@@V?$_List_iterator@V?$_List_val@U?$_List_simple_types@V?$shared_ptr@V?$connection_body@U?$pair@W4slot_meta_group@detail@signals2@boost@@V?$optional@H@4@@std@@V?$slot1@XAAVMouseEvent@app@cinder@@V?$function@$$A6AXAAVMouseEvent@app@cinder@@@Z@boost@@@signals2@boost@@Vmutex@45@@detail@signals2@boost@@@boost@@@std@@@std@@@2@@std@@@2@$0A@@std@@@std@@IAE?AV?$_Tree_iterator@V?$_Tree_val@U?$_Tree_simple_types@U?$pair@$$CBU?$pair@W4slot_meta_group@detail@signals2@boost@@V?$optional@H@4@@std@@V?$_List_iterator@V?$_List_val@U?$_List_simple_types@V?$shared_ptr@V?$connection_body@U?$pair@W4slot_meta_group@detail@signals2@boost@@V?$optional@H@4@@std@@V?$slot1@XAAVMouseEvent@app@cinder@@V?$function@$$A6AXAAVMouseEvent@app@cinder@@@Z@boost@@@signals2@boost@@Vmutex@45@@detail@signals2@boost@@@boost@@@std@@@std@@@2@@std@@@std@@@std@@@1@V?$_Tree_const_iterator@V?$_Tree_val@U?$_Tree_simple_types@U?$pair@$$CBU?$pair@W4slot_meta_group@detail@signals2@boost@@V?$optional@H@4@@std@@V?$_List_iterator@V?$_List_val@U?$_List_simple_types@V?$shared_ptr@V?$connection_body@U?$pair@W4slot_meta_group@detail@signals2@boost@@V?$optional@H@4@@std@@V?$slot1@XAAVMouseEvent@app@cinder@@V?$function@$$A6AXAAVMouseEvent@app@cinder@@@Z@boost@@@signals2@boost@@Vmutex@45@@detail@signals2@boost@@@boost@@@std@@@std@@@2@@std@@@std@@@std@@@1@AAU?$pair@$$CBU?$pair@W4slot_meta_group@detail@signals2@boost@@V?$optional@H@4@@std@@V?$_List_iterator@V?$_List_val@U?$_List_simple_types@V?$shared_ptr@V?$connection_body@U?$pair@W4slot_meta_group@detail@signals2@boost@@V?$optional@H@4@@std@@V?$slot1@XAAVMouseEvent@app@cinder@@V?$function@$$A6AXAAVMouseEvent@app@cinder@@@Z@boost@@@signals2@boost@@Vmutex@45@@detail@signals2@boost@@@boost@@@std@@@std@@@2@@1@PAU?$_Tree_node@U?$pair@$$CBU?$pair@W4slot_meta_group@detail@signals2@boost@@V?$optional@H@4@@std@@V?$_List_iterator@V?$_List_val@U?$_List_simple_types@V?$shared_ptr@V?$connection_body@U?$pair@W4slot_meta_group@detail@signals2@boost@@V?$optional@H@4@@std@@V?$slot1@XAAVMouseEvent@app@cinder@@V?$function@$$A6AXAAVMouseEvent@app@cinder@@@Z@boost@@@signals2@boost@@Vmutex@45@@detail@signals2@boost@@@boost@@@std@@@std@@@2@@std@@PAX@1@@Z 00435d50 f i cinder:Window.obj
 0001:00034d50       ??$_Insert_hint@AAU?$pair@$$CBU?$pair@W4slot_meta_group@detail@signals2@boost@@V?$optional@H@4@@std@@V?$_List_iterator@V?$_List_val@U?$_List_simple_types@V?$shared_ptr@V?$connection_body@U?$pair@W4slot_meta_group@detail@signals2@boost@@V?$optional@H@4@@std@@V?$slot1@XAAVFileDropEvent@app@cinder@@V?$function@$$A6AXAAVFileDropEvent@app@cinder@@@Z@boost@@@signals2@boost@@Vmutex@45@@detail@signals2@boost@@@boost@@@std@@@std@@@2@@std@@PAU?$_Tree_node@U?$pair@$$CBU?$pair@W4slot_meta_group@detail@signals2@boost@@V?$optional@H@4@@std@@V?$_List_iterator@V?$_List_val@U?$_List_simple_types@V?$shared_ptr@V?$connection_body@U?$pair@W4slot_meta_group@detail@signals2@boost@@V?$optional@H@4@@std@@V?$slot1@XAAVFileDropEvent@app@cinder@@V?$function@$$A6AXAAVFileDropEvent@app@cinder@@@Z@boost@@@signals2@boost@@Vmutex@45@@detail@signals2@boost@@@boost@@@std@@@std@@@2@@std@@PAX@2@@?$_Tree@V?$_Tmap_traits@U?$pair@W4slot_meta_group@detail@signals2@boost@@V?$optional@H@4@@std@@V?$_List_iterator@V?$_List_val@U?$_List_simple_types@V?$shared_ptr@V?$connection_body@U?$pair@W4slot_meta_group@detail@signals2@boost@@V?$optional@H@4@@std@@V?$slot1@XAAVFileDropEvent@app@cinder@@V?$function@$$A6AXAAVFileDropEvent@app@cinder@@@Z@boost@@@signals2@boost@@Vmutex@45@@detail@signals2@boost@@@boost@@@std@@@std@@@2@V?$group_key_less@HU?$less@H@std@@@detail@signals2@boost@@V?$allocator@U?$pair@$$CBU?$pair@W4slot_meta_group@detail@signals2@boost@@V?$optional@H@4@@std@@V?$_List_iterator@V?$_List_val@U?$_List_simple_types@V?$shared_ptr@V?$connection_body@U?$pair@W4slot_meta_group@detail@signals2@boost@@V?$optional@H@4@@std@@V?$slot1@XAAVFileDropEvent@app@cinder@@V?$function@$$A6AXAAVFileDropEvent@app@cinder@@@Z@boost@@@signals2@boost@@Vmutex@45@@detail@signals2@boost@@@boost@@@std@@@std@@@2@@std@@@2@$0A@@std@@@std@@IAE?AV?$_Tree_iterator@V?$_Tree_val@U?$_Tree_simple_types@U?$pair@$$CBU?$pair@W4slot_meta_group@detail@signals2@boost@@V?$optional@H@4@@std@@V?$_List_iterator@V?$_List_val@U?$_List_simple_types@V?$shared_ptr@V?$connection_body@U?$pair@W4slot_meta_group@detail@signals2@boost@@V?$optional@H@4@@std@@V?$slot1@XAAVFileDropEvent@app@cinder@@V?$function@$$A6AXAAVFileDropEvent@app@cinder@@@Z@boost@@@signals2@boost@@Vmutex@45@@detail@signals2@boost@@@boost@@@std@@@std@@@2@@std@@@std@@@std@@@1@V?$_Tree_const_iterator@V?$_Tree_val@U?$_Tree_simple_types@U?$pair@$$CBU?$pair@W4slot_meta_group@detail@signals2@boost@@V?$optional@H@4@@std@@V?$_List_iterator@V?$_List_val@U?$_List_simple_types@V?$shared_ptr@V?$connection_body@U?$pair@W4slot_meta_group@detail@signals2@boost@@V?$optional@H@4@@std@@V?$slot1@XAAVFileDropEvent@app@cinder@@V?$function@$$A6AXAAVFileDropEvent@app@cinder@@@Z@boost@@@signals2@boost@@Vmutex@45@@detail@signals2@boost@@@boost@@@std@@@std@@@2@@std@@@std@@@std@@@1@AAU?$pair@$$CBU?$pair@W4slot_meta_group@detail@signals2@boost@@V?$optional@H@4@@std@@V?$_List_iterator@V?$_List_val@U?$_List_simple_types@V?$shared_ptr@V?$connection_body@U?$pair@W4slot_meta_group@detail@signals2@boost@@V?$optional@H@4@@std@@V?$slot1@XAAVFileDropEvent@app@cinder@@V?$function@$$A6AXAAVFileDropEvent@app@cinder@@@Z@boost@@@signals2@boost@@Vmutex@45@@detail@signals2@boost@@@boost@@@std@@@std@@@2@@1@PAU?$_Tree_node@U?$pair@$$CBU?$pair@W4slot_meta_group@detail@signals2@boost@@V?$optional@H@4@@std@@V?$_List_iterator@V?$_List_val@U?$_List_simple_types@V?$shared_ptr@V?$connection_body@U?$pair@W4slot_meta_group@detail@signals2@boost@@V?$optional@H@4@@std@@V?$slot1@XAAVFileDropEvent@app@cinder@@V?$function@$$A6AXAAVFileDropEvent@app@cinder@@@Z@boost@@@signals2@boost@@Vmutex@45@@detail@signals2@boost@@@boost@@@std@@@std@@@2@@std@@PAX@1@@Z 00435d50 f i cinder:Window.obj
 0001:00034d50       ??$_Insert_hint@AAU?$pair@$$CBU?$pair@W4slot_meta_group@detail@signals2@boost@@V?$optional@H@4@@std@@V?$_List_iterator@V?$_List_val@U?$_List_simple_types@V?$shared_ptr@V?$connection_body@U?$pair@W4slot_meta_group@detail@signals2@boost@@V?$optional@H@4@@std@@V?$slot1@XAAVTouchEvent@app@cinder@@V?$function@$$A6AXAAVTouchEvent@app@cinder@@@Z@boost@@@signals2@boost@@Vmutex@45@@detail@signals2@boost@@@boost@@@std@@@std@@@2@@std@@PAU?$_Tree_node@U?$pair@$$CBU?$pair@W4slot_meta_group@detail@signals2@boost@@V?$optional@H@4@@std@@V?$_List_iterator@V?$_List_val@U?$_List_simple_types@V?$shared_ptr@V?$connection_body@U?$pair@W4slot_meta_group@detail@signals2@boost@@V?$optional@H@4@@std@@V?$slot1@XAAVTouchEvent@app@cinder@@V?$function@$$A6AXAAVTouchEvent@app@cinder@@@Z@boost@@@signals2@boost@@Vmutex@45@@detail@signals2@boost@@@boost@@@std@@@std@@@2@@std@@PAX@2@@?$_Tree@V?$_Tmap_traits@U?$pair@W4slot_meta_group@detail@signals2@boost@@V?$optional@H@4@@std@@V?$_List_iterator@V?$_List_val@U?$_List_simple_types@V?$shared_ptr@V?$connection_body@U?$pair@W4slot_meta_group@detail@signals2@boost@@V?$optional@H@4@@std@@V?$slot1@XAAVTouchEvent@app@cinder@@V?$function@$$A6AXAAVTouchEvent@app@cinder@@@Z@boost@@@signals2@boost@@Vmutex@45@@detail@signals2@boost@@@boost@@@std@@@std@@@2@V?$group_key_less@HU?$less@H@std@@@detail@signals2@boost@@V?$allocator@U?$pair@$$CBU?$pair@W4slot_meta_group@detail@signals2@boost@@V?$optional@H@4@@std@@V?$_List_iterator@V?$_List_val@U?$_List_simple_types@V?$shared_ptr@V?$connection_body@U?$pair@W4slot_meta_group@detail@signals2@boost@@V?$optional@H@4@@std@@V?$slot1@XAAVTouchEvent@app@cinder@@V?$function@$$A6AXAAVTouchEvent@app@cinder@@@Z@boost@@@signals2@boost@@Vmutex@45@@detail@signals2@boost@@@boost@@@std@@@std@@@2@@std@@@2@$0A@@std@@@std@@IAE?AV?$_Tree_iterator@V?$_Tree_val@U?$_Tree_simple_types@U?$pair@$$CBU?$pair@W4slot_meta_group@detail@signals2@boost@@V?$optional@H@4@@std@@V?$_List_iterator@V?$_List_val@U?$_List_simple_types@V?$shared_ptr@V?$connection_body@U?$pair@W4slot_meta_group@detail@signals2@boost@@V?$optional@H@4@@std@@V?$slot1@XAAVTouchEvent@app@cinder@@V?$function@$$A6AXAAVTouchEvent@app@cinder@@@Z@boost@@@signals2@boost@@Vmutex@45@@detail@signals2@boost@@@boost@@@std@@@std@@@2@@std@@@std@@@std@@@1@V?$_Tree_const_iterator@V?$_Tree_val@U?$_Tree_simple_types@U?$pair@$$CBU?$pair@W4slot_meta_group@detail@signals2@boost@@V?$optional@H@4@@std@@V?$_List_iterator@V?$_List_val@U?$_List_simple_types@V?$shared_ptr@V?$connection_body@U?$pair@W4slot_meta_group@detail@signals2@boost@@V?$optional@H@4@@std@@V?$slot1@XAAVTouchEvent@app@cinder@@V?$function@$$A6AXAAVTouchEvent@app@cinder@@@Z@boost@@@signals2@boost@@Vmutex@45@@detail@signals2@boost@@@boost@@@std@@@std@@@2@@std@@@std@@@std@@@1@AAU?$pair@$$CBU?$pair@W4slot_meta_group@detail@signals2@boost@@V?$optional@H@4@@std@@V?$_List_iterator@V?$_List_val@U?$_List_simple_types@V?$shared_ptr@V?$connection_body@U?$pair@W4slot_meta_group@detail@signals2@boost@@V?$optional@H@4@@std@@V?$slot1@XAAVTouchEvent@app@cinder@@V?$function@$$A6AXAAVTouchEvent@app@cinder@@@Z@boost@@@signals2@boost@@Vmutex@45@@detail@signals2@boost@@@boost@@@std@@@std@@@2@@1@PAU?$_Tree_node@U?$pair@$$CBU?$pair@W4slot_meta_group@detail@signals2@boost@@V?$optional@H@4@@std@@V?$_List_iterator@V?$_List_val@U?$_List_simple_types@V?$shared_ptr@V?$connection_body@U?$pair@W4slot_meta_group@detail@signals2@boost@@V?$optional@H@4@@std@@V?$slot1@XAAVTouchEvent@app@cinder@@V?$function@$$A6AXAAVTouchEvent@app@cinder@@@Z@boost@@@signals2@boost@@Vmutex@45@@detail@signals2@boost@@@boost@@@std@@@std@@@2@@std@@PAX@1@@Z 00435d50 f i cinder:Window.obj
 0001:00034d50       ??$_Insert_hint@AAU?$pair@$$CBU?$pair@W4slot_meta_group@detail@signals2@boost@@V?$optional@H@4@@std@@V?$_List_iterator@V?$_List_val@U?$_List_simple_types@V?$shared_ptr@V?$connection_body@U?$pair@W4slot_meta_group@detail@signals2@boost@@V?$optional@H@4@@std@@V?$slot0@XV?$function@$$A6AXXZ@boost@@@signals2@boost@@Vmutex@45@@detail@signals2@boost@@@boost@@@std@@@std@@@2@@std@@PAU?$_Tree_node@U?$pair@$$CBU?$pair@W4slot_meta_group@detail@signals2@boost@@V?$optional@H@4@@std@@V?$_List_iterator@V?$_List_val@U?$_List_simple_types@V?$shared_ptr@V?$connection_body@U?$pair@W4slot_meta_group@detail@signals2@boost@@V?$optional@H@4@@std@@V?$slot0@XV?$function@$$A6AXXZ@boost@@@signals2@boost@@Vmutex@45@@detail@signals2@boost@@@boost@@@std@@@std@@@2@@std@@PAX@2@@?$_Tree@V?$_Tmap_traits@U?$pair@W4slot_meta_group@detail@signals2@boost@@V?$optional@H@4@@std@@V?$_List_iterator@V?$_List_val@U?$_List_simple_types@V?$shared_ptr@V?$connection_body@U?$pair@W4slot_meta_group@detail@signals2@boost@@V?$optional@H@4@@std@@V?$slot0@XV?$function@$$A6AXXZ@boost@@@signals2@boost@@Vmutex@45@@detail@signals2@boost@@@boost@@@std@@@std@@@2@V?$group_key_less@HU?$less@H@std@@@detail@signals2@boost@@V?$allocator@U?$pair@$$CBU?$pair@W4slot_meta_group@detail@signals2@boost@@V?$optional@H@4@@std@@V?$_List_iterator@V?$_List_val@U?$_List_simple_types@V?$shared_ptr@V?$connection_body@U?$pair@W4slot_meta_group@detail@signals2@boost@@V?$optional@H@4@@std@@V?$slot0@XV?$function@$$A6AXXZ@boost@@@signals2@boost@@Vmutex@45@@detail@signals2@boost@@@boost@@@std@@@std@@@2@@std@@@2@$0A@@std@@@std@@IAE?AV?$_Tree_iterator@V?$_Tree_val@U?$_Tree_simple_types@U?$pair@$$CBU?$pair@W4slot_meta_group@detail@signals2@boost@@V?$optional@H@4@@std@@V?$_List_iterator@V?$_List_val@U?$_List_simple_types@V?$shared_ptr@V?$connection_body@U?$pair@W4slot_meta_group@detail@signals2@boost@@V?$optional@H@4@@std@@V?$slot0@XV?$function@$$A6AXXZ@boost@@@signals2@boost@@Vmutex@45@@detail@signals2@boost@@@boost@@@std@@@std@@@2@@std@@@std@@@std@@@1@V?$_Tree_const_iterator@V?$_Tree_val@U?$_Tree_simple_types@U?$pair@$$CBU?$pair@W4slot_meta_group@detail@signals2@boost@@V?$optional@H@4@@std@@V?$_List_iterator@V?$_List_val@U?$_List_simple_types@V?$shared_ptr@V?$connection_body@U?$pair@W4slot_meta_group@detail@signals2@boost@@V?$optional@H@4@@std@@V?$slot0@XV?$function@$$A6AXXZ@boost@@@signals2@boost@@Vmutex@45@@detail@signals2@boost@@@boost@@@std@@@std@@@2@@std@@@std@@@std@@@1@AAU?$pair@$$CBU?$pair@W4slot_meta_group@detail@signals2@boost@@V?$optional@H@4@@std@@V?$_List_iterator@V?$_List_val@U?$_List_simple_types@V?$shared_ptr@V?$connection_body@U?$pair@W4slot_meta_group@detail@signals2@boost@@V?$optional@H@4@@std@@V?$slot0@XV?$function@$$A6AXXZ@boost@@@signals2@boost@@Vmutex@45@@detail@signals2@boost@@@boost@@@std@@@std@@@2@@1@PAU?$_Tree_node@U?$pair@$$CBU?$pair@W4slot_meta_group@detail@signals2@boost@@V?$optional@H@4@@std@@V?$_List_iterator@V?$_List_val@U?$_List_simple_types@V?$shared_ptr@V?$connection_body@U?$pair@W4slot_meta_group@detail@signals2@boost@@V?$optional@H@4@@std@@V?$slot0@XV?$function@$$A6AXXZ@boost@@@signals2@boost@@Vmutex@45@@detail@signals2@boost@@@boost@@@std@@@std@@@2@@std@@PAX@1@@Z 00435d50 f i cinder:Window.obj
 0001:00034d50       ??$_Insert_hint@AAU?$pair@$$CBU?$pair@W4slot_meta_group@detail@signals2@boost@@V?$optional@H@4@@std@@V?$_List_iterator@V?$_List_val@U?$_List_simple_types@V?$shared_ptr@V?$connection_body@U?$pair@W4slot_meta_group@detail@signals2@boost@@V?$optional@H@4@@std@@V?$slot1@XAAVKeyEvent@app@cinder@@V?$function@$$A6AXAAVKeyEvent@app@cinder@@@Z@boost@@@signals2@boost@@Vmutex@45@@detail@signals2@boost@@@boost@@@std@@@std@@@2@@std@@PAU?$_Tree_node@U?$pair@$$CBU?$pair@W4slot_meta_group@detail@signals2@boost@@V?$optional@H@4@@std@@V?$_List_iterator@V?$_List_val@U?$_List_simple_types@V?$shared_ptr@V?$connection_body@U?$pair@W4slot_meta_group@detail@signals2@boost@@V?$optional@H@4@@std@@V?$slot1@XAAVKeyEvent@app@cinder@@V?$function@$$A6AXAAVKeyEvent@app@cinder@@@Z@boost@@@signals2@boost@@Vmutex@45@@detail@signals2@boost@@@boost@@@std@@@std@@@2@@std@@PAX@2@@?$_Tree@V?$_Tmap_traits@U?$pair@W4slot_meta_group@detail@signals2@boost@@V?$optional@H@4@@std@@V?$_List_iterator@V?$_List_val@U?$_List_simple_types@V?$shared_ptr@V?$connection_body@U?$pair@W4slot_meta_group@detail@signals2@boost@@V?$optional@H@4@@std@@V?$slot1@XAAVKeyEvent@app@cinder@@V?$function@$$A6AXAAVKeyEvent@app@cinder@@@Z@boost@@@signals2@boost@@Vmutex@45@@detail@signals2@boost@@@boost@@@std@@@std@@@2@V?$group_key_less@HU?$less@H@std@@@detail@signals2@boost@@V?$allocator@U?$pair@$$CBU?$pair@W4slot_meta_group@detail@signals2@boost@@V?$optional@H@4@@std@@V?$_List_iterator@V?$_List_val@U?$_List_simple_types@V?$shared_ptr@V?$connection_body@U?$pair@W4slot_meta_group@detail@signals2@boost@@V?$optional@H@4@@std@@V?$slot1@XAAVKeyEvent@app@cinder@@V?$function@$$A6AXAAVKeyEvent@app@cinder@@@Z@boost@@@signals2@boost@@Vmutex@45@@detail@signals2@boost@@@boost@@@std@@@std@@@2@@std@@@2@$0A@@std@@@std@@IAE?AV?$_Tree_iterator@V?$_Tree_val@U?$_Tree_simple_types@U?$pair@$$CBU?$pair@W4slot_meta_group@detail@signals2@boost@@V?$optional@H@4@@std@@V?$_List_iterator@V?$_List_val@U?$_List_simple_types@V?$shared_ptr@V?$connection_body@U?$pair@W4slot_meta_group@detail@signals2@boost@@V?$optional@H@4@@std@@V?$slot1@XAAVKeyEvent@app@cinder@@V?$function@$$A6AXAAVKeyEvent@app@cinder@@@Z@boost@@@signals2@boost@@Vmutex@45@@detail@signals2@boost@@@boost@@@std@@@std@@@2@@std@@@std@@@std@@@1@V?$_Tree_const_iterator@V?$_Tree_val@U?$_Tree_simple_types@U?$pair@$$CBU?$pair@W4slot_meta_group@detail@signals2@boost@@V?$optional@H@4@@std@@V?$_List_iterator@V?$_List_val@U?$_List_simple_types@V?$shared_ptr@V?$connection_body@U?$pair@W4slot_meta_group@detail@signals2@boost@@V?$optional@H@4@@std@@V?$slot1@XAAVKeyEvent@app@cinder@@V?$function@$$A6AXAAVKeyEvent@app@cinder@@@Z@boost@@@signals2@boost@@Vmutex@45@@detail@signals2@boost@@@boost@@@std@@@std@@@2@@std@@@std@@@std@@@1@AAU?$pair@$$CBU?$pair@W4slot_meta_group@detail@signals2@boost@@V?$optional@H@4@@std@@V?$_List_iterator@V?$_List_val@U?$_List_simple_types@V?$shared_ptr@V?$connection_body@U?$pair@W4slot_meta_group@detail@signals2@boost@@V?$optional@H@4@@std@@V?$slot1@XAAVKeyEvent@app@cinder@@V?$function@$$A6AXAAVKeyEvent@app@cinder@@@Z@boost@@@signals2@boost@@Vmutex@45@@detail@signals2@boost@@@boost@@@std@@@std@@@2@@1@PAU?$_Tree_node@U?$pair@$$CBU?$pair@W4slot_meta_group@detail@signals2@boost@@V?$optional@H@4@@std@@V?$_List_iterator@V?$_List_val@U?$_List_simple_types@V?$shared_ptr@V?$connection_body@U?$pair@W4slot_meta_group@detail@signals2@boost@@V?$optional@H@4@@std@@V?$slot1@XAAVKeyEvent@app@cinder@@V?$function@$$A6AXAAVKeyEvent@app@cinder@@@Z@boost@@@signals2@boost@@Vmutex@45@@detail@signals2@boost@@@boost@@@std@@@std@@@2@@std@@PAX@1@@Z 00435d50 f i cinder:Window.obj
 0001:00034fc0       ??$_Insert_nohint@AAU?$pair@$$CBU?$pair@W4slot_meta_group@detail@signals2@boost@@V?$optional@H@4@@std@@V?$_List_iterator@V?$_List_val@U?$_List_simple_types@V?$shared_ptr@V?$connection_body@U?$pair@W4slot_meta_group@detail@signals2@boost@@V?$optional@H@4@@std@@V?$slot1@XAAVMouseEvent@app@cinder@@V?$function@$$A6AXAAVMouseEvent@app@cinder@@@Z@boost@@@signals2@boost@@Vmutex@45@@detail@signals2@boost@@@boost@@@std@@@std@@@2@@std@@PAU?$_Tree_node@U?$pair@$$CBU?$pair@W4slot_meta_group@detail@signals2@boost@@V?$optional@H@4@@std@@V?$_List_iterator@V?$_List_val@U?$_List_simple_types@V?$shared_ptr@V?$connection_body@U?$pair@W4slot_meta_group@detail@signals2@boost@@V?$optional@H@4@@std@@V?$slot1@XAAVMouseEvent@app@cinder@@V?$function@$$A6AXAAVMouseEvent@app@cinder@@@Z@boost@@@signals2@boost@@Vmutex@45@@detail@signals2@boost@@@boost@@@std@@@std@@@2@@std@@PAX@2@@?$_Tree@V?$_Tmap_traits@U?$pair@W4slot_meta_group@detail@signals2@boost@@V?$optional@H@4@@std@@V?$_List_iterator@V?$_List_val@U?$_List_simple_types@V?$shared_ptr@V?$connection_body@U?$pair@W4slot_meta_group@detail@signals2@boost@@V?$optional@H@4@@std@@V?$slot1@XAAVMouseEvent@app@cinder@@V?$function@$$A6AXAAVMouseEvent@app@cinder@@@Z@boost@@@signals2@boost@@Vmutex@45@@detail@signals2@boost@@@boost@@@std@@@std@@@2@V?$group_key_less@HU?$less@H@std@@@detail@signals2@boost@@V?$allocator@U?$pair@$$CBU?$pair@W4slot_meta_group@detail@signals2@boost@@V?$optional@H@4@@std@@V?$_List_iterator@V?$_List_val@U?$_List_simple_types@V?$shared_ptr@V?$connection_body@U?$pair@W4slot_meta_group@detail@signals2@boost@@V?$optional@H@4@@std@@V?$slot1@XAAVMouseEvent@app@cinder@@V?$function@$$A6AXAAVMouseEvent@app@cinder@@@Z@boost@@@signals2@boost@@Vmutex@45@@detail@signals2@boost@@@boost@@@std@@@std@@@2@@std@@@2@$0A@@std@@@std@@IAE?AU?$pair@V?$_Tree_iterator@V?$_Tree_val@U?$_Tree_simple_types@U?$pair@$$CBU?$pair@W4slot_meta_group@detail@signals2@boost@@V?$optional@H@4@@std@@V?$_List_iterator@V?$_List_val@U?$_List_simple_types@V?$shared_ptr@V?$connection_body@U?$pair@W4slot_meta_group@detail@signals2@boost@@V?$optional@H@4@@std@@V?$slot1@XAAVMouseEvent@app@cinder@@V?$function@$$A6AXAAVMouseEvent@app@cinder@@@Z@boost@@@signals2@boost@@Vmutex@45@@detail@signals2@boost@@@boost@@@std@@@std@@@2@@std@@@std@@@std@@@std@@_N@1@_NAAU?$pair@$$CBU?$pair@W4slot_meta_group@detail@signals2@boost@@V?$optional@H@4@@std@@V?$_List_iterator@V?$_List_val@U?$_List_simple_types@V?$shared_ptr@V?$connection_body@U?$pair@W4slot_meta_group@detail@signals2@boost@@V?$optional@H@4@@std@@V?$slot1@XAAVMouseEvent@app@cinder@@V?$function@$$A6AXAAVMouseEvent@app@cinder@@@Z@boost@@@signals2@boost@@Vmutex@45@@detail@signals2@boost@@@boost@@@std@@@std@@@2@@1@PAU?$_Tree_node@U?$pair@$$CBU?$pair@W4slot_meta_group@detail@signals2@boost@@V?$optional@H@4@@std@@V?$_List_iterator@V?$_List_val@U?$_List_simple_types@V?$shared_ptr@V?$connection_body@U?$pair@W4slot_meta_group@detail@signals2@boost@@V?$optional@H@4@@std@@V?$slot1@XAAVMouseEvent@app@cinder@@V?$function@$$A6AXAAVMouseEvent@app@cinder@@@Z@boost@@@signals2@boost@@Vmutex@45@@detail@signals2@boost@@@boost@@@std@@@std@@@2@@std@@PAX@1@@Z 00435fc0 f i cinder:Window.obj
 0001:00034fc0       ??$_Insert_nohint@AAU?$pair@$$CBU?$pair@W4slot_meta_group@detail@signals2@boost@@V?$optional@H@4@@std@@V?$_List_iterator@V?$_List_val@U?$_List_simple_types@V?$shared_ptr@V?$connection_body@U?$pair@W4slot_meta_group@detail@signals2@boost@@V?$optional@H@4@@std@@V?$slot1@XAAVTouchEvent@app@cinder@@V?$function@$$A6AXAAVTouchEvent@app@cinder@@@Z@boost@@@signals2@boost@@Vmutex@45@@detail@signals2@boost@@@boost@@@std@@@std@@@2@@std@@PAU?$_Tree_node@U?$pair@$$CBU?$pair@W4slot_meta_group@detail@signals2@boost@@V?$optional@H@4@@std@@V?$_List_iterator@V?$_List_val@U?$_List_simple_types@V?$shared_ptr@V?$connection_body@U?$pair@W4slot_meta_group@detail@signals2@boost@@V?$optional@H@4@@std@@V?$slot1@XAAVTouchEvent@app@cinder@@V?$function@$$A6AXAAVTouchEvent@app@cinder@@@Z@boost@@@signals2@boost@@Vmutex@45@@detail@signals2@boost@@@boost@@@std@@@std@@@2@@std@@PAX@2@@?$_Tree@V?$_Tmap_traits@U?$pair@W4slot_meta_group@detail@signals2@boost@@V?$optional@H@4@@std@@V?$_List_iterator@V?$_List_val@U?$_List_simple_types@V?$shared_ptr@V?$connection_body@U?$pair@W4slot_meta_group@detail@signals2@boost@@V?$optional@H@4@@std@@V?$slot1@XAAVTouchEvent@app@cinder@@V?$function@$$A6AXAAVTouchEvent@app@cinder@@@Z@boost@@@signals2@boost@@Vmutex@45@@detail@signals2@boost@@@boost@@@std@@@std@@@2@V?$group_key_less@HU?$less@H@std@@@detail@signals2@boost@@V?$allocator@U?$pair@$$CBU?$pair@W4slot_meta_group@detail@signals2@boost@@V?$optional@H@4@@std@@V?$_List_iterator@V?$_List_val@U?$_List_simple_types@V?$shared_ptr@V?$connection_body@U?$pair@W4slot_meta_group@detail@signals2@boost@@V?$optional@H@4@@std@@V?$slot1@XAAVTouchEvent@app@cinder@@V?$function@$$A6AXAAVTouchEvent@app@cinder@@@Z@boost@@@signals2@boost@@Vmutex@45@@detail@signals2@boost@@@boost@@@std@@@std@@@2@@std@@@2@$0A@@std@@@std@@IAE?AU?$pair@V?$_Tree_iterator@V?$_Tree_val@U?$_Tree_simple_types@U?$pair@$$CBU?$pair@W4slot_meta_group@detail@signals2@boost@@V?$optional@H@4@@std@@V?$_List_iterator@V?$_List_val@U?$_List_simple_types@V?$shared_ptr@V?$connection_body@U?$pair@W4slot_meta_group@detail@signals2@boost@@V?$optional@H@4@@std@@V?$slot1@XAAVTouchEvent@app@cinder@@V?$function@$$A6AXAAVTouchEvent@app@cinder@@@Z@boost@@@signals2@boost@@Vmutex@45@@detail@signals2@boost@@@boost@@@std@@@std@@@2@@std@@@std@@@std@@@std@@_N@1@_NAAU?$pair@$$CBU?$pair@W4slot_meta_group@detail@signals2@boost@@V?$optional@H@4@@std@@V?$_List_iterator@V?$_List_val@U?$_List_simple_types@V?$shared_ptr@V?$connection_body@U?$pair@W4slot_meta_group@detail@signals2@boost@@V?$optional@H@4@@std@@V?$slot1@XAAVTouchEvent@app@cinder@@V?$function@$$A6AXAAVTouchEvent@app@cinder@@@Z@boost@@@signals2@boost@@Vmutex@45@@detail@signals2@boost@@@boost@@@std@@@std@@@2@@1@PAU?$_Tree_node@U?$pair@$$CBU?$pair@W4slot_meta_group@detail@signals2@boost@@V?$optional@H@4@@std@@V?$_List_iterator@V?$_List_val@U?$_List_simple_types@V?$shared_ptr@V?$connection_body@U?$pair@W4slot_meta_group@detail@signals2@boost@@V?$optional@H@4@@std@@V?$slot1@XAAVTouchEvent@app@cinder@@V?$function@$$A6AXAAVTouchEvent@app@cinder@@@Z@boost@@@signals2@boost@@Vmutex@45@@detail@signals2@boost@@@boost@@@std@@@std@@@2@@std@@PAX@1@@Z 00435fc0 f i cinder:Window.obj
 0001:00034fc0       ??$_Insert_nohint@AAU?$pair@$$CBU?$pair@W4slot_meta_group@detail@signals2@boost@@V?$optional@H@4@@std@@V?$_List_iterator@V?$_List_val@U?$_List_simple_types@V?$shared_ptr@V?$connection_body@U?$pair@W4slot_meta_group@detail@signals2@boost@@V?$optional@H@4@@std@@V?$slot1@XAAVFileDropEvent@app@cinder@@V?$function@$$A6AXAAVFileDropEvent@app@cinder@@@Z@boost@@@signals2@boost@@Vmutex@45@@detail@signals2@boost@@@boost@@@std@@@std@@@2@@std@@PAU?$_Tree_node@U?$pair@$$CBU?$pair@W4slot_meta_group@detail@signals2@boost@@V?$optional@H@4@@std@@V?$_List_iterator@V?$_List_val@U?$_List_simple_types@V?$shared_ptr@V?$connection_body@U?$pair@W4slot_meta_group@detail@signals2@boost@@V?$optional@H@4@@std@@V?$slot1@XAAVFileDropEvent@app@cinder@@V?$function@$$A6AXAAVFileDropEvent@app@cinder@@@Z@boost@@@signals2@boost@@Vmutex@45@@detail@signals2@boost@@@boost@@@std@@@std@@@2@@std@@PAX@2@@?$_Tree@V?$_Tmap_traits@U?$pair@W4slot_meta_group@detail@signals2@boost@@V?$optional@H@4@@std@@V?$_List_iterator@V?$_List_val@U?$_List_simple_types@V?$shared_ptr@V?$connection_body@U?$pair@W4slot_meta_group@detail@signals2@boost@@V?$optional@H@4@@std@@V?$slot1@XAAVFileDropEvent@app@cinder@@V?$function@$$A6AXAAVFileDropEvent@app@cinder@@@Z@boost@@@signals2@boost@@Vmutex@45@@detail@signals2@boost@@@boost@@@std@@@std@@@2@V?$group_key_less@HU?$less@H@std@@@detail@signals2@boost@@V?$allocator@U?$pair@$$CBU?$pair@W4slot_meta_group@detail@signals2@boost@@V?$optional@H@4@@std@@V?$_List_iterator@V?$_List_val@U?$_List_simple_types@V?$shared_ptr@V?$connection_body@U?$pair@W4slot_meta_group@detail@signals2@boost@@V?$optional@H@4@@std@@V?$slot1@XAAVFileDropEvent@app@cinder@@V?$function@$$A6AXAAVFileDropEvent@app@cinder@@@Z@boost@@@signals2@boost@@Vmutex@45@@detail@signals2@boost@@@boost@@@std@@@std@@@2@@std@@@2@$0A@@std@@@std@@IAE?AU?$pair@V?$_Tree_iterator@V?$_Tree_val@U?$_Tree_simple_types@U?$pair@$$CBU?$pair@W4slot_meta_group@detail@signals2@boost@@V?$optional@H@4@@std@@V?$_List_iterator@V?$_List_val@U?$_List_simple_types@V?$shared_ptr@V?$connection_body@U?$pair@W4slot_meta_group@detail@signals2@boost@@V?$optional@H@4@@std@@V?$slot1@XAAVFileDropEvent@app@cinder@@V?$function@$$A6AXAAVFileDropEvent@app@cinder@@@Z@boost@@@signals2@boost@@Vmutex@45@@detail@signals2@boost@@@boost@@@std@@@std@@@2@@std@@@std@@@std@@@std@@_N@1@_NAAU?$pair@$$CBU?$pair@W4slot_meta_group@detail@signals2@boost@@V?$optional@H@4@@std@@V?$_List_iterator@V?$_List_val@U?$_List_simple_types@V?$shared_ptr@V?$connection_body@U?$pair@W4slot_meta_group@detail@signals2@boost@@V?$optional@H@4@@std@@V?$slot1@XAAVFileDropEvent@app@cinder@@V?$function@$$A6AXAAVFileDropEvent@app@cinder@@@Z@boost@@@signals2@boost@@Vmutex@45@@detail@signals2@boost@@@boost@@@std@@@std@@@2@@1@PAU?$_Tree_node@U?$pair@$$CBU?$pair@W4slot_meta_group@detail@signals2@boost@@V?$optional@H@4@@std@@V?$_List_iterator@V?$_List_val@U?$_List_simple_types@V?$shared_ptr@V?$connection_body@U?$pair@W4slot_meta_group@detail@signals2@boost@@V?$optional@H@4@@std@@V?$slot1@XAAVFileDropEvent@app@cinder@@V?$function@$$A6AXAAVFileDropEvent@app@cinder@@@Z@boost@@@signals2@boost@@Vmutex@45@@detail@signals2@boost@@@boost@@@std@@@std@@@2@@std@@PAX@1@@Z 00435fc0 f i cinder:Window.obj
 0001:00034fc0       ??$_Insert_nohint@AAU?$pair@$$CBU?$pair@W4slot_meta_group@detail@signals2@boost@@V?$optional@H@4@@std@@V?$_List_iterator@V?$_List_val@U?$_List_simple_types@V?$shared_ptr@V?$connection_body@U?$pair@W4slot_meta_group@detail@signals2@boost@@V?$optional@H@4@@std@@V?$slot0@XV?$function@$$A6AXXZ@boost@@@signals2@boost@@Vmutex@45@@detail@signals2@boost@@@boost@@@std@@@std@@@2@@std@@PAU?$_Tree_node@U?$pair@$$CBU?$pair@W4slot_meta_group@detail@signals2@boost@@V?$optional@H@4@@std@@V?$_List_iterator@V?$_List_val@U?$_List_simple_types@V?$shared_ptr@V?$connection_body@U?$pair@W4slot_meta_group@detail@signals2@boost@@V?$optional@H@4@@std@@V?$slot0@XV?$function@$$A6AXXZ@boost@@@signals2@boost@@Vmutex@45@@detail@signals2@boost@@@boost@@@std@@@std@@@2@@std@@PAX@2@@?$_Tree@V?$_Tmap_traits@U?$pair@W4slot_meta_group@detail@signals2@boost@@V?$optional@H@4@@std@@V?$_List_iterator@V?$_List_val@U?$_List_simple_types@V?$shared_ptr@V?$connection_body@U?$pair@W4slot_meta_group@detail@signals2@boost@@V?$optional@H@4@@std@@V?$slot0@XV?$function@$$A6AXXZ@boost@@@signals2@boost@@Vmutex@45@@detail@signals2@boost@@@boost@@@std@@@std@@@2@V?$group_key_less@HU?$less@H@std@@@detail@signals2@boost@@V?$allocator@U?$pair@$$CBU?$pair@W4slot_meta_group@detail@signals2@boost@@V?$optional@H@4@@std@@V?$_List_iterator@V?$_List_val@U?$_List_simple_types@V?$shared_ptr@V?$connection_body@U?$pair@W4slot_meta_group@detail@signals2@boost@@V?$optional@H@4@@std@@V?$slot0@XV?$function@$$A6AXXZ@boost@@@signals2@boost@@Vmutex@45@@detail@signals2@boost@@@boost@@@std@@@std@@@2@@std@@@2@$0A@@std@@@std@@IAE?AU?$pair@V?$_Tree_iterator@V?$_Tree_val@U?$_Tree_simple_types@U?$pair@$$CBU?$pair@W4slot_meta_group@detail@signals2@boost@@V?$optional@H@4@@std@@V?$_List_iterator@V?$_List_val@U?$_List_simple_types@V?$shared_ptr@V?$connection_body@U?$pair@W4slot_meta_group@detail@signals2@boost@@V?$optional@H@4@@std@@V?$slot0@XV?$function@$$A6AXXZ@boost@@@signals2@boost@@Vmutex@45@@detail@signals2@boost@@@boost@@@std@@@std@@@2@@std@@@std@@@std@@@std@@_N@1@_NAAU?$pair@$$CBU?$pair@W4slot_meta_group@detail@signals2@boost@@V?$optional@H@4@@std@@V?$_List_iterator@V?$_List_val@U?$_List_simple_types@V?$shared_ptr@V?$connection_body@U?$pair@W4slot_meta_group@detail@signals2@boost@@V?$optional@H@4@@std@@V?$slot0@XV?$function@$$A6AXXZ@boost@@@signals2@boost@@Vmutex@45@@detail@signals2@boost@@@boost@@@std@@@std@@@2@@1@PAU?$_Tree_node@U?$pair@$$CBU?$pair@W4slot_meta_group@detail@signals2@boost@@V?$optional@H@4@@std@@V?$_List_iterator@V?$_List_val@U?$_List_simple_types@V?$shared_ptr@V?$connection_body@U?$pair@W4slot_meta_group@detail@signals2@boost@@V?$optional@H@4@@std@@V?$slot0@XV?$function@$$A6AXXZ@boost@@@signals2@boost@@Vmutex@45@@detail@signals2@boost@@@boost@@@std@@@std@@@2@@std@@PAX@1@@Z 00435fc0 f i cinder:Window.obj
 0001:00034fc0       ??$_Insert_nohint@AAU?$pair@$$CBU?$pair@W4slot_meta_group@detail@signals2@boost@@V?$optional@H@4@@std@@V?$_List_iterator@V?$_List_val@U?$_List_simple_types@V?$shared_ptr@V?$connection_body@U?$pair@W4slot_meta_group@detail@signals2@boost@@V?$optional@H@4@@std@@V?$slot1@XAAVKeyEvent@app@cinder@@V?$function@$$A6AXAAVKeyEvent@app@cinder@@@Z@boost@@@signals2@boost@@Vmutex@45@@detail@signals2@boost@@@boost@@@std@@@std@@@2@@std@@PAU?$_Tree_node@U?$pair@$$CBU?$pair@W4slot_meta_group@detail@signals2@boost@@V?$optional@H@4@@std@@V?$_List_iterator@V?$_List_val@U?$_List_simple_types@V?$shared_ptr@V?$connection_body@U?$pair@W4slot_meta_group@detail@signals2@boost@@V?$optional@H@4@@std@@V?$slot1@XAAVKeyEvent@app@cinder@@V?$function@$$A6AXAAVKeyEvent@app@cinder@@@Z@boost@@@signals2@boost@@Vmutex@45@@detail@signals2@boost@@@boost@@@std@@@std@@@2@@std@@PAX@2@@?$_Tree@V?$_Tmap_traits@U?$pair@W4slot_meta_group@detail@signals2@boost@@V?$optional@H@4@@std@@V?$_List_iterator@V?$_List_val@U?$_List_simple_types@V?$shared_ptr@V?$connection_body@U?$pair@W4slot_meta_group@detail@signals2@boost@@V?$optional@H@4@@std@@V?$slot1@XAAVKeyEvent@app@cinder@@V?$function@$$A6AXAAVKeyEvent@app@cinder@@@Z@boost@@@signals2@boost@@Vmutex@45@@detail@signals2@boost@@@boost@@@std@@@std@@@2@V?$group_key_less@HU?$less@H@std@@@detail@signals2@boost@@V?$allocator@U?$pair@$$CBU?$pair@W4slot_meta_group@detail@signals2@boost@@V?$optional@H@4@@std@@V?$_List_iterator@V?$_List_val@U?$_List_simple_types@V?$shared_ptr@V?$connection_body@U?$pair@W4slot_meta_group@detail@signals2@boost@@V?$optional@H@4@@std@@V?$slot1@XAAVKeyEvent@app@cinder@@V?$function@$$A6AXAAVKeyEvent@app@cinder@@@Z@boost@@@signals2@boost@@Vmutex@45@@detail@signals2@boost@@@boost@@@std@@@std@@@2@@std@@@2@$0A@@std@@@std@@IAE?AU?$pair@V?$_Tree_iterator@V?$_Tree_val@U?$_Tree_simple_types@U?$pair@$$CBU?$pair@W4slot_meta_group@detail@signals2@boost@@V?$optional@H@4@@std@@V?$_List_iterator@V?$_List_val@U?$_List_simple_types@V?$shared_ptr@V?$connection_body@U?$pair@W4slot_meta_group@detail@signals2@boost@@V?$optional@H@4@@std@@V?$slot1@XAAVKeyEvent@app@cinder@@V?$function@$$A6AXAAVKeyEvent@app@cinder@@@Z@boost@@@signals2@boost@@Vmutex@45@@detail@signals2@boost@@@boost@@@std@@@std@@@2@@std@@@std@@@std@@@std@@_N@1@_NAAU?$pair@$$CBU?$pair@W4slot_meta_group@detail@signals2@boost@@V?$optional@H@4@@std@@V?$_List_iterator@V?$_List_val@U?$_List_simple_types@V?$shared_ptr@V?$connection_body@U?$pair@W4slot_meta_group@detail@signals2@boost@@V?$optional@H@4@@std@@V?$slot1@XAAVKeyEvent@app@cinder@@V?$function@$$A6AXAAVKeyEvent@app@cinder@@@Z@boost@@@signals2@boost@@Vmutex@45@@detail@signals2@boost@@@boost@@@std@@@std@@@2@@1@PAU?$_Tree_node@U?$pair@$$CBU?$pair@W4slot_meta_group@detail@signals2@boost@@V?$optional@H@4@@std@@V?$_List_iterator@V?$_List_val@U?$_List_simple_types@V?$shared_ptr@V?$connection_body@U?$pair@W4slot_meta_group@detail@signals2@boost@@V?$optional@H@4@@std@@V?$slot1@XAAVKeyEvent@app@cinder@@V?$function@$$A6AXAAVKeyEvent@app@cinder@@@Z@boost@@@signals2@boost@@Vmutex@45@@detail@signals2@boost@@@boost@@@std@@@std@@@2@@std@@PAX@1@@Z 00435fc0 f i cinder:Window.obj
 0001:00035130       ??$_Insert_range@V?$_List_const_iterator@V?$_List_val@U?$_List_simple_types@V?$shared_ptr@V?$connection_body@U?$pair@W4slot_meta_group@detail@signals2@boost@@V?$optional@H@4@@std@@V?$slot0@_NV?$function@$$A6A_NXZ@boost@@@signals2@boost@@Vmutex@45@@detail@signals2@boost@@@boost@@@std@@@std@@@std@@@?$list@V?$shared_ptr@V?$connection_body@U?$pair@W4slot_meta_group@detail@signals2@boost@@V?$optional@H@4@@std@@V?$slot0@_NV?$function@$$A6A_NXZ@boost@@@signals2@boost@@Vmutex@45@@detail@signals2@boost@@@boost@@V?$allocator@V?$shared_ptr@V?$connection_body@U?$pair@W4slot_meta_group@detail@signals2@boost@@V?$optional@H@4@@std@@V?$slot0@_NV?$function@$$A6A_NXZ@boost@@@signals2@boost@@Vmutex@45@@detail@signals2@boost@@@boost@@@std@@@std@@QAEXV?$_List_unchecked_const_iterator@V?$_List_val@U?$_List_simple_types@V?$shared_ptr@V?$connection_body@U?$pair@W4slot_meta_group@detail@signals2@boost@@V?$optional@H@4@@std@@V?$slot0@_NV?$function@$$A6A_NXZ@boost@@@signals2@boost@@Vmutex@45@@detail@signals2@boost@@@boost@@@std@@@std@@U_Iterator_base0@2@@1@V?$_List_const_iterator@V?$_List_val@U?$_List_simple_types@V?$shared_ptr@V?$connection_body@U?$pair@W4slot_meta_group@detail@signals2@boost@@V?$optional@H@4@@std@@V?$slot0@_NV?$function@$$A6A_NXZ@boost@@@signals2@boost@@Vmutex@45@@detail@signals2@boost@@@boost@@@std@@@std@@@1@1Uforward_iterator_tag@1@@Z 00436130 f i cinder:AppBasic.obj
 0001:00035130       ??$_Insert_range@V?$_List_const_iterator@V?$_List_val@U?$_List_simple_types@V?$shared_ptr@V?$connection_body@U?$pair@W4slot_meta_group@detail@signals2@boost@@V?$optional@H@4@@std@@V?$slot1@XAAVMouseEvent@app@cinder@@V?$function@$$A6AXAAVMouseEvent@app@cinder@@@Z@boost@@@signals2@boost@@Vmutex@45@@detail@signals2@boost@@@boost@@@std@@@std@@@std@@@?$list@V?$shared_ptr@V?$connection_body@U?$pair@W4slot_meta_group@detail@signals2@boost@@V?$optional@H@4@@std@@V?$slot1@XAAVMouseEvent@app@cinder@@V?$function@$$A6AXAAVMouseEvent@app@cinder@@@Z@boost@@@signals2@boost@@Vmutex@45@@detail@signals2@boost@@@boost@@V?$allocator@V?$shared_ptr@V?$connection_body@U?$pair@W4slot_meta_group@detail@signals2@boost@@V?$optional@H@4@@std@@V?$slot1@XAAVMouseEvent@app@cinder@@V?$function@$$A6AXAAVMouseEvent@app@cinder@@@Z@boost@@@signals2@boost@@Vmutex@45@@detail@signals2@boost@@@boost@@@std@@@std@@QAEXV?$_List_unchecked_const_iterator@V?$_List_val@U?$_List_simple_types@V?$shared_ptr@V?$connection_body@U?$pair@W4slot_meta_group@detail@signals2@boost@@V?$optional@H@4@@std@@V?$slot1@XAAVMouseEvent@app@cinder@@V?$function@$$A6AXAAVMouseEvent@app@cinder@@@Z@boost@@@signals2@boost@@Vmutex@45@@detail@signals2@boost@@@boost@@@std@@@std@@U_Iterator_base0@2@@1@V?$_List_const_iterator@V?$_List_val@U?$_List_simple_types@V?$shared_ptr@V?$connection_body@U?$pair@W4slot_meta_group@detail@signals2@boost@@V?$optional@H@4@@std@@V?$slot1@XAAVMouseEvent@app@cinder@@V?$function@$$A6AXAAVMouseEvent@app@cinder@@@Z@boost@@@signals2@boost@@Vmutex@45@@detail@signals2@boost@@@boost@@@std@@@std@@@1@1Uforward_iterator_tag@1@@Z 00436130 f i cinder:Window.obj
 0001:00035130       ??$_Insert_range@V?$_List_const_iterator@V?$_List_val@U?$_List_simple_types@V?$shared_ptr@V?$connection_body@U?$pair@W4slot_meta_group@detail@signals2@boost@@V?$optional@H@4@@std@@V?$slot1@XAAVTouchEvent@app@cinder@@V?$function@$$A6AXAAVTouchEvent@app@cinder@@@Z@boost@@@signals2@boost@@Vmutex@45@@detail@signals2@boost@@@boost@@@std@@@std@@@std@@@?$list@V?$shared_ptr@V?$connection_body@U?$pair@W4slot_meta_group@detail@signals2@boost@@V?$optional@H@4@@std@@V?$slot1@XAAVTouchEvent@app@cinder@@V?$function@$$A6AXAAVTouchEvent@app@cinder@@@Z@boost@@@signals2@boost@@Vmutex@45@@detail@signals2@boost@@@boost@@V?$allocator@V?$shared_ptr@V?$connection_body@U?$pair@W4slot_meta_group@detail@signals2@boost@@V?$optional@H@4@@std@@V?$slot1@XAAVTouchEvent@app@cinder@@V?$function@$$A6AXAAVTouchEvent@app@cinder@@@Z@boost@@@signals2@boost@@Vmutex@45@@detail@signals2@boost@@@boost@@@std@@@std@@QAEXV?$_List_unchecked_const_iterator@V?$_List_val@U?$_List_simple_types@V?$shared_ptr@V?$connection_body@U?$pair@W4slot_meta_group@detail@signals2@boost@@V?$optional@H@4@@std@@V?$slot1@XAAVTouchEvent@app@cinder@@V?$function@$$A6AXAAVTouchEvent@app@cinder@@@Z@boost@@@signals2@boost@@Vmutex@45@@detail@signals2@boost@@@boost@@@std@@@std@@U_Iterator_base0@2@@1@V?$_List_const_iterator@V?$_List_val@U?$_List_simple_types@V?$shared_ptr@V?$connection_body@U?$pair@W4slot_meta_group@detail@signals2@boost@@V?$optional@H@4@@std@@V?$slot1@XAAVTouchEvent@app@cinder@@V?$function@$$A6AXAAVTouchEvent@app@cinder@@@Z@boost@@@signals2@boost@@Vmutex@45@@detail@signals2@boost@@@boost@@@std@@@std@@@1@1Uforward_iterator_tag@1@@Z 00436130 f i cinder:Window.obj
 0001:00035130       ??$_Insert_range@V?$_List_const_iterator@V?$_List_val@U?$_List_simple_types@V?$shared_ptr@V?$connection_body@U?$pair@W4slot_meta_group@detail@signals2@boost@@V?$optional@H@4@@std@@V?$slot0@XV?$function@$$A6AXXZ@boost@@@signals2@boost@@Vmutex@45@@detail@signals2@boost@@@boost@@@std@@@std@@@std@@@?$list@V?$shared_ptr@V?$connection_body@U?$pair@W4slot_meta_group@detail@signals2@boost@@V?$optional@H@4@@std@@V?$slot0@XV?$function@$$A6AXXZ@boost@@@signals2@boost@@Vmutex@45@@detail@signals2@boost@@@boost@@V?$allocator@V?$shared_ptr@V?$connection_body@U?$pair@W4slot_meta_group@detail@signals2@boost@@V?$optional@H@4@@std@@V?$slot0@XV?$function@$$A6AXXZ@boost@@@signals2@boost@@Vmutex@45@@detail@signals2@boost@@@boost@@@std@@@std@@QAEXV?$_List_unchecked_const_iterator@V?$_List_val@U?$_List_simple_types@V?$shared_ptr@V?$connection_body@U?$pair@W4slot_meta_group@detail@signals2@boost@@V?$optional@H@4@@std@@V?$slot0@XV?$function@$$A6AXXZ@boost@@@signals2@boost@@Vmutex@45@@detail@signals2@boost@@@boost@@@std@@@std@@U_Iterator_base0@2@@1@V?$_List_const_iterator@V?$_List_val@U?$_List_simple_types@V?$shared_ptr@V?$connection_body@U?$pair@W4slot_meta_group@detail@signals2@boost@@V?$optional@H@4@@std@@V?$slot0@XV?$function@$$A6AXXZ@boost@@@signals2@boost@@Vmutex@45@@detail@signals2@boost@@@boost@@@std@@@std@@@1@1Uforward_iterator_tag@1@@Z 00436130 f i cinder:Window.obj
 0001:00035130       ??$_Insert_range@V?$_List_const_iterator@V?$_List_val@U?$_List_simple_types@V?$shared_ptr@V?$connection_body@U?$pair@W4slot_meta_group@detail@signals2@boost@@V?$optional@H@4@@std@@V?$slot1@XAAVKeyEvent@app@cinder@@V?$function@$$A6AXAAVKeyEvent@app@cinder@@@Z@boost@@@signals2@boost@@Vmutex@45@@detail@signals2@boost@@@boost@@@std@@@std@@@std@@@?$list@V?$shared_ptr@V?$connection_body@U?$pair@W4slot_meta_group@detail@signals2@boost@@V?$optional@H@4@@std@@V?$slot1@XAAVKeyEvent@app@cinder@@V?$function@$$A6AXAAVKeyEvent@app@cinder@@@Z@boost@@@signals2@boost@@Vmutex@45@@detail@signals2@boost@@@boost@@V?$allocator@V?$shared_ptr@V?$connection_body@U?$pair@W4slot_meta_group@detail@signals2@boost@@V?$optional@H@4@@std@@V?$slot1@XAAVKeyEvent@app@cinder@@V?$function@$$A6AXAAVKeyEvent@app@cinder@@@Z@boost@@@signals2@boost@@Vmutex@45@@detail@signals2@boost@@@boost@@@std@@@std@@QAEXV?$_List_unchecked_const_iterator@V?$_List_val@U?$_List_simple_types@V?$shared_ptr@V?$connection_body@U?$pair@W4slot_meta_group@detail@signals2@boost@@V?$optional@H@4@@std@@V?$slot1@XAAVKeyEvent@app@cinder@@V?$function@$$A6AXAAVKeyEvent@app@cinder@@@Z@boost@@@signals2@boost@@Vmutex@45@@detail@signals2@boost@@@boost@@@std@@@std@@U_Iterator_base0@2@@1@V?$_List_const_iterator@V?$_List_val@U?$_List_simple_types@V?$shared_ptr@V?$connection_body@U?$pair@W4slot_meta_group@detail@signals2@boost@@V?$optional@H@4@@std@@V?$slot1@XAAVKeyEvent@app@cinder@@V?$function@$$A6AXAAVKeyEvent@app@cinder@@@Z@boost@@@signals2@boost@@Vmutex@45@@detail@signals2@boost@@@boost@@@std@@@std@@@1@1Uforward_iterator_tag@1@@Z 00436130 f i cinder:Window.obj
 0001:00035130       ??$_Insert_range@V?$_List_const_iterator@V?$_List_val@U?$_List_simple_types@V?$shared_ptr@V?$connection_body@U?$pair@W4slot_meta_group@detail@signals2@boost@@V?$optional@H@4@@std@@V?$slot1@XAAVFileDropEvent@app@cinder@@V?$function@$$A6AXAAVFileDropEvent@app@cinder@@@Z@boost@@@signals2@boost@@Vmutex@45@@detail@signals2@boost@@@boost@@@std@@@std@@@std@@@?$list@V?$shared_ptr@V?$connection_body@U?$pair@W4slot_meta_group@detail@signals2@boost@@V?$optional@H@4@@std@@V?$slot1@XAAVFileDropEvent@app@cinder@@V?$function@$$A6AXAAVFileDropEvent@app@cinder@@@Z@boost@@@signals2@boost@@Vmutex@45@@detail@signals2@boost@@@boost@@V?$allocator@V?$shared_ptr@V?$connection_body@U?$pair@W4slot_meta_group@detail@signals2@boost@@V?$optional@H@4@@std@@V?$slot1@XAAVFileDropEvent@app@cinder@@V?$function@$$A6AXAAVFileDropEvent@app@cinder@@@Z@boost@@@signals2@boost@@Vmutex@45@@detail@signals2@boost@@@boost@@@std@@@std@@QAEXV?$_List_unchecked_const_iterator@V?$_List_val@U?$_List_simple_types@V?$shared_ptr@V?$connection_body@U?$pair@W4slot_meta_group@detail@signals2@boost@@V?$optional@H@4@@std@@V?$slot1@XAAVFileDropEvent@app@cinder@@V?$function@$$A6AXAAVFileDropEvent@app@cinder@@@Z@boost@@@signals2@boost@@Vmutex@45@@detail@signals2@boost@@@boost@@@std@@@std@@U_Iterator_base0@2@@1@V?$_List_const_iterator@V?$_List_val@U?$_List_simple_types@V?$shared_ptr@V?$connection_body@U?$pair@W4slot_meta_group@detail@signals2@boost@@V?$optional@H@4@@std@@V?$slot1@XAAVFileDropEvent@app@cinder@@V?$function@$$A6AXAAVFileDropEvent@app@cinder@@@Z@boost@@@signals2@boost@@Vmutex@45@@detail@signals2@boost@@@boost@@@std@@@std@@@1@1Uforward_iterator_tag@1@@Z 00436130 f i cinder:Window.obj
 0001:00035200       ??$_Uninit_copy@V?$_Vector_const_iterator@V?$_Vector_val@U?$_Simple_types@VTouch@TouchEvent@app@cinder@@@std@@@std@@@std@@PAVTouch@TouchEvent@app@cinder@@V?$allocator@VTouch@TouchEvent@app@cinder@@@2@@std@@YAPAVTouch@TouchEvent@app@cinder@@V?$_Vector_const_iterator@V?$_Vector_val@U?$_Simple_types@VTouch@TouchEvent@app@cinder@@@std@@@std@@@0@0PAV1234@AAU?$_Wrap_alloc@V?$allocator@VTouch@TouchEvent@app@cinder@@@std@@@0@U_Nonscalar_ptr_iterator_tag@0@@Z 00436200 f i cinder:Window.obj
 0001:00035260       ??$_Uninit_copy@V?$_Vector_const_iterator@V?$_Vector_val@U?$_Simple_types@Vpath@filesystem@boost@@@std@@@std@@@std@@PAVpath@filesystem@boost@@V?$allocator@Vpath@filesystem@boost@@@2@@std@@YAPAVpath@filesystem@boost@@V?$_Vector_const_iterator@V?$_Vector_val@U?$_Simple_types@Vpath@filesystem@boost@@@std@@@std@@@0@0PAV123@AAU?$_Wrap_alloc@V?$allocator@Vpath@filesystem@boost@@@std@@@0@U_Nonscalar_ptr_iterator_tag@0@@Z 00436260 f i cinder:Window.obj
 0001:00035320       ??$_Uninitialized_copy0@PAV?$variant@V?$shared_ptr@X@boost@@Vforeign_void_shared_ptr@detail@signals2@2@Uvoid_@042@U6042@U6042@U6042@U6042@U6042@U6042@U6042@U6042@U6042@U6042@U6042@U6042@U6042@U6042@U6042@U6042@U6042@@boost@@PAV12@@std@@YAPAV?$variant@V?$shared_ptr@X@boost@@Vforeign_void_shared_ptr@detail@signals2@2@Uvoid_@042@U6042@U6042@U6042@U6042@U6042@U6042@U6042@U6042@U6042@U6042@U6042@U6042@U6042@U6042@U6042@U6042@U6042@@boost@@PAV12@00U_Nonscalar_ptr_iterator_tag@0@@Z 00436320 f i cinder:Window.obj
 0001:00035420       ??$apply_visitor@$$CBVlock_weak_ptr_visitor@detail@signals2@boost@@@?$variant@V?$weak_ptr@X@boost@@Vforeign_void_weak_ptr@detail@signals2@2@Uvoid_@042@U6042@U6042@U6042@U6042@U6042@U6042@U6042@U6042@U6042@U6042@U6042@U6042@U6042@U6042@U6042@U6042@U6042@@boost@@QBE?AV?$variant@V?$shared_ptr@X@boost@@Vforeign_void_shared_ptr@detail@signals2@2@Uvoid_@042@U6042@U6042@U6042@U6042@U6042@U6042@U6042@U6042@U6042@U6042@U6042@U6042@U6042@U6042@U6042@U6042@U6042@@1@ABVlock_weak_ptr_visitor@detail@signals2@1@@Z 00436420 f i cinder:Window.obj
 0001:00035450       ??$apply_visitor@Vlock_weak_ptr_visitor@detail@signals2@boost@@$$CBV?$variant@V?$weak_ptr@X@boost@@Vforeign_void_weak_ptr@detail@signals2@2@Uvoid_@042@U6042@U6042@U6042@U6042@U6042@U6042@U6042@U6042@U6042@U6042@U6042@U6042@U6042@U6042@U6042@U6042@U6042@@4@@boost@@YA?AV?$variant@V?$shared_ptr@X@boost@@Vforeign_void_shared_ptr@detail@signals2@2@Uvoid_@042@U6042@U6042@U6042@U6042@U6042@U6042@U6042@U6042@U6042@U6042@U6042@U6042@U6042@U6042@U6042@U6042@U6042@@0@ABVlock_weak_ptr_visitor@detail@signals2@0@ABV?$variant@V?$weak_ptr@X@boost@@Vforeign_void_weak_ptr@detail@signals2@2@Uvoid_@042@U6042@U6042@U6042@U6042@U6042@U6042@U6042@U6042@U6042@U6042@U6042@U6042@U6042@U6042@U6042@U6042@U6042@@0@@Z 00436450 f i cinder:Window.obj
 0001:00035470       ??$checked_delete@V?$grouped_list@HU?$less@H@std@@V?$shared_ptr@V?$connection_body@U?$pair@W4slot_meta_group@detail@signals2@boost@@V?$optional@H@4@@std@@V?$slot0@XV?$function@$$A6AXXZ@boost@@@signals2@boost@@Vmutex@45@@detail@signals2@boost@@@boost@@@detail@signals2@boost@@@boost@@YAXPAV?$grouped_list@HU?$less@H@std@@V?$shared_ptr@V?$connection_body@U?$pair@W4slot_meta_group@detail@signals2@boost@@V?$optional@H@4@@std@@V?$slot0@XV?$function@$$A6AXXZ@boost@@@signals2@boost@@Vmutex@45@@detail@signals2@boost@@@boost@@@detail@signals2@0@@Z 00436470 f i cinder:Window.obj
 0001:00035470       ??$checked_delete@V?$grouped_list@HU?$less@H@std@@V?$shared_ptr@V?$connection_body@U?$pair@W4slot_meta_group@detail@signals2@boost@@V?$optional@H@4@@std@@V?$slot1@XAAVMouseEvent@app@cinder@@V?$function@$$A6AXAAVMouseEvent@app@cinder@@@Z@boost@@@signals2@boost@@Vmutex@45@@detail@signals2@boost@@@boost@@@detail@signals2@boost@@@boost@@YAXPAV?$grouped_list@HU?$less@H@std@@V?$shared_ptr@V?$connection_body@U?$pair@W4slot_meta_group@detail@signals2@boost@@V?$optional@H@4@@std@@V?$slot1@XAAVMouseEvent@app@cinder@@V?$function@$$A6AXAAVMouseEvent@app@cinder@@@Z@boost@@@signals2@boost@@Vmutex@45@@detail@signals2@boost@@@boost@@@detail@signals2@0@@Z 00436470 f i cinder:Window.obj
 0001:00035470       ??$checked_delete@V?$grouped_list@HU?$less@H@std@@V?$shared_ptr@V?$connection_body@U?$pair@W4slot_meta_group@detail@signals2@boost@@V?$optional@H@4@@std@@V?$slot0@_NV?$function@$$A6A_NXZ@boost@@@signals2@boost@@Vmutex@45@@detail@signals2@boost@@@boost@@@detail@signals2@boost@@@boost@@YAXPAV?$grouped_list@HU?$less@H@std@@V?$shared_ptr@V?$connection_body@U?$pair@W4slot_meta_group@detail@signals2@boost@@V?$optional@H@4@@std@@V?$slot0@_NV?$function@$$A6A_NXZ@boost@@@signals2@boost@@Vmutex@45@@detail@signals2@boost@@@boost@@@detail@signals2@0@@Z 00436470 f i cinder:AppBasic.obj
 0001:00035470       ??$checked_delete@V?$grouped_list@HU?$less@H@std@@V?$shared_ptr@V?$connection_body@U?$pair@W4slot_meta_group@detail@signals2@boost@@V?$optional@H@4@@std@@V?$slot1@XAAVKeyEvent@app@cinder@@V?$function@$$A6AXAAVKeyEvent@app@cinder@@@Z@boost@@@signals2@boost@@Vmutex@45@@detail@signals2@boost@@@boost@@@detail@signals2@boost@@@boost@@YAXPAV?$grouped_list@HU?$less@H@std@@V?$shared_ptr@V?$connection_body@U?$pair@W4slot_meta_group@detail@signals2@boost@@V?$optional@H@4@@std@@V?$slot1@XAAVKeyEvent@app@cinder@@V?$function@$$A6AXAAVKeyEvent@app@cinder@@@Z@boost@@@signals2@boost@@Vmutex@45@@detail@signals2@boost@@@boost@@@detail@signals2@0@@Z 00436470 f i cinder:Window.obj
 0001:00035470       ??$checked_delete@V?$grouped_list@HU?$less@H@std@@V?$shared_ptr@V?$connection_body@U?$pair@W4slot_meta_group@detail@signals2@boost@@V?$optional@H@4@@std@@V?$slot1@XAAVFileDropEvent@app@cinder@@V?$function@$$A6AXAAVFileDropEvent@app@cinder@@@Z@boost@@@signals2@boost@@Vmutex@45@@detail@signals2@boost@@@boost@@@detail@signals2@boost@@@boost@@YAXPAV?$grouped_list@HU?$less@H@std@@V?$shared_ptr@V?$connection_body@U?$pair@W4slot_meta_group@detail@signals2@boost@@V?$optional@H@4@@std@@V?$slot1@XAAVFileDropEvent@app@cinder@@V?$function@$$A6AXAAVFileDropEvent@app@cinder@@@Z@boost@@@signals2@boost@@Vmutex@45@@detail@signals2@boost@@@boost@@@detail@signals2@0@@Z 00436470 f i cinder:Window.obj
 0001:00035470       ??$checked_delete@V?$grouped_list@HU?$less@H@std@@V?$shared_ptr@V?$connection_body@U?$pair@W4slot_meta_group@detail@signals2@boost@@V?$optional@H@4@@std@@V?$slot1@XAAVTouchEvent@app@cinder@@V?$function@$$A6AXAAVTouchEvent@app@cinder@@@Z@boost@@@signals2@boost@@Vmutex@45@@detail@signals2@boost@@@boost@@@detail@signals2@boost@@@boost@@YAXPAV?$grouped_list@HU?$less@H@std@@V?$shared_ptr@V?$connection_body@U?$pair@W4slot_meta_group@detail@signals2@boost@@V?$optional@H@4@@std@@V?$slot1@XAAVTouchEvent@app@cinder@@V?$function@$$A6AXAAVTouchEvent@app@cinder@@@Z@boost@@@signals2@boost@@Vmutex@45@@detail@signals2@boost@@@boost@@@detail@signals2@0@@Z 00436470 f i cinder:Window.obj
 0001:000354c0       ??$checked_delete@Vinvocation_state@?$signal1_impl@XAAVMouseEvent@app@cinder@@U?$EventCombiner@VMouseEvent@app@cinder@@@23@HU?$less@H@std@@V?$function@$$A6AXAAVMouseEvent@app@cinder@@@Z@boost@@V?$function@$$A6AXABVconnection@signals2@boost@@AAVMouseEvent@app@cinder@@@Z@8@Vmutex@signals2@8@@detail@signals2@boost@@@boost@@YAXPAVinvocation_state@?$signal1_impl@XAAVMouseEvent@app@cinder@@U?$EventCombiner@VMouseEvent@app@cinder@@@23@HU?$less@H@std@@V?$function@$$A6AXAAVMouseEvent@app@cinder@@@Z@boost@@V?$function@$$A6AXABVconnection@signals2@boost@@AAVMouseEvent@app@cinder@@@Z@8@Vmutex@signals2@8@@detail@signals2@0@@Z 004364c0 f i cinder:Window.obj
 0001:000354c0       ??$checked_delete@Vinvocation_state@?$signal0_impl@_NUBooleanAndEventCombiner@app@cinder@@HU?$less@H@std@@V?$function@$$A6A_NXZ@boost@@V?$function@$$A6A_NABVconnection@signals2@boost@@@Z@7@Vmutex@signals2@7@@detail@signals2@boost@@@boost@@YAXPAVinvocation_state@?$signal0_impl@_NUBooleanAndEventCombiner@app@cinder@@HU?$less@H@std@@V?$function@$$A6A_NXZ@boost@@V?$function@$$A6A_NABVconnection@signals2@boost@@@Z@7@Vmutex@signals2@7@@detail@signals2@0@@Z 004364c0 f i cinder:AppBasic.obj
 0001:000354c0       ??$checked_delete@Vinvocation_state@?$signal0_impl@XV?$optional_last_value@X@signals2@boost@@HU?$less@H@std@@V?$function@$$A6AXXZ@3@V?$function@$$A6AXABVconnection@signals2@boost@@@Z@3@Vmutex@23@@detail@signals2@boost@@@boost@@YAXPAVinvocation_state@?$signal0_impl@XV?$optional_last_value@X@signals2@boost@@HU?$less@H@std@@V?$function@$$A6AXXZ@3@V?$function@$$A6AXABVconnection@signals2@boost@@@Z@3@Vmutex@23@@detail@signals2@0@@Z 004364c0 f i cinder:Window.obj
 0001:000354c0       ??$checked_delete@Vinvocation_state@?$signal1_impl@XAAVFileDropEvent@app@cinder@@U?$EventCombiner@VFileDropEvent@app@cinder@@@23@HU?$less@H@std@@V?$function@$$A6AXAAVFileDropEvent@app@cinder@@@Z@boost@@V?$function@$$A6AXABVconnection@signals2@boost@@AAVFileDropEvent@app@cinder@@@Z@8@Vmutex@signals2@8@@detail@signals2@boost@@@boost@@YAXPAVinvocation_state@?$signal1_impl@XAAVFileDropEvent@app@cinder@@U?$EventCombiner@VFileDropEvent@app@cinder@@@23@HU?$less@H@std@@V?$function@$$A6AXAAVFileDropEvent@app@cinder@@@Z@boost@@V?$function@$$A6AXABVconnection@signals2@boost@@AAVFileDropEvent@app@cinder@@@Z@8@Vmutex@signals2@8@@detail@signals2@0@@Z 004364c0 f i cinder:Window.obj
 0001:000354c0       ??$checked_delete@Vinvocation_state@?$signal1_impl@XAAVTouchEvent@app@cinder@@U?$EventCombiner@VTouchEvent@app@cinder@@@23@HU?$less@H@std@@V?$function@$$A6AXAAVTouchEvent@app@cinder@@@Z@boost@@V?$function@$$A6AXABVconnection@signals2@boost@@AAVTouchEvent@app@cinder@@@Z@8@Vmutex@signals2@8@@detail@signals2@boost@@@boost@@YAXPAVinvocation_state@?$signal1_impl@XAAVTouchEvent@app@cinder@@U?$EventCombiner@VTouchEvent@app@cinder@@@23@HU?$less@H@std@@V?$function@$$A6AXAAVTouchEvent@app@cinder@@@Z@boost@@V?$function@$$A6AXABVconnection@signals2@boost@@AAVTouchEvent@app@cinder@@@Z@8@Vmutex@signals2@8@@detail@signals2@0@@Z 004364c0 f i cinder:Window.obj
 0001:000354c0       ??$checked_delete@Vinvocation_state@?$signal1_impl@XAAVKeyEvent@app@cinder@@U?$EventCombiner@VKeyEvent@app@cinder@@@23@HU?$less@H@std@@V?$function@$$A6AXAAVKeyEvent@app@cinder@@@Z@boost@@V?$function@$$A6AXABVconnection@signals2@boost@@AAVKeyEvent@app@cinder@@@Z@8@Vmutex@signals2@8@@detail@signals2@boost@@@boost@@YAXPAVinvocation_state@?$signal1_impl@XAAVKeyEvent@app@cinder@@U?$EventCombiner@VKeyEvent@app@cinder@@@23@HU?$less@H@std@@V?$function@$$A6AXAAVKeyEvent@app@cinder@@@Z@boost@@V?$function@$$A6AXABVconnection@signals2@boost@@AAVKeyEvent@app@cinder@@@Z@8@Vmutex@signals2@8@@detail@signals2@0@@Z 004364c0 f i cinder:Window.obj
 0001:000354e0       ??$enable_current_exception@U?$error_info_injector@Vbad_function_call@boost@@@exception_detail@boost@@@boost@@YA?AV?$clone_impl@U?$error_info_injector@Vbad_function_call@boost@@@exception_detail@boost@@@exception_detail@0@ABU?$error_info_injector@Vbad_function_call@boost@@@20@@Z 004364e0 f i cinder:Window.obj
 0001:00035590       ??$enable_error_info@Vbad_function_call@boost@@@boost@@YA?AU?$error_info_injector@Vbad_function_call@boost@@@exception_detail@0@ABVbad_function_call@0@@Z 00436590 f i cinder:Window.obj
 0001:000355e0       ??$forced_return@X@variant@detail@boost@@YAXXZ 004365e0 f i cinder:Window.obj
 0001:000355f0       ??$internal_apply_visitor@V?$invoke_visitor@$$CBVlock_weak_ptr_visitor@detail@signals2@boost@@@variant@detail@boost@@@?$variant@V?$weak_ptr@X@boost@@Vforeign_void_weak_ptr@detail@signals2@2@Uvoid_@042@U6042@U6042@U6042@U6042@U6042@U6042@U6042@U6042@U6042@U6042@U6042@U6042@U6042@U6042@U6042@U6042@U6042@@boost@@ABE?AV?$variant@V?$shared_ptr@X@boost@@Vforeign_void_shared_ptr@detail@signals2@2@Uvoid_@042@U6042@U6042@U6042@U6042@U6042@U6042@U6042@U6042@U6042@U6042@U6042@U6042@U6042@U6042@U6042@U6042@U6042@@1@AAV?$invoke_visitor@$$CBVlock_weak_ptr_visitor@detail@signals2@boost@@@variant@detail@1@@Z 004365f0 f i cinder:Window.obj
 0001:00035630       ??$internal_apply_visitor_impl@V?$invoke_visitor@$$CBVlock_weak_ptr_visitor@detail@signals2@boost@@@variant@detail@boost@@PBX@?$variant@V?$weak_ptr@X@boost@@Vforeign_void_weak_ptr@detail@signals2@2@Uvoid_@042@U6042@U6042@U6042@U6042@U6042@U6042@U6042@U6042@U6042@U6042@U6042@U6042@U6042@U6042@U6042@U6042@U6042@@boost@@CA?AV?$variant@V?$shared_ptr@X@boost@@Vforeign_void_shared_ptr@detail@signals2@2@Uvoid_@042@U6042@U6042@U6042@U6042@U6042@U6042@U6042@U6042@U6042@U6042@U6042@U6042@U6042@U6042@U6042@U6042@U6042@@1@HHAAV?$invoke_visitor@$$CBVlock_weak_ptr_visitor@detail@signals2@boost@@@variant@detail@1@PBX@Z 00436630 f i cinder:Window.obj
 0001:00035670       ??$internal_visit@$$CBV?$weak_ptr@X@boost@@@?$invoke_visitor@$$CBVlock_weak_ptr_visitor@detail@signals2@boost@@@variant@detail@boost@@QAE?AV?$variant@V?$shared_ptr@X@boost@@Vforeign_void_shared_ptr@detail@signals2@2@Uvoid_@042@U6042@U6042@U6042@U6042@U6042@U6042@U6042@U6042@U6042@U6042@U6042@U6042@U6042@U6042@U6042@U6042@U6042@@3@ABV?$weak_ptr@X@3@H@Z 00436670 f i cinder:Window.obj
 0001:000356a0       ??$internal_visit@$$CBVforeign_void_weak_ptr@detail@signals2@boost@@@?$invoke_visitor@$$CBVlock_weak_ptr_visitor@detail@signals2@boost@@@variant@detail@boost@@QAE?AV?$variant@V?$shared_ptr@X@boost@@Vforeign_void_shared_ptr@detail@signals2@2@Uvoid_@042@U6042@U6042@U6042@U6042@U6042@U6042@U6042@U6042@U6042@U6042@U6042@U6042@U6042@U6042@U6042@U6042@U6042@@3@ABVforeign_void_weak_ptr@2signals2@3@H@Z 004366a0 f i cinder:Window.obj
 0001:000356d0       ??$internal_visit@V?$weak_ptr@X@boost@@@?$invoke_visitor@$$CBVlock_weak_ptr_visitor@detail@signals2@boost@@@variant@detail@boost@@QAE?AV?$variant@V?$shared_ptr@X@boost@@Vforeign_void_shared_ptr@detail@signals2@2@Uvoid_@042@U6042@U6042@U6042@U6042@U6042@U6042@U6042@U6042@U6042@U6042@U6042@U6042@U6042@U6042@U6042@U6042@U6042@@3@ABV?$backup_holder@V?$weak_ptr@X@boost@@@123@J@Z 004366d0 f i cinder:Window.obj
 0001:00035700       ??$internal_visit@Vforeign_void_weak_ptr@detail@signals2@boost@@@?$invoke_visitor@$$CBVlock_weak_ptr_visitor@detail@signals2@boost@@@variant@detail@boost@@QAE?AV?$variant@V?$shared_ptr@X@boost@@Vforeign_void_shared_ptr@detail@signals2@2@Uvoid_@042@U6042@U6042@U6042@U6042@U6042@U6042@U6042@U6042@U6042@U6042@U6042@U6042@U6042@U6042@U6042@U6042@U6042@@3@ABV?$backup_holder@Vforeign_void_weak_ptr@detail@signals2@boost@@@123@J@Z 00436700 f i cinder:Window.obj
 0001:00035730       ??$make_obj_guard@V?$auto_buffer@V?$variant@V?$shared_ptr@X@boost@@Vforeign_void_shared_ptr@detail@signals2@2@Uvoid_@042@U6042@U6042@U6042@U6042@U6042@U6042@U6042@U6042@U6042@U6042@U6042@U6042@U6042@U6042@U6042@U6042@U6042@@boost@@U?$store_n_objects@$09@detail@signals2@2@Udefault_grow_policy@452@V?$allocator@V?$variant@V?$shared_ptr@X@boost@@Vforeign_void_shared_ptr@detail@signals2@2@Uvoid_@042@U6042@U6042@U6042@U6042@U6042@U6042@U6042@U6042@U6042@U6042@U6042@U6042@U6042@U6042@U6042@U6042@U6042@@boost@@@std@@@detail@signals2@boost@@P81234@AEXPAV?$variant@V?$shared_ptr@X@boost@@Vforeign_void_shared_ptr@detail@signals2@2@Uvoid_@042@U6042@U6042@U6042@U6042@U6042@U6042@U6042@U6042@U6042@U6042@U6042@U6042@U6042@U6042@U6042@U6042@U6042@@4@I@ZPAV54@I@detail@multi_index@boost@@YA?AV?$obj_scope_guard_impl2@V?$auto_buffer@V?$variant@V?$shared_ptr@X@boost@@Vforeign_void_shared_ptr@detail@signals2@2@Uvoid_@042@U6042@U6042@U6042@U6042@U6042@U6042@U6042@U6042@U6042@U6042@U6042@U6042@U6042@U6042@U6042@U6042@U6042@@boost@@U?$store_n_objects@$09@detail@signals2@2@Udefault_grow_policy@452@V?$allocator@V?$variant@V?$shared_ptr@X@boost@@Vforeign_void_shared_ptr@detail@signals2@2@Uvoid_@042@U6042@U6042@U6042@U6042@U6042@U6042@U6042@U6042@U6042@U6042@U6042@U6042@U6042@U6042@U6042@U6042@U6042@@boost@@@std@@@detail@signals2@boost@@P81234@AEXPAV?$variant@V?$shared_ptr@X@boost@@Vforeign_void_shared_ptr@detail@signals2@2@Uvoid_@042@U6042@U6042@U6042@U6042@U6042@U6042@U6042@U6042@U6042@U6042@U6042@U6042@U6042@U6042@U6042@U6042@U6042@@4@I@ZPAV54@I@012@AAV?$auto_buffer@V?$variant@V?$shared_ptr@X@boost@@Vforeign_void_shared_ptr@detail@signals2@2@Uvoid_@042@U6042@U6042@U6042@U6042@U6042@U6042@U6042@U6042@U6042@U6042@U6042@U6042@U6042@U6042@U6042@U6042@U6042@@boost@@U?$store_n_objects@$09@detail@signals2@2@Udefault_grow_policy@452@V?$allocator@V?$variant@V?$shared_ptr@X@boost@@Vforeign_void_shared_ptr@detail@signals2@2@Uvoid_@042@U6042@U6042@U6042@U6042@U6042@U6042@U6042@U6042@U6042@U6042@U6042@U6042@U6042@U6042@U6042@U6042@U6042@@boost@@@std@@@0signals2@2@P84052@AEXPAV?$variant@V?$shared_ptr@X@boost@@Vforeign_void_shared_ptr@detail@signals2@2@Uvoid_@042@U6042@U6042@U6042@U6042@U6042@U6042@U6042@U6042@U6042@U6042@U6042@U6042@U6042@U6042@U6042@U6042@U6042@@2@I@Z1I@Z 00436730 f i cinder:Window.obj
 0001:00035760       ??$nolock_grab_tracked_objects@V?$back_insert_iterator@V?$auto_buffer@V?$variant@V?$shared_ptr@X@boost@@Vforeign_void_shared_ptr@detail@signals2@2@Uvoid_@042@U6042@U6042@U6042@U6042@U6042@U6042@U6042@U6042@U6042@U6042@U6042@U6042@U6042@U6042@U6042@U6042@U6042@@boost@@U?$store_n_objects@$09@detail@signals2@2@Udefault_grow_policy@452@V?$allocator@V?$variant@V?$shared_ptr@X@boost@@Vforeign_void_shared_ptr@detail@signals2@2@Uvoid_@042@U6042@U6042@U6042@U6042@U6042@U6042@U6042@U6042@U6042@U6042@U6042@U6042@U6042@U6042@U6042@U6042@U6042@@boost@@@std@@@detail@signals2@boost@@@std@@@?$connection_body@U?$pair@W4slot_meta_group@detail@signals2@boost@@V?$optional@H@4@@std@@V?$slot1@XAAVFileDropEvent@app@cinder@@V?$function@$$A6AXAAVFileDropEvent@app@cinder@@@Z@boost@@@signals2@boost@@Vmutex@45@@detail@signals2@boost@@QBEXV?$back_insert_iterator@V?$auto_buffer@V?$variant@V?$shared_ptr@X@boost@@Vforeign_void_shared_ptr@detail@signals2@2@Uvoid_@042@U6042@U6042@U6042@U6042@U6042@U6042@U6042@U6042@U6042@U6042@U6042@U6042@U6042@U6042@U6042@U6042@U6042@@boost@@U?$store_n_objects@$09@detail@signals2@2@Udefault_grow_policy@452@V?$allocator@V?$variant@V?$shared_ptr@X@boost@@Vforeign_void_shared_ptr@detail@signals2@2@Uvoid_@042@U6042@U6042@U6042@U6042@U6042@U6042@U6042@U6042@U6042@U6042@U6042@U6042@U6042@U6042@U6042@U6042@U6042@@boost@@@std@@@detail@signals2@boost@@@std@@@Z 00436760 f i cinder:Window.obj
 0001:00035760       ??$nolock_grab_tracked_objects@V?$back_insert_iterator@V?$auto_buffer@V?$variant@V?$shared_ptr@X@boost@@Vforeign_void_shared_ptr@detail@signals2@2@Uvoid_@042@U6042@U6042@U6042@U6042@U6042@U6042@U6042@U6042@U6042@U6042@U6042@U6042@U6042@U6042@U6042@U6042@U6042@@boost@@U?$store_n_objects@$09@detail@signals2@2@Udefault_grow_policy@452@V?$allocator@V?$variant@V?$shared_ptr@X@boost@@Vforeign_void_shared_ptr@detail@signals2@2@Uvoid_@042@U6042@U6042@U6042@U6042@U6042@U6042@U6042@U6042@U6042@U6042@U6042@U6042@U6042@U6042@U6042@U6042@U6042@@boost@@@std@@@detail@signals2@boost@@@std@@@?$connection_body@U?$pair@W4slot_meta_group@detail@signals2@boost@@V?$optional@H@4@@std@@V?$slot1@XAAVKeyEvent@app@cinder@@V?$function@$$A6AXAAVKeyEvent@app@cinder@@@Z@boost@@@signals2@boost@@Vmutex@45@@detail@signals2@boost@@QBEXV?$back_insert_iterator@V?$auto_buffer@V?$variant@V?$shared_ptr@X@boost@@Vforeign_void_shared_ptr@detail@signals2@2@Uvoid_@042@U6042@U6042@U6042@U6042@U6042@U6042@U6042@U6042@U6042@U6042@U6042@U6042@U6042@U6042@U6042@U6042@U6042@@boost@@U?$store_n_objects@$09@detail@signals2@2@Udefault_grow_policy@452@V?$allocator@V?$variant@V?$shared_ptr@X@boost@@Vforeign_void_shared_ptr@detail@signals2@2@Uvoid_@042@U6042@U6042@U6042@U6042@U6042@U6042@U6042@U6042@U6042@U6042@U6042@U6042@U6042@U6042@U6042@U6042@U6042@@boost@@@std@@@detail@signals2@boost@@@std@@@Z 00436760 f i cinder:Window.obj
 0001:00035760       ??$nolock_grab_tracked_objects@V?$back_insert_iterator@V?$auto_buffer@V?$variant@V?$shared_ptr@X@boost@@Vforeign_void_shared_ptr@detail@signals2@2@Uvoid_@042@U6042@U6042@U6042@U6042@U6042@U6042@U6042@U6042@U6042@U6042@U6042@U6042@U6042@U6042@U6042@U6042@U6042@@boost@@U?$store_n_objects@$09@detail@signals2@2@Udefault_grow_policy@452@V?$allocator@V?$variant@V?$shared_ptr@X@boost@@Vforeign_void_shared_ptr@detail@signals2@2@Uvoid_@042@U6042@U6042@U6042@U6042@U6042@U6042@U6042@U6042@U6042@U6042@U6042@U6042@U6042@U6042@U6042@U6042@U6042@@boost@@@std@@@detail@signals2@boost@@@std@@@?$connection_body@U?$pair@W4slot_meta_group@detail@signals2@boost@@V?$optional@H@4@@std@@V?$slot1@XAAVTouchEvent@app@cinder@@V?$function@$$A6AXAAVTouchEvent@app@cinder@@@Z@boost@@@signals2@boost@@Vmutex@45@@detail@signals2@boost@@QBEXV?$back_insert_iterator@V?$auto_buffer@V?$variant@V?$shared_ptr@X@boost@@Vforeign_void_shared_ptr@detail@signals2@2@Uvoid_@042@U6042@U6042@U6042@U6042@U6042@U6042@U6042@U6042@U6042@U6042@U6042@U6042@U6042@U6042@U6042@U6042@U6042@@boost@@U?$store_n_objects@$09@detail@signals2@2@Udefault_grow_policy@452@V?$allocator@V?$variant@V?$shared_ptr@X@boost@@Vforeign_void_shared_ptr@detail@signals2@2@Uvoid_@042@U6042@U6042@U6042@U6042@U6042@U6042@U6042@U6042@U6042@U6042@U6042@U6042@U6042@U6042@U6042@U6042@U6042@@boost@@@std@@@detail@signals2@boost@@@std@@@Z 00436760 f i cinder:Window.obj
 0001:00035760       ??$nolock_grab_tracked_objects@V?$back_insert_iterator@V?$auto_buffer@V?$variant@V?$shared_ptr@X@boost@@Vforeign_void_shared_ptr@detail@signals2@2@Uvoid_@042@U6042@U6042@U6042@U6042@U6042@U6042@U6042@U6042@U6042@U6042@U6042@U6042@U6042@U6042@U6042@U6042@U6042@@boost@@U?$store_n_objects@$09@detail@signals2@2@Udefault_grow_policy@452@V?$allocator@V?$variant@V?$shared_ptr@X@boost@@Vforeign_void_shared_ptr@detail@signals2@2@Uvoid_@042@U6042@U6042@U6042@U6042@U6042@U6042@U6042@U6042@U6042@U6042@U6042@U6042@U6042@U6042@U6042@U6042@U6042@@boost@@@std@@@detail@signals2@boost@@@std@@@?$connection_body@U?$pair@W4slot_meta_group@detail@signals2@boost@@V?$optional@H@4@@std@@V?$slot1@XAAVMouseEvent@app@cinder@@V?$function@$$A6AXAAVMouseEvent@app@cinder@@@Z@boost@@@signals2@boost@@Vmutex@45@@detail@signals2@boost@@QBEXV?$back_insert_iterator@V?$auto_buffer@V?$variant@V?$shared_ptr@X@boost@@Vforeign_void_shared_ptr@detail@signals2@2@Uvoid_@042@U6042@U6042@U6042@U6042@U6042@U6042@U6042@U6042@U6042@U6042@U6042@U6042@U6042@U6042@U6042@U6042@U6042@@boost@@U?$store_n_objects@$09@detail@signals2@2@Udefault_grow_policy@452@V?$allocator@V?$variant@V?$shared_ptr@X@boost@@Vforeign_void_shared_ptr@detail@signals2@2@Uvoid_@042@U6042@U6042@U6042@U6042@U6042@U6042@U6042@U6042@U6042@U6042@U6042@U6042@U6042@U6042@U6042@U6042@U6042@@boost@@@std@@@detail@signals2@boost@@@std@@@Z 00436760 f i cinder:Window.obj
 0001:00035760       ??$nolock_grab_tracked_objects@V?$back_insert_iterator@V?$auto_buffer@V?$variant@V?$shared_ptr@X@boost@@Vforeign_void_shared_ptr@detail@signals2@2@Uvoid_@042@U6042@U6042@U6042@U6042@U6042@U6042@U6042@U6042@U6042@U6042@U6042@U6042@U6042@U6042@U6042@U6042@U6042@@boost@@U?$store_n_objects@$09@detail@signals2@2@Udefault_grow_policy@452@V?$allocator@V?$variant@V?$shared_ptr@X@boost@@Vforeign_void_shared_ptr@detail@signals2@2@Uvoid_@042@U6042@U6042@U6042@U6042@U6042@U6042@U6042@U6042@U6042@U6042@U6042@U6042@U6042@U6042@U6042@U6042@U6042@@boost@@@std@@@detail@signals2@boost@@@std@@@?$connection_body@U?$pair@W4slot_meta_group@detail@signals2@boost@@V?$optional@H@4@@std@@V?$slot0@XV?$function@$$A6AXXZ@boost@@@signals2@boost@@Vmutex@45@@detail@signals2@boost@@QBEXV?$back_insert_iterator@V?$auto_buffer@V?$variant@V?$shared_ptr@X@boost@@Vforeign_void_shared_ptr@detail@signals2@2@Uvoid_@042@U6042@U6042@U6042@U6042@U6042@U6042@U6042@U6042@U6042@U6042@U6042@U6042@U6042@U6042@U6042@U6042@U6042@@boost@@U?$store_n_objects@$09@detail@signals2@2@Udefault_grow_policy@452@V?$allocator@V?$variant@V?$shared_ptr@X@boost@@Vforeign_void_shared_ptr@detail@signals2@2@Uvoid_@042@U6042@U6042@U6042@U6042@U6042@U6042@U6042@U6042@U6042@U6042@U6042@U6042@U6042@U6042@U6042@U6042@U6042@@boost@@@std@@@detail@signals2@boost@@@std@@@Z 00436760 f i cinder:Window.obj
 0001:00035920       ??$reset@Vinvocation_state@?$signal0_impl@XV?$optional_last_value@X@signals2@boost@@HU?$less@H@std@@V?$function@$$A6AXXZ@3@V?$function@$$A6AXABVconnection@signals2@boost@@@Z@3@Vmutex@23@@detail@signals2@boost@@@?$shared_ptr@Vinvocation_state@?$signal0_impl@XV?$optional_last_value@X@signals2@boost@@HU?$less@H@std@@V?$function@$$A6AXXZ@3@V?$function@$$A6AXABVconnection@signals2@boost@@@Z@3@Vmutex@23@@detail@signals2@boost@@@boost@@QAEXPAVinvocation_state@?$signal0_impl@XV?$optional_last_value@X@signals2@boost@@HU?$less@H@std@@V?$function@$$A6AXXZ@3@V?$function@$$A6AXABVconnection@signals2@boost@@@Z@3@Vmutex@23@@detail@signals2@1@@Z 00436920 f i cinder:Window.obj
 0001:00035980       ??$reset@Vinvocation_state@?$signal1_impl@XAAVFileDropEvent@app@cinder@@U?$EventCombiner@VFileDropEvent@app@cinder@@@23@HU?$less@H@std@@V?$function@$$A6AXAAVFileDropEvent@app@cinder@@@Z@boost@@V?$function@$$A6AXABVconnection@signals2@boost@@AAVFileDropEvent@app@cinder@@@Z@8@Vmutex@signals2@8@@detail@signals2@boost@@@?$shared_ptr@Vinvocation_state@?$signal1_impl@XAAVFileDropEvent@app@cinder@@U?$EventCombiner@VFileDropEvent@app@cinder@@@23@HU?$less@H@std@@V?$function@$$A6AXAAVFileDropEvent@app@cinder@@@Z@boost@@V?$function@$$A6AXABVconnection@signals2@boost@@AAVFileDropEvent@app@cinder@@@Z@8@Vmutex@signals2@8@@detail@signals2@boost@@@boost@@QAEXPAVinvocation_state@?$signal1_impl@XAAVFileDropEvent@app@cinder@@U?$EventCombiner@VFileDropEvent@app@cinder@@@23@HU?$less@H@std@@V?$function@$$A6AXAAVFileDropEvent@app@cinder@@@Z@boost@@V?$function@$$A6AXABVconnection@signals2@boost@@AAVFileDropEvent@app@cinder@@@Z@8@Vmutex@signals2@8@@detail@signals2@1@@Z 00436980 f i cinder:Window.obj
 0001:000359e0       ??$reset@Vinvocation_state@?$signal1_impl@XAAVKeyEvent@app@cinder@@U?$EventCombiner@VKeyEvent@app@cinder@@@23@HU?$less@H@std@@V?$function@$$A6AXAAVKeyEvent@app@cinder@@@Z@boost@@V?$function@$$A6AXABVconnection@signals2@boost@@AAVKeyEvent@app@cinder@@@Z@8@Vmutex@signals2@8@@detail@signals2@boost@@@?$shared_ptr@Vinvocation_state@?$signal1_impl@XAAVKeyEvent@app@cinder@@U?$EventCombiner@VKeyEvent@app@cinder@@@23@HU?$less@H@std@@V?$function@$$A6AXAAVKeyEvent@app@cinder@@@Z@boost@@V?$function@$$A6AXABVconnection@signals2@boost@@AAVKeyEvent@app@cinder@@@Z@8@Vmutex@signals2@8@@detail@signals2@boost@@@boost@@QAEXPAVinvocation_state@?$signal1_impl@XAAVKeyEvent@app@cinder@@U?$EventCombiner@VKeyEvent@app@cinder@@@23@HU?$less@H@std@@V?$function@$$A6AXAAVKeyEvent@app@cinder@@@Z@boost@@V?$function@$$A6AXABVconnection@signals2@boost@@AAVKeyEvent@app@cinder@@@Z@8@Vmutex@signals2@8@@detail@signals2@1@@Z 004369e0 f i cinder:Window.obj
 0001:00035a40       ??$reset@Vinvocation_state@?$signal1_impl@XAAVMouseEvent@app@cinder@@U?$EventCombiner@VMouseEvent@app@cinder@@@23@HU?$less@H@std@@V?$function@$$A6AXAAVMouseEvent@app@cinder@@@Z@boost@@V?$function@$$A6AXABVconnection@signals2@boost@@AAVMouseEvent@app@cinder@@@Z@8@Vmutex@signals2@8@@detail@signals2@boost@@@?$shared_ptr@Vinvocation_state@?$signal1_impl@XAAVMouseEvent@app@cinder@@U?$EventCombiner@VMouseEvent@app@cinder@@@23@HU?$less@H@std@@V?$function@$$A6AXAAVMouseEvent@app@cinder@@@Z@boost@@V?$function@$$A6AXABVconnection@signals2@boost@@AAVMouseEvent@app@cinder@@@Z@8@Vmutex@signals2@8@@detail@signals2@boost@@@boost@@QAEXPAVinvocation_state@?$signal1_impl@XAAVMouseEvent@app@cinder@@U?$EventCombiner@VMouseEvent@app@cinder@@@23@HU?$less@H@std@@V?$function@$$A6AXAAVMouseEvent@app@cinder@@@Z@boost@@V?$function@$$A6AXABVconnection@signals2@boost@@AAVMouseEvent@app@cinder@@@Z@8@Vmutex@signals2@8@@detail@signals2@1@@Z 00436a40 f i cinder:Window.obj
 0001:00035aa0       ??$reset@Vinvocation_state@?$signal1_impl@XAAVTouchEvent@app@cinder@@U?$EventCombiner@VTouchEvent@app@cinder@@@23@HU?$less@H@std@@V?$function@$$A6AXAAVTouchEvent@app@cinder@@@Z@boost@@V?$function@$$A6AXABVconnection@signals2@boost@@AAVTouchEvent@app@cinder@@@Z@8@Vmutex@signals2@8@@detail@signals2@boost@@@?$shared_ptr@Vinvocation_state@?$signal1_impl@XAAVTouchEvent@app@cinder@@U?$EventCombiner@VTouchEvent@app@cinder@@@23@HU?$less@H@std@@V?$function@$$A6AXAAVTouchEvent@app@cinder@@@Z@boost@@V?$function@$$A6AXABVconnection@signals2@boost@@AAVTouchEvent@app@cinder@@@Z@8@Vmutex@signals2@8@@detail@signals2@boost@@@boost@@QAEXPAVinvocation_state@?$signal1_impl@XAAVTouchEvent@app@cinder@@U?$EventCombiner@VTouchEvent@app@cinder@@@23@HU?$less@H@std@@V?$function@$$A6AXAAVTouchEvent@app@cinder@@@Z@boost@@V?$function@$$A6AXABVconnection@signals2@boost@@AAVTouchEvent@app@cinder@@@Z@8@Vmutex@signals2@8@@detail@signals2@1@@Z 00436aa0 f i cinder:Window.obj
 0001:00035b00       ??$safe_execute@V?$obj_scope_guard_impl2@V?$auto_buffer@V?$variant@V?$shared_ptr@X@boost@@Vforeign_void_shared_ptr@detail@signals2@2@Uvoid_@042@U6042@U6042@U6042@U6042@U6042@U6042@U6042@U6042@U6042@U6042@U6042@U6042@U6042@U6042@U6042@U6042@U6042@@boost@@U?$store_n_objects@$09@detail@signals2@2@Udefault_grow_policy@452@V?$allocator@V?$variant@V?$shared_ptr@X@boost@@Vforeign_void_shared_ptr@detail@signals2@2@Uvoid_@042@U6042@U6042@U6042@U6042@U6042@U6042@U6042@U6042@U6042@U6042@U6042@U6042@U6042@U6042@U6042@U6042@U6042@@boost@@@std@@@detail@signals2@boost@@P81234@AEXPAV?$variant@V?$shared_ptr@X@boost@@Vforeign_void_shared_ptr@detail@signals2@2@Uvoid_@042@U6042@U6042@U6042@U6042@U6042@U6042@U6042@U6042@U6042@U6042@U6042@U6042@U6042@U6042@U6042@U6042@U6042@@4@I@ZPAV54@I@detail@multi_index@boost@@@scope_guard_impl_base@detail@multi_index@boost@@KAXAAV?$obj_scope_guard_impl2@V?$auto_buffer@V?$variant@V?$shared_ptr@X@boost@@Vforeign_void_shared_ptr@detail@signals2@2@Uvoid_@042@U6042@U6042@U6042@U6042@U6042@U6042@U6042@U6042@U6042@U6042@U6042@U6042@U6042@U6042@U6042@U6042@U6042@@boost@@U?$store_n_objects@$09@detail@signals2@2@Udefault_grow_policy@452@V?$allocator@V?$variant@V?$shared_ptr@X@boost@@Vforeign_void_shared_ptr@detail@signals2@2@Uvoid_@042@U6042@U6042@U6042@U6042@U6042@U6042@U6042@U6042@U6042@U6042@U6042@U6042@U6042@U6042@U6042@U6042@U6042@@boost@@@std@@@detail@signals2@boost@@P81234@AEXPAV?$variant@V?$shared_ptr@X@boost@@Vforeign_void_shared_ptr@detail@signals2@2@Uvoid_@042@U6042@U6042@U6042@U6042@U6042@U6042@U6042@U6042@U6042@U6042@U6042@U6042@U6042@U6042@U6042@U6042@U6042@@4@I@ZPAV54@I@123@@Z 00436b00 f i cinder:Window.obj
 0001:00035b60       ??$throw_exception@Vbad_function_call@boost@@@boost@@YAXABVbad_function_call@0@@Z 00436b60 f i cinder:Window.obj
 0001:00035bc0       ??$visitation_impl@U?$int_@$0A@@mpl@boost@@U?$visitation_impl_step@U?$l_iter@U?$l_item@U?$long_@$01@mpl@boost@@V?$shared_ptr@X@3@U?$l_item@U?$long_@$00@mpl@boost@@Vforeign_void_shared_ptr@detail@signals2@3@Ul_end@23@@23@@mpl@boost@@@mpl@boost@@U?$l_iter@Ul_end@mpl@boost@@@23@@variant@detail@3@Udestroyer@563@PAXUhas_fallback_type_@?$variant@V?$shared_ptr@X@boost@@Vforeign_void_shared_ptr@detail@signals2@2@Uvoid_@042@U6042@U6042@U6042@U6042@U6042@U6042@U6042@U6042@U6042@U6042@U6042@U6042@U6042@U6042@U6042@U6042@U6042@@3@@variant@detail@boost@@YAXHHAAUdestroyer@012@PAXU?$bool_@$0A@@mpl@2@Uhas_fallback_type_@?$variant@V?$shared_ptr@X@boost@@Vforeign_void_shared_ptr@detail@signals2@2@Uvoid_@042@U6042@U6042@U6042@U6042@U6042@U6042@U6042@U6042@U6042@U6042@U6042@U6042@U6042@U6042@U6042@U6042@U6042@@2@PAU?$int_@$0A@@52@PAU?$visitation_impl_step@U?$l_iter@U?$l_item@U?$long_@$01@mpl@boost@@V?$shared_ptr@X@3@U?$l_item@U?$long_@$00@mpl@boost@@Vforeign_void_shared_ptr@detail@signals2@3@Ul_end@23@@23@@mpl@boost@@@mpl@boost@@U?$l_iter@Ul_end@mpl@boost@@@23@@012@@Z 00436bc0 f i cinder:Window.obj
 0001:00035c90       ??$visitation_impl@U?$int_@$0A@@mpl@boost@@U?$visitation_impl_step@U?$l_iter@U?$l_item@U?$long_@$01@mpl@boost@@V?$shared_ptr@X@3@U?$l_item@U?$long_@$00@mpl@boost@@Vforeign_void_shared_ptr@detail@signals2@3@Ul_end@23@@23@@mpl@boost@@@mpl@boost@@U?$l_iter@Ul_end@mpl@boost@@@23@@variant@detail@3@Vcopy_into@563@PBXUhas_fallback_type_@?$variant@V?$shared_ptr@X@boost@@Vforeign_void_shared_ptr@detail@signals2@2@Uvoid_@042@U6042@U6042@U6042@U6042@U6042@U6042@U6042@U6042@U6042@U6042@U6042@U6042@U6042@U6042@U6042@U6042@U6042@@3@@variant@detail@boost@@YAXHHAAVcopy_into@012@PBXU?$bool_@$0A@@mpl@2@Uhas_fallback_type_@?$variant@V?$shared_ptr@X@boost@@Vforeign_void_shared_ptr@detail@signals2@2@Uvoid_@042@U6042@U6042@U6042@U6042@U6042@U6042@U6042@U6042@U6042@U6042@U6042@U6042@U6042@U6042@U6042@U6042@U6042@@2@PAU?$int_@$0A@@52@PAU?$visitation_impl_step@U?$l_iter@U?$l_item@U?$long_@$01@mpl@boost@@V?$shared_ptr@X@3@U?$l_item@U?$long_@$00@mpl@boost@@Vforeign_void_shared_ptr@detail@signals2@3@Ul_end@23@@23@@mpl@boost@@@mpl@boost@@U?$l_iter@Ul_end@mpl@boost@@@23@@012@@Z 00436c90 f i cinder:Window.obj
 0001:00035d60       ??$visitation_impl@U?$int_@$0A@@mpl@boost@@U?$visitation_impl_step@U?$l_iter@U?$l_item@U?$long_@$01@mpl@boost@@V?$weak_ptr@X@3@U?$l_item@U?$long_@$00@mpl@boost@@Vforeign_void_weak_ptr@detail@signals2@3@Ul_end@23@@23@@mpl@boost@@@mpl@boost@@U?$l_iter@Ul_end@mpl@boost@@@23@@variant@detail@3@V?$invoke_visitor@$$CBVlock_weak_ptr_visitor@detail@signals2@boost@@@563@PBXUhas_fallback_type_@?$variant@V?$weak_ptr@X@boost@@Vforeign_void_weak_ptr@detail@signals2@2@Uvoid_@042@U6042@U6042@U6042@U6042@U6042@U6042@U6042@U6042@U6042@U6042@U6042@U6042@U6042@U6042@U6042@U6042@U6042@@3@@variant@detail@boost@@YA?AV?$variant@V?$shared_ptr@X@boost@@Vforeign_void_shared_ptr@detail@signals2@2@Uvoid_@042@U6042@U6042@U6042@U6042@U6042@U6042@U6042@U6042@U6042@U6042@U6042@U6042@U6042@U6042@U6042@U6042@U6042@@2@HHAAV?$invoke_visitor@$$CBVlock_weak_ptr_visitor@detail@signals2@boost@@@012@PBXU?$bool_@$0A@@mpl@2@Uhas_fallback_type_@?$variant@V?$weak_ptr@X@boost@@Vforeign_void_weak_ptr@detail@signals2@2@Uvoid_@042@U6042@U6042@U6042@U6042@U6042@U6042@U6042@U6042@U6042@U6042@U6042@U6042@U6042@U6042@U6042@U6042@U6042@@2@PAU?$int_@$0A@@62@PAU?$visitation_impl_step@U?$l_iter@U?$l_item@U?$long_@$01@mpl@boost@@V?$weak_ptr@X@3@U?$l_item@U?$long_@$00@mpl@boost@@Vforeign_void_weak_ptr@detail@signals2@3@Ul_end@23@@23@@mpl@boost@@@mpl@boost@@U?$l_iter@Ul_end@mpl@boost@@@23@@012@@Z 00436d60 f i cinder:Window.obj
 0001:00035e50       ??$visitation_impl@U?$int_@$0BE@@mpl@boost@@U?$visitation_impl_step@U?$l_iter@Ul_end@mpl@boost@@@mpl@boost@@U123@@variant@detail@3@V?$invoke_visitor@$$CBVlock_weak_ptr_visitor@detail@signals2@boost@@@563@PBXUhas_fallback_type_@?$variant@V?$weak_ptr@X@boost@@Vforeign_void_weak_ptr@detail@signals2@2@Uvoid_@042@U6042@U6042@U6042@U6042@U6042@U6042@U6042@U6042@U6042@U6042@U6042@U6042@U6042@U6042@U6042@U6042@U6042@@3@@variant@detail@boost@@YA?AV?$variant@V?$shared_ptr@X@boost@@Vforeign_void_shared_ptr@detail@signals2@2@Uvoid_@042@U6042@U6042@U6042@U6042@U6042@U6042@U6042@U6042@U6042@U6042@U6042@U6042@U6042@U6042@U6042@U6042@U6042@@2@HHAAV?$invoke_visitor@$$CBVlock_weak_ptr_visitor@detail@signals2@boost@@@012@PBXU?$bool_@$00@mpl@2@Uhas_fallback_type_@?$variant@V?$weak_ptr@X@boost@@Vforeign_void_weak_ptr@detail@signals2@2@Uvoid_@042@U6042@U6042@U6042@U6042@U6042@U6042@U6042@U6042@U6042@U6042@U6042@U6042@U6042@U6042@U6042@U6042@U6042@@2@PAU?$int_@$0BE@@62@PAU?$visitation_impl_step@U?$l_iter@Ul_end@mpl@boost@@@mpl@boost@@U123@@012@@Z 00436e50 f i cinder:Window.obj
 0001:00035e50       ??$visitation_impl_invoke@V?$invoke_visitor@$$CBVlock_weak_ptr_visitor@detail@signals2@boost@@@variant@detail@boost@@PBXUhas_fallback_type_@?$variant@V?$weak_ptr@X@boost@@Vforeign_void_weak_ptr@detail@signals2@2@Uvoid_@042@U6042@U6042@U6042@U6042@U6042@U6042@U6042@U6042@U6042@U6042@U6042@U6042@U6042@U6042@U6042@U6042@U6042@@4@@variant@detail@boost@@YA?AV?$variant@V?$shared_ptr@X@boost@@Vforeign_void_shared_ptr@detail@signals2@2@Uvoid_@042@U6042@U6042@U6042@U6042@U6042@U6042@U6042@U6042@U6042@U6042@U6042@U6042@U6042@U6042@U6042@U6042@U6042@@2@HAAV?$invoke_visitor@$$CBVlock_weak_ptr_visitor@detail@signals2@boost@@@012@PBXPAUapply_visitor_unrolled@012@Uhas_fallback_type_@?$variant@V?$weak_ptr@X@boost@@Vforeign_void_weak_ptr@detail@signals2@2@Uvoid_@042@U6042@U6042@U6042@U6042@U6042@U6042@U6042@U6042@U6042@U6042@U6042@U6042@U6042@U6042@U6042@U6042@U6042@@2@J@Z 00436e50 f i cinder:Window.obj
 0001:00035e60       ??$visitation_impl_invoke@Udestroyer@variant@detail@boost@@PAXVforeign_void_shared_ptr@3signals2@4@Uhas_fallback_type_@?$variant@V?$shared_ptr@X@boost@@Vforeign_void_shared_ptr@detail@signals2@2@Uvoid_@042@U6042@U6042@U6042@U6042@U6042@U6042@U6042@U6042@U6042@U6042@U6042@U6042@U6042@U6042@U6042@U6042@U6042@@4@@variant@detail@boost@@YAXHAAUdestroyer@012@PAXPAVforeign_void_shared_ptr@1signals2@2@Uhas_fallback_type_@?$variant@V?$shared_ptr@X@boost@@Vforeign_void_shared_ptr@detail@signals2@2@Uvoid_@042@U6042@U6042@U6042@U6042@U6042@U6042@U6042@U6042@U6042@U6042@U6042@U6042@U6042@U6042@U6042@U6042@U6042@@2@H@Z 00436e60 f i cinder:Window.obj
 0001:00035ea0       ??$visitation_impl_invoke@V?$invoke_visitor@$$CBVlock_weak_ptr_visitor@detail@signals2@boost@@@variant@detail@boost@@PBXV?$weak_ptr@X@4@Uhas_fallback_type_@?$variant@V?$weak_ptr@X@boost@@Vforeign_void_weak_ptr@detail@signals2@2@Uvoid_@042@U6042@U6042@U6042@U6042@U6042@U6042@U6042@U6042@U6042@U6042@U6042@U6042@U6042@U6042@U6042@U6042@U6042@@4@@variant@detail@boost@@YA?AV?$variant@V?$shared_ptr@X@boost@@Vforeign_void_shared_ptr@detail@signals2@2@Uvoid_@042@U6042@U6042@U6042@U6042@U6042@U6042@U6042@U6042@U6042@U6042@U6042@U6042@U6042@U6042@U6042@U6042@U6042@@2@HAAV?$invoke_visitor@$$CBVlock_weak_ptr_visitor@detail@signals2@boost@@@012@PBXPAV?$weak_ptr@X@2@Uhas_fallback_type_@?$variant@V?$weak_ptr@X@boost@@Vforeign_void_weak_ptr@detail@signals2@2@Uvoid_@042@U6042@U6042@U6042@U6042@U6042@U6042@U6042@U6042@U6042@U6042@U6042@U6042@U6042@U6042@U6042@U6042@U6042@@2@H@Z 00436ea0 f i cinder:Window.obj
 0001:00035ee0       ??$visitation_impl_invoke@V?$invoke_visitor@$$CBVlock_weak_ptr_visitor@detail@signals2@boost@@@variant@detail@boost@@PBXVforeign_void_weak_ptr@3signals2@4@Uhas_fallback_type_@?$variant@V?$weak_ptr@X@boost@@Vforeign_void_weak_ptr@detail@signals2@2@Uvoid_@042@U6042@U6042@U6042@U6042@U6042@U6042@U6042@U6042@U6042@U6042@U6042@U6042@U6042@U6042@U6042@U6042@U6042@@4@@variant@detail@boost@@YA?AV?$variant@V?$shared_ptr@X@boost@@Vforeign_void_shared_ptr@detail@signals2@2@Uvoid_@042@U6042@U6042@U6042@U6042@U6042@U6042@U6042@U6042@U6042@U6042@U6042@U6042@U6042@U6042@U6042@U6042@U6042@@2@HAAV?$invoke_visitor@$$CBVlock_weak_ptr_visitor@detail@signals2@boost@@@012@PBXPAVforeign_void_weak_ptr@1signals2@2@Uhas_fallback_type_@?$variant@V?$weak_ptr@X@boost@@Vforeign_void_weak_ptr@detail@signals2@2@Uvoid_@042@U6042@U6042@U6042@U6042@U6042@U6042@U6042@U6042@U6042@U6042@U6042@U6042@U6042@U6042@U6042@U6042@U6042@@2@H@Z 00436ee0 f i cinder:Window.obj
 0001:00035f20       ??$visitation_impl_invoke@Vconvert_copy_into@?$variant@V?$shared_ptr@X@boost@@Vforeign_void_shared_ptr@detail@signals2@2@Uvoid_@042@U6042@U6042@U6042@U6042@U6042@U6042@U6042@U6042@U6042@U6042@U6042@U6042@U6042@U6042@U6042@U6042@U6042@@boost@@PAXV?$shared_ptr@X@3@Uhas_fallback_type_@23@@variant@detail@boost@@YAHHAAVconvert_copy_into@?$variant@V?$shared_ptr@X@boost@@Vforeign_void_shared_ptr@detail@signals2@2@Uvoid_@042@U6042@U6042@U6042@U6042@U6042@U6042@U6042@U6042@U6042@U6042@U6042@U6042@U6042@U6042@U6042@U6042@U6042@@2@PAXPAV?$shared_ptr@X@2@Uhas_fallback_type_@42@H@Z 00436f20 f i cinder:Window.obj
 0001:00035f70       ??$visitation_impl_invoke@Vconvert_copy_into@?$variant@V?$shared_ptr@X@boost@@Vforeign_void_shared_ptr@detail@signals2@2@Uvoid_@042@U6042@U6042@U6042@U6042@U6042@U6042@U6042@U6042@U6042@U6042@U6042@U6042@U6042@U6042@U6042@U6042@U6042@@boost@@PAXVforeign_void_shared_ptr@detail@signals2@3@Uhas_fallback_type_@23@@variant@detail@boost@@YAHHAAVconvert_copy_into@?$variant@V?$shared_ptr@X@boost@@Vforeign_void_shared_ptr@detail@signals2@2@Uvoid_@042@U6042@U6042@U6042@U6042@U6042@U6042@U6042@U6042@U6042@U6042@U6042@U6042@U6042@U6042@U6042@U6042@U6042@@2@PAXPAVforeign_void_shared_ptr@1signals2@2@Uhas_fallback_type_@42@H@Z 00436f70 f i cinder:Window.obj
 0001:00035ff0       ??$visitation_impl_invoke@Udestroyer@variant@detail@boost@@PAXUhas_fallback_type_@?$variant@V?$shared_ptr@X@boost@@Vforeign_void_shared_ptr@detail@signals2@2@Uvoid_@042@U6042@U6042@U6042@U6042@U6042@U6042@U6042@U6042@U6042@U6042@U6042@U6042@U6042@U6042@U6042@U6042@U6042@@4@@variant@detail@boost@@YAXHAAUdestroyer@012@PAXPAUapply_visitor_unrolled@012@Uhas_fallback_type_@?$variant@V?$shared_ptr@X@boost@@Vforeign_void_shared_ptr@detail@signals2@2@Uvoid_@042@U6042@U6042@U6042@U6042@U6042@U6042@U6042@U6042@U6042@U6042@U6042@U6042@U6042@U6042@U6042@U6042@U6042@@2@J@Z 00436ff0 f i cinder:Window.obj
 0001:00035ff0       ??$visitation_impl@U?$int_@$0BE@@mpl@boost@@U?$visitation_impl_step@U?$l_iter@Ul_end@mpl@boost@@@mpl@boost@@U123@@variant@detail@3@Vcopy_into@563@PBXUhas_fallback_type_@?$variant@V?$shared_ptr@X@boost@@Vforeign_void_shared_ptr@detail@signals2@2@Uvoid_@042@U6042@U6042@U6042@U6042@U6042@U6042@U6042@U6042@U6042@U6042@U6042@U6042@U6042@U6042@U6042@U6042@U6042@@3@@variant@detail@boost@@YAXHHAAVcopy_into@012@PBXU?$bool_@$00@mpl@2@Uhas_fallback_type_@?$variant@V?$shared_ptr@X@boost@@Vforeign_void_shared_ptr@detail@signals2@2@Uvoid_@042@U6042@U6042@U6042@U6042@U6042@U6042@U6042@U6042@U6042@U6042@U6042@U6042@U6042@U6042@U6042@U6042@U6042@@2@PAU?$int_@$0BE@@52@PAU?$visitation_impl_step@U?$l_iter@Ul_end@mpl@boost@@@mpl@boost@@U123@@012@@Z 00436ff0 f i cinder:Window.obj
 0001:00035ff0       ??$visitation_impl@U?$int_@$0BE@@mpl@boost@@U?$visitation_impl_step@U?$l_iter@Ul_end@mpl@boost@@@mpl@boost@@U123@@variant@detail@3@Udestroyer@563@PAXUhas_fallback_type_@?$variant@V?$shared_ptr@X@boost@@Vforeign_void_shared_ptr@detail@signals2@2@Uvoid_@042@U6042@U6042@U6042@U6042@U6042@U6042@U6042@U6042@U6042@U6042@U6042@U6042@U6042@U6042@U6042@U6042@U6042@@3@@variant@detail@boost@@YAXHHAAUdestroyer@012@PAXU?$bool_@$00@mpl@2@Uhas_fallback_type_@?$variant@V?$shared_ptr@X@boost@@Vforeign_void_shared_ptr@detail@signals2@2@Uvoid_@042@U6042@U6042@U6042@U6042@U6042@U6042@U6042@U6042@U6042@U6042@U6042@U6042@U6042@U6042@U6042@U6042@U6042@@2@PAU?$int_@$0BE@@52@PAU?$visitation_impl_step@U?$l_iter@Ul_end@mpl@boost@@@mpl@boost@@U123@@012@@Z 00436ff0 f i cinder:Window.obj
 0001:00035ff0       ??$visitation_impl_invoke@Vcopy_into@variant@detail@boost@@PBXUhas_fallback_type_@?$variant@V?$shared_ptr@X@boost@@Vforeign_void_shared_ptr@detail@signals2@2@Uvoid_@042@U6042@U6042@U6042@U6042@U6042@U6042@U6042@U6042@U6042@U6042@U6042@U6042@U6042@U6042@U6042@U6042@U6042@@4@@variant@detail@boost@@YAXHAAVcopy_into@012@PBXPAUapply_visitor_unrolled@012@Uhas_fallback_type_@?$variant@V?$shared_ptr@X@boost@@Vforeign_void_shared_ptr@detail@signals2@2@Uvoid_@042@U6042@U6042@U6042@U6042@U6042@U6042@U6042@U6042@U6042@U6042@U6042@U6042@U6042@U6042@U6042@U6042@U6042@@2@J@Z 00436ff0 f i cinder:Window.obj
 0001:00036000       ??$visitation_impl_invoke@Vcopy_into@variant@detail@boost@@PBXV?$shared_ptr@X@4@Uhas_fallback_type_@?$variant@V?$shared_ptr@X@boost@@Vforeign_void_shared_ptr@detail@signals2@2@Uvoid_@042@U6042@U6042@U6042@U6042@U6042@U6042@U6042@U6042@U6042@U6042@U6042@U6042@U6042@U6042@U6042@U6042@U6042@@4@@variant@detail@boost@@YAXHAAVcopy_into@012@PBXPAV?$shared_ptr@X@2@Uhas_fallback_type_@?$variant@V?$shared_ptr@X@boost@@Vforeign_void_shared_ptr@detail@signals2@2@Uvoid_@042@U6042@U6042@U6042@U6042@U6042@U6042@U6042@U6042@U6042@U6042@U6042@U6042@U6042@U6042@U6042@U6042@U6042@@2@H@Z 00437000 f i cinder:Window.obj
 0001:00036040       ??$visitation_impl_invoke@Vcopy_into@variant@detail@boost@@PBXVforeign_void_shared_ptr@3signals2@4@Uhas_fallback_type_@?$variant@V?$shared_ptr@X@boost@@Vforeign_void_shared_ptr@detail@signals2@2@Uvoid_@042@U6042@U6042@U6042@U6042@U6042@U6042@U6042@U6042@U6042@U6042@U6042@U6042@U6042@U6042@U6042@U6042@U6042@@4@@variant@detail@boost@@YAXHAAVcopy_into@012@PBXPAVforeign_void_shared_ptr@1signals2@2@Uhas_fallback_type_@?$variant@V?$shared_ptr@X@boost@@Vforeign_void_shared_ptr@detail@signals2@2@Uvoid_@042@U6042@U6042@U6042@U6042@U6042@U6042@U6042@U6042@U6042@U6042@U6042@U6042@U6042@U6042@U6042@U6042@U6042@@2@H@Z 00437040 f i cinder:Window.obj
 0001:000360b0       ??$visitation_impl_invoke_impl@Udestroyer@variant@detail@boost@@PAXV?$shared_ptr@X@4@@variant@detail@boost@@YAXHAAUdestroyer@012@PAXPAV?$shared_ptr@X@2@U?$bool_@$0A@@mpl@2@@Z 004370b0 f i cinder:Window.obj
 0001:00036130       ??$visitation_impl_invoke_impl@V?$invoke_visitor@$$CBVlock_weak_ptr_visitor@detail@signals2@boost@@@variant@detail@boost@@PBXV?$weak_ptr@X@4@@variant@detail@boost@@YA?AV?$variant@V?$shared_ptr@X@boost@@Vforeign_void_shared_ptr@detail@signals2@2@Uvoid_@042@U6042@U6042@U6042@U6042@U6042@U6042@U6042@U6042@U6042@U6042@U6042@U6042@U6042@U6042@U6042@U6042@U6042@@2@HAAV?$invoke_visitor@$$CBVlock_weak_ptr_visitor@detail@signals2@boost@@@012@PBXPAV?$weak_ptr@X@2@U?$bool_@$0A@@mpl@2@@Z 00437130 f i cinder:Window.obj
 0001:00036170       ??$visitation_impl_invoke_impl@V?$invoke_visitor@$$CBVlock_weak_ptr_visitor@detail@signals2@boost@@@variant@detail@boost@@PBXVforeign_void_weak_ptr@3signals2@4@@variant@detail@boost@@YA?AV?$variant@V?$shared_ptr@X@boost@@Vforeign_void_shared_ptr@detail@signals2@2@Uvoid_@042@U6042@U6042@U6042@U6042@U6042@U6042@U6042@U6042@U6042@U6042@U6042@U6042@U6042@U6042@U6042@U6042@U6042@@2@HAAV?$invoke_visitor@$$CBVlock_weak_ptr_visitor@detail@signals2@boost@@@012@PBXPAVforeign_void_weak_ptr@1signals2@2@U?$bool_@$0A@@mpl@2@@Z 00437170 f i cinder:Window.obj
 0001:000361b0       ??0?$_Tree@V?$_Tmap_traits@U?$pair@W4slot_meta_group@detail@signals2@boost@@V?$optional@H@4@@std@@V?$_List_iterator@V?$_List_val@U?$_List_simple_types@V?$shared_ptr@V?$connection_body@U?$pair@W4slot_meta_group@detail@signals2@boost@@V?$optional@H@4@@std@@V?$slot0@_NV?$function@$$A6A_NXZ@boost@@@signals2@boost@@Vmutex@45@@detail@signals2@boost@@@boost@@@std@@@std@@@2@V?$group_key_less@HU?$less@H@std@@@detail@signals2@boost@@V?$allocator@U?$pair@$$CBU?$pair@W4slot_meta_group@detail@signals2@boost@@V?$optional@H@4@@std@@V?$_List_iterator@V?$_List_val@U?$_List_simple_types@V?$shared_ptr@V?$connection_body@U?$pair@W4slot_meta_group@detail@signals2@boost@@V?$optional@H@4@@std@@V?$slot0@_NV?$function@$$A6A_NXZ@boost@@@signals2@boost@@Vmutex@45@@detail@signals2@boost@@@boost@@@std@@@std@@@2@@std@@@2@$0A@@std@@@std@@QAE@ABV01@ABV?$allocator@U?$pair@$$CBU?$pair@W4slot_meta_group@detail@signals2@boost@@V?$optional@H@4@@std@@V?$_List_iterator@V?$_List_val@U?$_List_simple_types@V?$shared_ptr@V?$connection_body@U?$pair@W4slot_meta_group@detail@signals2@boost@@V?$optional@H@4@@std@@V?$slot0@_NV?$function@$$A6A_NXZ@boost@@@signals2@boost@@Vmutex@45@@detail@signals2@boost@@@boost@@@std@@@std@@@2@@std@@@1@@Z 004371b0 f i cinder:AppBasic.obj
 0001:000361b0       ??0?$_Tree@V?$_Tmap_traits@U?$pair@W4slot_meta_group@detail@signals2@boost@@V?$optional@H@4@@std@@V?$_List_iterator@V?$_List_val@U?$_List_simple_types@V?$shared_ptr@V?$connection_body@U?$pair@W4slot_meta_group@detail@signals2@boost@@V?$optional@H@4@@std@@V?$slot1@XAAVFileDropEvent@app@cinder@@V?$function@$$A6AXAAVFileDropEvent@app@cinder@@@Z@boost@@@signals2@boost@@Vmutex@45@@detail@signals2@boost@@@boost@@@std@@@std@@@2@V?$group_key_less@HU?$less@H@std@@@detail@signals2@boost@@V?$allocator@U?$pair@$$CBU?$pair@W4slot_meta_group@detail@signals2@boost@@V?$optional@H@4@@std@@V?$_List_iterator@V?$_List_val@U?$_List_simple_types@V?$shared_ptr@V?$connection_body@U?$pair@W4slot_meta_group@detail@signals2@boost@@V?$optional@H@4@@std@@V?$slot1@XAAVFileDropEvent@app@cinder@@V?$function@$$A6AXAAVFileDropEvent@app@cinder@@@Z@boost@@@signals2@boost@@Vmutex@45@@detail@signals2@boost@@@boost@@@std@@@std@@@2@@std@@@2@$0A@@std@@@std@@QAE@ABV01@ABV?$allocator@U?$pair@$$CBU?$pair@W4slot_meta_group@detail@signals2@boost@@V?$optional@H@4@@std@@V?$_List_iterator@V?$_List_val@U?$_List_simple_types@V?$shared_ptr@V?$connection_body@U?$pair@W4slot_meta_group@detail@signals2@boost@@V?$optional@H@4@@std@@V?$slot1@XAAVFileDropEvent@app@cinder@@V?$function@$$A6AXAAVFileDropEvent@app@cinder@@@Z@boost@@@signals2@boost@@Vmutex@45@@detail@signals2@boost@@@boost@@@std@@@std@@@2@@std@@@1@@Z 004371b0 f i cinder:Window.obj
 0001:000361b0       ??0?$_Tree@V?$_Tmap_traits@U?$pair@W4slot_meta_group@detail@signals2@boost@@V?$optional@H@4@@std@@V?$_List_iterator@V?$_List_val@U?$_List_simple_types@V?$shared_ptr@V?$connection_body@U?$pair@W4slot_meta_group@detail@signals2@boost@@V?$optional@H@4@@std@@V?$slot1@XAAVMouseEvent@app@cinder@@V?$function@$$A6AXAAVMouseEvent@app@cinder@@@Z@boost@@@signals2@boost@@Vmutex@45@@detail@signals2@boost@@@boost@@@std@@@std@@@2@V?$group_key_less@HU?$less@H@std@@@detail@signals2@boost@@V?$allocator@U?$pair@$$CBU?$pair@W4slot_meta_group@detail@signals2@boost@@V?$optional@H@4@@std@@V?$_List_iterator@V?$_List_val@U?$_List_simple_types@V?$shared_ptr@V?$connection_body@U?$pair@W4slot_meta_group@detail@signals2@boost@@V?$optional@H@4@@std@@V?$slot1@XAAVMouseEvent@app@cinder@@V?$function@$$A6AXAAVMouseEvent@app@cinder@@@Z@boost@@@signals2@boost@@Vmutex@45@@detail@signals2@boost@@@boost@@@std@@@std@@@2@@std@@@2@$0A@@std@@@std@@QAE@ABV01@ABV?$allocator@U?$pair@$$CBU?$pair@W4slot_meta_group@detail@signals2@boost@@V?$optional@H@4@@std@@V?$_List_iterator@V?$_List_val@U?$_List_simple_types@V?$shared_ptr@V?$connection_body@U?$pair@W4slot_meta_group@detail@signals2@boost@@V?$optional@H@4@@std@@V?$slot1@XAAVMouseEvent@app@cinder@@V?$function@$$A6AXAAVMouseEvent@app@cinder@@@Z@boost@@@signals2@boost@@Vmutex@45@@detail@signals2@boost@@@boost@@@std@@@std@@@2@@std@@@1@@Z 004371b0 f i cinder:Window.obj
 0001:000361b0       ??0?$_Tree@V?$_Tmap_traits@U?$pair@W4slot_meta_group@detail@signals2@boost@@V?$optional@H@4@@std@@V?$_List_iterator@V?$_List_val@U?$_List_simple_types@V?$shared_ptr@V?$connection_body@U?$pair@W4slot_meta_group@detail@signals2@boost@@V?$optional@H@4@@std@@V?$slot1@XAAVKeyEvent@app@cinder@@V?$function@$$A6AXAAVKeyEvent@app@cinder@@@Z@boost@@@signals2@boost@@Vmutex@45@@detail@signals2@boost@@@boost@@@std@@@std@@@2@V?$group_key_less@HU?$less@H@std@@@detail@signals2@boost@@V?$allocator@U?$pair@$$CBU?$pair@W4slot_meta_group@detail@signals2@boost@@V?$optional@H@4@@std@@V?$_List_iterator@V?$_List_val@U?$_List_simple_types@V?$shared_ptr@V?$connection_body@U?$pair@W4slot_meta_group@detail@signals2@boost@@V?$optional@H@4@@std@@V?$slot1@XAAVKeyEvent@app@cinder@@V?$function@$$A6AXAAVKeyEvent@app@cinder@@@Z@boost@@@signals2@boost@@Vmutex@45@@detail@signals2@boost@@@boost@@@std@@@std@@@2@@std@@@2@$0A@@std@@@std@@QAE@ABV01@ABV?$allocator@U?$pair@$$CBU?$pair@W4slot_meta_group@detail@signals2@boost@@V?$optional@H@4@@std@@V?$_List_iterator@V?$_List_val@U?$_List_simple_types@V?$shared_ptr@V?$connection_body@U?$pair@W4slot_meta_group@detail@signals2@boost@@V?$optional@H@4@@std@@V?$slot1@XAAVKeyEvent@app@cinder@@V?$function@$$A6AXAAVKeyEvent@app@cinder@@@Z@boost@@@signals2@boost@@Vmutex@45@@detail@signals2@boost@@@boost@@@std@@@std@@@2@@std@@@1@@Z 004371b0 f i cinder:Window.obj
 0001:000361b0       ??0?$_Tree@V?$_Tmap_traits@U?$pair@W4slot_meta_group@detail@signals2@boost@@V?$optional@H@4@@std@@V?$_List_iterator@V?$_List_val@U?$_List_simple_types@V?$shared_ptr@V?$connection_body@U?$pair@W4slot_meta_group@detail@signals2@boost@@V?$optional@H@4@@std@@V?$slot0@XV?$function@$$A6AXXZ@boost@@@signals2@boost@@Vmutex@45@@detail@signals2@boost@@@boost@@@std@@@std@@@2@V?$group_key_less@HU?$less@H@std@@@detail@signals2@boost@@V?$allocator@U?$pair@$$CBU?$pair@W4slot_meta_group@detail@signals2@boost@@V?$optional@H@4@@std@@V?$_List_iterator@V?$_List_val@U?$_List_simple_types@V?$shared_ptr@V?$connection_body@U?$pair@W4slot_meta_group@detail@signals2@boost@@V?$optional@H@4@@std@@V?$slot0@XV?$function@$$A6AXXZ@boost@@@signals2@boost@@Vmutex@45@@detail@signals2@boost@@@boost@@@std@@@std@@@2@@std@@@2@$0A@@std@@@std@@QAE@ABV01@ABV?$allocator@U?$pair@$$CBU?$pair@W4slot_meta_group@detail@signals2@boost@@V?$optional@H@4@@std@@V?$_List_iterator@V?$_List_val@U?$_List_simple_types@V?$shared_ptr@V?$connection_body@U?$pair@W4slot_meta_group@detail@signals2@boost@@V?$optional@H@4@@std@@V?$slot0@XV?$function@$$A6AXXZ@boost@@@signals2@boost@@Vmutex@45@@detail@signals2@boost@@@boost@@@std@@@std@@@2@@std@@@1@@Z 004371b0 f i cinder:Window.obj
 0001:000361b0       ??0?$_Tree@V?$_Tmap_traits@U?$pair@W4slot_meta_group@detail@signals2@boost@@V?$optional@H@4@@std@@V?$_List_iterator@V?$_List_val@U?$_List_simple_types@V?$shared_ptr@V?$connection_body@U?$pair@W4slot_meta_group@detail@signals2@boost@@V?$optional@H@4@@std@@V?$slot1@XAAVTouchEvent@app@cinder@@V?$function@$$A6AXAAVTouchEvent@app@cinder@@@Z@boost@@@signals2@boost@@Vmutex@45@@detail@signals2@boost@@@boost@@@std@@@std@@@2@V?$group_key_less@HU?$less@H@std@@@detail@signals2@boost@@V?$allocator@U?$pair@$$CBU?$pair@W4slot_meta_group@detail@signals2@boost@@V?$optional@H@4@@std@@V?$_List_iterator@V?$_List_val@U?$_List_simple_types@V?$shared_ptr@V?$connection_body@U?$pair@W4slot_meta_group@detail@signals2@boost@@V?$optional@H@4@@std@@V?$slot1@XAAVTouchEvent@app@cinder@@V?$function@$$A6AXAAVTouchEvent@app@cinder@@@Z@boost@@@signals2@boost@@Vmutex@45@@detail@signals2@boost@@@boost@@@std@@@std@@@2@@std@@@2@$0A@@std@@@std@@QAE@ABV01@ABV?$allocator@U?$pair@$$CBU?$pair@W4slot_meta_group@detail@signals2@boost@@V?$optional@H@4@@std@@V?$_List_iterator@V?$_List_val@U?$_List_simple_types@V?$shared_ptr@V?$connection_body@U?$pair@W4slot_meta_group@detail@signals2@boost@@V?$optional@H@4@@std@@V?$slot1@XAAVTouchEvent@app@cinder@@V?$function@$$A6AXAAVTouchEvent@app@cinder@@@Z@boost@@@signals2@boost@@Vmutex@45@@detail@signals2@boost@@@boost@@@std@@@std@@@2@@std@@@1@@Z 004371b0 f i cinder:Window.obj
 0001:00036250       ??0?$clone_impl@U?$error_info_injector@Vbad_function_call@boost@@@exception_detail@boost@@@exception_detail@boost@@AAE@ABV012@Uclone_tag@012@@Z 00437250 f i cinder:Window.obj
 0001:00036310       ??0?$clone_impl@U?$error_info_injector@Vbad_function_call@boost@@@exception_detail@boost@@@exception_detail@boost@@QAE@ABV012@@Z 00437310 f i cinder:Window.obj
 0001:000363b0       ??0?$error_info_injector@Vbad_function_call@boost@@@exception_detail@boost@@QAE@ABU012@@Z 004373b0 f i cinder:Window.obj
 0001:00036450       ??0?$grouped_list@HU?$less@H@std@@V?$shared_ptr@V?$connection_body@U?$pair@W4slot_meta_group@detail@signals2@boost@@V?$optional@H@4@@std@@V?$slot1@XAAVTouchEvent@app@cinder@@V?$function@$$A6AXAAVTouchEvent@app@cinder@@@Z@boost@@@signals2@boost@@Vmutex@45@@detail@signals2@boost@@@boost@@@detail@signals2@boost@@QAE@ABV0123@@Z 00437450 f i cinder:Window.obj
 0001:00036450       ??0?$grouped_list@HU?$less@H@std@@V?$shared_ptr@V?$connection_body@U?$pair@W4slot_meta_group@detail@signals2@boost@@V?$optional@H@4@@std@@V?$slot0@_NV?$function@$$A6A_NXZ@boost@@@signals2@boost@@Vmutex@45@@detail@signals2@boost@@@boost@@@detail@signals2@boost@@QAE@ABV0123@@Z 00437450 f i cinder:AppBasic.obj
 0001:00036450       ??0?$grouped_list@HU?$less@H@std@@V?$shared_ptr@V?$connection_body@U?$pair@W4slot_meta_group@detail@signals2@boost@@V?$optional@H@4@@std@@V?$slot1@XAAVMouseEvent@app@cinder@@V?$function@$$A6AXAAVMouseEvent@app@cinder@@@Z@boost@@@signals2@boost@@Vmutex@45@@detail@signals2@boost@@@boost@@@detail@signals2@boost@@QAE@ABV0123@@Z 00437450 f i cinder:Window.obj
 0001:00036450       ??0?$grouped_list@HU?$less@H@std@@V?$shared_ptr@V?$connection_body@U?$pair@W4slot_meta_group@detail@signals2@boost@@V?$optional@H@4@@std@@V?$slot1@XAAVKeyEvent@app@cinder@@V?$function@$$A6AXAAVKeyEvent@app@cinder@@@Z@boost@@@signals2@boost@@Vmutex@45@@detail@signals2@boost@@@boost@@@detail@signals2@boost@@QAE@ABV0123@@Z 00437450 f i cinder:Window.obj
 0001:00036450       ??0?$grouped_list@HU?$less@H@std@@V?$shared_ptr@V?$connection_body@U?$pair@W4slot_meta_group@detail@signals2@boost@@V?$optional@H@4@@std@@V?$slot0@XV?$function@$$A6AXXZ@boost@@@signals2@boost@@Vmutex@45@@detail@signals2@boost@@@boost@@@detail@signals2@boost@@QAE@ABV0123@@Z 00437450 f i cinder:Window.obj
 0001:00036450       ??0?$grouped_list@HU?$less@H@std@@V?$shared_ptr@V?$connection_body@U?$pair@W4slot_meta_group@detail@signals2@boost@@V?$optional@H@4@@std@@V?$slot1@XAAVFileDropEvent@app@cinder@@V?$function@$$A6AXAAVFileDropEvent@app@cinder@@@Z@boost@@@signals2@boost@@Vmutex@45@@detail@signals2@boost@@@boost@@@detail@signals2@boost@@QAE@ABV0123@@Z 00437450 f i cinder:Window.obj
 0001:000365e0       ??0?$list@V?$shared_ptr@V?$connection_body@U?$pair@W4slot_meta_group@detail@signals2@boost@@V?$optional@H@4@@std@@V?$slot1@XAAVFileDropEvent@app@cinder@@V?$function@$$A6AXAAVFileDropEvent@app@cinder@@@Z@boost@@@signals2@boost@@Vmutex@45@@detail@signals2@boost@@@boost@@V?$allocator@V?$shared_ptr@V?$connection_body@U?$pair@W4slot_meta_group@detail@signals2@boost@@V?$optional@H@4@@std@@V?$slot1@XAAVFileDropEvent@app@cinder@@V?$function@$$A6AXAAVFileDropEvent@app@cinder@@@Z@boost@@@signals2@boost@@Vmutex@45@@detail@signals2@boost@@@boost@@@std@@@std@@QAE@ABV01@@Z 004375e0 f i cinder:Window.obj
 0001:000365e0       ??0?$list@V?$shared_ptr@V?$connection_body@U?$pair@W4slot_meta_group@detail@signals2@boost@@V?$optional@H@4@@std@@V?$slot1@XAAVKeyEvent@app@cinder@@V?$function@$$A6AXAAVKeyEvent@app@cinder@@@Z@boost@@@signals2@boost@@Vmutex@45@@detail@signals2@boost@@@boost@@V?$allocator@V?$shared_ptr@V?$connection_body@U?$pair@W4slot_meta_group@detail@signals2@boost@@V?$optional@H@4@@std@@V?$slot1@XAAVKeyEvent@app@cinder@@V?$function@$$A6AXAAVKeyEvent@app@cinder@@@Z@boost@@@signals2@boost@@Vmutex@45@@detail@signals2@boost@@@boost@@@std@@@std@@QAE@ABV01@@Z 004375e0 f i cinder:Window.obj
 0001:000365e0       ??0?$list@V?$shared_ptr@V?$connection_body@U?$pair@W4slot_meta_group@detail@signals2@boost@@V?$optional@H@4@@std@@V?$slot1@XAAVMouseEvent@app@cinder@@V?$function@$$A6AXAAVMouseEvent@app@cinder@@@Z@boost@@@signals2@boost@@Vmutex@45@@detail@signals2@boost@@@boost@@V?$allocator@V?$shared_ptr@V?$connection_body@U?$pair@W4slot_meta_group@detail@signals2@boost@@V?$optional@H@4@@std@@V?$slot1@XAAVMouseEvent@app@cinder@@V?$function@$$A6AXAAVMouseEvent@app@cinder@@@Z@boost@@@signals2@boost@@Vmutex@45@@detail@signals2@boost@@@boost@@@std@@@std@@QAE@ABV01@@Z 004375e0 f i cinder:Window.obj
 0001:000365e0       ??0?$list@V?$shared_ptr@V?$connection_body@U?$pair@W4slot_meta_group@detail@signals2@boost@@V?$optional@H@4@@std@@V?$slot1@XAAVTouchEvent@app@cinder@@V?$function@$$A6AXAAVTouchEvent@app@cinder@@@Z@boost@@@signals2@boost@@Vmutex@45@@detail@signals2@boost@@@boost@@V?$allocator@V?$shared_ptr@V?$connection_body@U?$pair@W4slot_meta_group@detail@signals2@boost@@V?$optional@H@4@@std@@V?$slot1@XAAVTouchEvent@app@cinder@@V?$function@$$A6AXAAVTouchEvent@app@cinder@@@Z@boost@@@signals2@boost@@Vmutex@45@@detail@signals2@boost@@@boost@@@std@@@std@@QAE@ABV01@@Z 004375e0 f i cinder:Window.obj
 0001:000365e0       ??0?$list@V?$shared_ptr@V?$connection_body@U?$pair@W4slot_meta_group@detail@signals2@boost@@V?$optional@H@4@@std@@V?$slot0@XV?$function@$$A6AXXZ@boost@@@signals2@boost@@Vmutex@45@@detail@signals2@boost@@@boost@@V?$allocator@V?$shared_ptr@V?$connection_body@U?$pair@W4slot_meta_group@detail@signals2@boost@@V?$optional@H@4@@std@@V?$slot0@XV?$function@$$A6AXXZ@boost@@@signals2@boost@@Vmutex@45@@detail@signals2@boost@@@boost@@@std@@@std@@QAE@ABV01@@Z 004375e0 f i cinder:Window.obj
 0001:000365e0       ??0?$list@V?$shared_ptr@V?$connection_body@U?$pair@W4slot_meta_group@detail@signals2@boost@@V?$optional@H@4@@std@@V?$slot0@_NV?$function@$$A6A_NXZ@boost@@@signals2@boost@@Vmutex@45@@detail@signals2@boost@@@boost@@V?$allocator@V?$shared_ptr@V?$connection_body@U?$pair@W4slot_meta_group@detail@signals2@boost@@V?$optional@H@4@@std@@V?$slot0@_NV?$function@$$A6A_NXZ@boost@@@signals2@boost@@Vmutex@45@@detail@signals2@boost@@@boost@@@std@@@std@@QAE@ABV01@@Z 004375e0 f i cinder:AppBasic.obj
 0001:00036680       ??0?$variant@V?$shared_ptr@X@boost@@Vforeign_void_shared_ptr@detail@signals2@2@Uvoid_@042@U6042@U6042@U6042@U6042@U6042@U6042@U6042@U6042@U6042@U6042@U6042@U6042@U6042@U6042@U6042@U6042@U6042@@boost@@QAE@ABV01@@Z 00437680 f i cinder:Window.obj
 0001:000366f0       ??0?$vector@VTouch@TouchEvent@app@cinder@@V?$allocator@VTouch@TouchEvent@app@cinder@@@std@@@std@@QAE@ABV01@@Z 004376f0 f i cinder:Window.obj
 0001:000367a0       ??0?$vector@Vpath@filesystem@boost@@V?$allocator@Vpath@filesystem@boost@@@std@@@std@@QAE@ABV01@@Z 004377a0 f i cinder:Window.obj
 0001:00036850       ??0ExcInvalidWindow@app@cinder@@QAE@ABV012@@Z 00437850 f i cinder:Window.obj
 0001:00036870       ??0Exception@cinder@@QAE@ABV01@@Z 00437870 f i cinder:Window.obj
 0001:00036890       ??0FileDropEvent@app@cinder@@QAE@ABV012@@Z 00437890 f i cinder:Window.obj
 0001:00036920       ??0KeyEvent@app@cinder@@QAE@ABV012@@Z 00437920 f i cinder:Window.obj
 0001:000369a0       ??0MouseEvent@app@cinder@@QAE@ABV012@@Z 004379a0 f i cinder:Window.obj
 0001:00036a10       ??0bad_function_call@boost@@QAE@ABV01@@Z 00437a10 f i cinder:Window.obj
 0001:00036a30       ??0clone_base@exception_detail@boost@@QAE@ABV012@@Z 00437a30 f i cinder:Window.obj
 0001:00036a40       ??0exception@boost@@QAE@ABV01@@Z 00437a40 f i cinder:Window.obj
 0001:00036a80       ??0invocation_state@?$signal0_impl@XV?$optional_last_value@X@signals2@boost@@HU?$less@H@std@@V?$function@$$A6AXXZ@3@V?$function@$$A6AXABVconnection@signals2@boost@@@Z@3@Vmutex@23@@detail@signals2@boost@@QAE@ABV01234@ABV?$grouped_list@HU?$less@H@std@@V?$shared_ptr@V?$connection_body@U?$pair@W4slot_meta_group@detail@signals2@boost@@V?$optional@H@4@@std@@V?$slot0@XV?$function@$$A6AXXZ@boost@@@signals2@boost@@Vmutex@45@@detail@signals2@boost@@@boost@@@234@@Z 00437a80 f i cinder:Window.obj
 0001:00036b10       ??0invocation_state@?$signal1_impl@XAAVFileDropEvent@app@cinder@@U?$EventCombiner@VFileDropEvent@app@cinder@@@23@HU?$less@H@std@@V?$function@$$A6AXAAVFileDropEvent@app@cinder@@@Z@boost@@V?$function@$$A6AXABVconnection@signals2@boost@@AAVFileDropEvent@app@cinder@@@Z@8@Vmutex@signals2@8@@detail@signals2@boost@@QAE@ABV01234@ABU?$EventCombiner@VFileDropEvent@app@cinder@@@app@cinder@@@Z 00437b10 f i cinder:Window.obj
 0001:00036ba0       ??0invocation_state@?$signal1_impl@XAAVFileDropEvent@app@cinder@@U?$EventCombiner@VFileDropEvent@app@cinder@@@23@HU?$less@H@std@@V?$function@$$A6AXAAVFileDropEvent@app@cinder@@@Z@boost@@V?$function@$$A6AXABVconnection@signals2@boost@@AAVFileDropEvent@app@cinder@@@Z@8@Vmutex@signals2@8@@detail@signals2@boost@@QAE@ABV01234@ABV?$grouped_list@HU?$less@H@std@@V?$shared_ptr@V?$connection_body@U?$pair@W4slot_meta_group@detail@signals2@boost@@V?$optional@H@4@@std@@V?$slot1@XAAVFileDropEvent@app@cinder@@V?$function@$$A6AXAAVFileDropEvent@app@cinder@@@Z@boost@@@signals2@boost@@Vmutex@45@@detail@signals2@boost@@@boost@@@234@@Z 00437ba0 f i cinder:Window.obj
 0001:00036c30       ??0invocation_state@?$signal1_impl@XAAVKeyEvent@app@cinder@@U?$EventCombiner@VKeyEvent@app@cinder@@@23@HU?$less@H@std@@V?$function@$$A6AXAAVKeyEvent@app@cinder@@@Z@boost@@V?$function@$$A6AXABVconnection@signals2@boost@@AAVKeyEvent@app@cinder@@@Z@8@Vmutex@signals2@8@@detail@signals2@boost@@QAE@ABV01234@ABU?$EventCombiner@VKeyEvent@app@cinder@@@app@cinder@@@Z 00437c30 f i cinder:Window.obj
 0001:00036cc0       ??0invocation_state@?$signal1_impl@XAAVKeyEvent@app@cinder@@U?$EventCombiner@VKeyEvent@app@cinder@@@23@HU?$less@H@std@@V?$function@$$A6AXAAVKeyEvent@app@cinder@@@Z@boost@@V?$function@$$A6AXABVconnection@signals2@boost@@AAVKeyEvent@app@cinder@@@Z@8@Vmutex@signals2@8@@detail@signals2@boost@@QAE@ABV01234@ABV?$grouped_list@HU?$less@H@std@@V?$shared_ptr@V?$connection_body@U?$pair@W4slot_meta_group@detail@signals2@boost@@V?$optional@H@4@@std@@V?$slot1@XAAVKeyEvent@app@cinder@@V?$function@$$A6AXAAVKeyEvent@app@cinder@@@Z@boost@@@signals2@boost@@Vmutex@45@@detail@signals2@boost@@@boost@@@234@@Z 00437cc0 f i cinder:Window.obj
 0001:00036d50       ??0invocation_state@?$signal1_impl@XAAVMouseEvent@app@cinder@@U?$EventCombiner@VMouseEvent@app@cinder@@@23@HU?$less@H@std@@V?$function@$$A6AXAAVMouseEvent@app@cinder@@@Z@boost@@V?$function@$$A6AXABVconnection@signals2@boost@@AAVMouseEvent@app@cinder@@@Z@8@Vmutex@signals2@8@@detail@signals2@boost@@QAE@ABV01234@ABU?$EventCombiner@VMouseEvent@app@cinder@@@app@cinder@@@Z 00437d50 f i cinder:Window.obj
 0001:00036de0       ??0invocation_state@?$signal1_impl@XAAVMouseEvent@app@cinder@@U?$EventCombiner@VMouseEvent@app@cinder@@@23@HU?$less@H@std@@V?$function@$$A6AXAAVMouseEvent@app@cinder@@@Z@boost@@V?$function@$$A6AXABVconnection@signals2@boost@@AAVMouseEvent@app@cinder@@@Z@8@Vmutex@signals2@8@@detail@signals2@boost@@QAE@ABV01234@ABV?$grouped_list@HU?$less@H@std@@V?$shared_ptr@V?$connection_body@U?$pair@W4slot_meta_group@detail@signals2@boost@@V?$optional@H@4@@std@@V?$slot1@XAAVMouseEvent@app@cinder@@V?$function@$$A6AXAAVMouseEvent@app@cinder@@@Z@boost@@@signals2@boost@@Vmutex@45@@detail@signals2@boost@@@boost@@@234@@Z 00437de0 f i cinder:Window.obj
 0001:00036e70       ??0invocation_state@?$signal1_impl@XAAVTouchEvent@app@cinder@@U?$EventCombiner@VTouchEvent@app@cinder@@@23@HU?$less@H@std@@V?$function@$$A6AXAAVTouchEvent@app@cinder@@@Z@boost@@V?$function@$$A6AXABVconnection@signals2@boost@@AAVTouchEvent@app@cinder@@@Z@8@Vmutex@signals2@8@@detail@signals2@boost@@QAE@ABV01234@ABU?$EventCombiner@VTouchEvent@app@cinder@@@app@cinder@@@Z 00437e70 f i cinder:Window.obj
 0001:00036f00       ??0invocation_state@?$signal1_impl@XAAVTouchEvent@app@cinder@@U?$EventCombiner@VTouchEvent@app@cinder@@@23@HU?$less@H@std@@V?$function@$$A6AXAAVTouchEvent@app@cinder@@@Z@boost@@V?$function@$$A6AXABVconnection@signals2@boost@@AAVTouchEvent@app@cinder@@@Z@8@Vmutex@signals2@8@@detail@signals2@boost@@QAE@ABV01234@ABV?$grouped_list@HU?$less@H@std@@V?$shared_ptr@V?$connection_body@U?$pair@W4slot_meta_group@detail@signals2@boost@@V?$optional@H@4@@std@@V?$slot1@XAAVTouchEvent@app@cinder@@V?$function@$$A6AXAAVTouchEvent@app@cinder@@@Z@boost@@@signals2@boost@@Vmutex@45@@detail@signals2@boost@@@boost@@@234@@Z 00437f00 f i cinder:Window.obj
 0001:00036f90       ??1?$_Tree_comp@$00V?$_Tmap_traits@U?$pair@W4slot_meta_group@detail@signals2@boost@@V?$optional@H@4@@std@@V?$_List_iterator@V?$_List_val@U?$_List_simple_types@V?$shared_ptr@V?$connection_body@U?$pair@W4slot_meta_group@detail@signals2@boost@@V?$optional@H@4@@std@@V?$slot0@_NV?$function@$$A6A_NXZ@boost@@@signals2@boost@@Vmutex@45@@detail@signals2@boost@@@boost@@@std@@@std@@@2@V?$group_key_less@HU?$less@H@std@@@detail@signals2@boost@@V?$allocator@U?$pair@$$CBU?$pair@W4slot_meta_group@detail@signals2@boost@@V?$optional@H@4@@std@@V?$_List_iterator@V?$_List_val@U?$_List_simple_types@V?$shared_ptr@V?$connection_body@U?$pair@W4slot_meta_group@detail@signals2@boost@@V?$optional@H@4@@std@@V?$slot0@_NV?$function@$$A6A_NXZ@boost@@@signals2@boost@@Vmutex@45@@detail@signals2@boost@@@boost@@@std@@@std@@@2@@std@@@2@$0A@@std@@@std@@QAE@XZ 00437f90 f i cinder:AppBasic.obj
 0001:00036f90       ??1?$_List_buy@V?$shared_ptr@V?$connection_body@U?$pair@W4slot_meta_group@detail@signals2@boost@@V?$optional@H@4@@std@@V?$slot1@XAAVMouseEvent@app@cinder@@V?$function@$$A6AXAAVMouseEvent@app@cinder@@@Z@boost@@@signals2@boost@@Vmutex@45@@detail@signals2@boost@@@boost@@V?$allocator@V?$shared_ptr@V?$connection_body@U?$pair@W4slot_meta_group@detail@signals2@boost@@V?$optional@H@4@@std@@V?$slot1@XAAVMouseEvent@app@cinder@@V?$function@$$A6AXAAVMouseEvent@app@cinder@@@Z@boost@@@signals2@boost@@Vmutex@45@@detail@signals2@boost@@@boost@@@std@@@std@@QAE@XZ 00437f90 f i cinder:Window.obj
 0001:00036f90       ??1?$_List_buy@V?$shared_ptr@V?$connection_body@U?$pair@W4slot_meta_group@detail@signals2@boost@@V?$optional@H@4@@std@@V?$slot1@XAAVKeyEvent@app@cinder@@V?$function@$$A6AXAAVKeyEvent@app@cinder@@@Z@boost@@@signals2@boost@@Vmutex@45@@detail@signals2@boost@@@boost@@V?$allocator@V?$shared_ptr@V?$connection_body@U?$pair@W4slot_meta_group@detail@signals2@boost@@V?$optional@H@4@@std@@V?$slot1@XAAVKeyEvent@app@cinder@@V?$function@$$A6AXAAVKeyEvent@app@cinder@@@Z@boost@@@signals2@boost@@Vmutex@45@@detail@signals2@boost@@@boost@@@std@@@std@@QAE@XZ 00437f90 f i cinder:Window.obj
 0001:00036f90       ??1?$_Tree_comp@$00V?$_Tmap_traits@U?$pair@W4slot_meta_group@detail@signals2@boost@@V?$optional@H@4@@std@@V?$_List_iterator@V?$_List_val@U?$_List_simple_types@V?$shared_ptr@V?$connection_body@U?$pair@W4slot_meta_group@detail@signals2@boost@@V?$optional@H@4@@std@@V?$slot1@XAAVKeyEvent@app@cinder@@V?$function@$$A6AXAAVKeyEvent@app@cinder@@@Z@boost@@@signals2@boost@@Vmutex@45@@detail@signals2@boost@@@boost@@@std@@@std@@@2@V?$group_key_less@HU?$less@H@std@@@detail@signals2@boost@@V?$allocator@U?$pair@$$CBU?$pair@W4slot_meta_group@detail@signals2@boost@@V?$optional@H@4@@std@@V?$_List_iterator@V?$_List_val@U?$_List_simple_types@V?$shared_ptr@V?$connection_body@U?$pair@W4slot_meta_group@detail@signals2@boost@@V?$optional@H@4@@std@@V?$slot1@XAAVKeyEvent@app@cinder@@V?$function@$$A6AXAAVKeyEvent@app@cinder@@@Z@boost@@@signals2@boost@@Vmutex@45@@detail@signals2@boost@@@boost@@@std@@@std@@@2@@std@@@2@$0A@@std@@@std@@QAE@XZ 00437f90 f i cinder:Window.obj
 0001:00036f90       ??1?$_List_buy@V?$shared_ptr@V?$connection_body@U?$pair@W4slot_meta_group@detail@signals2@boost@@V?$optional@H@4@@std@@V?$slot0@_NV?$function@$$A6A_NXZ@boost@@@signals2@boost@@Vmutex@45@@detail@signals2@boost@@@boost@@V?$allocator@V?$shared_ptr@V?$connection_body@U?$pair@W4slot_meta_group@detail@signals2@boost@@V?$optional@H@4@@std@@V?$slot0@_NV?$function@$$A6A_NXZ@boost@@@signals2@boost@@Vmutex@45@@detail@signals2@boost@@@boost@@@std@@@std@@QAE@XZ 00437f90 f i cinder:AppBasic.obj
 0001:00036f90       ??1?$_List_buy@V?$shared_ptr@V?$connection_body@U?$pair@W4slot_meta_group@detail@signals2@boost@@V?$optional@H@4@@std@@V?$slot1@XAAVTouchEvent@app@cinder@@V?$function@$$A6AXAAVTouchEvent@app@cinder@@@Z@boost@@@signals2@boost@@Vmutex@45@@detail@signals2@boost@@@boost@@V?$allocator@V?$shared_ptr@V?$connection_body@U?$pair@W4slot_meta_group@detail@signals2@boost@@V?$optional@H@4@@std@@V?$slot1@XAAVTouchEvent@app@cinder@@V?$function@$$A6AXAAVTouchEvent@app@cinder@@@Z@boost@@@signals2@boost@@Vmutex@45@@detail@signals2@boost@@@boost@@@std@@@std@@QAE@XZ 00437f90 f i cinder:Window.obj
 0001:00036f90       ??1?$_Tree_comp@$00V?$_Tmap_traits@U?$pair@W4slot_meta_group@detail@signals2@boost@@V?$optional@H@4@@std@@V?$_List_iterator@V?$_List_val@U?$_List_simple_types@V?$shared_ptr@V?$connection_body@U?$pair@W4slot_meta_group@detail@signals2@boost@@V?$optional@H@4@@std@@V?$slot0@XV?$function@$$A6AXXZ@boost@@@signals2@boost@@Vmutex@45@@detail@signals2@boost@@@boost@@@std@@@std@@@2@V?$group_key_less@HU?$less@H@std@@@detail@signals2@boost@@V?$allocator@U?$pair@$$CBU?$pair@W4slot_meta_group@detail@signals2@boost@@V?$optional@H@4@@std@@V?$_List_iterator@V?$_List_val@U?$_List_simple_types@V?$shared_ptr@V?$connection_body@U?$pair@W4slot_meta_group@detail@signals2@boost@@V?$optional@H@4@@std@@V?$slot0@XV?$function@$$A6AXXZ@boost@@@signals2@boost@@Vmutex@45@@detail@signals2@boost@@@boost@@@std@@@std@@@2@@std@@@2@$0A@@std@@@std@@QAE@XZ 00437f90 f i cinder:Window.obj
 0001:00036f90       ??1?$_List_buy@V?$shared_ptr@V?$connection_body@U?$pair@W4slot_meta_group@detail@signals2@boost@@V?$optional@H@4@@std@@V?$slot1@XAAVFileDropEvent@app@cinder@@V?$function@$$A6AXAAVFileDropEvent@app@cinder@@@Z@boost@@@signals2@boost@@Vmutex@45@@detail@signals2@boost@@@boost@@V?$allocator@V?$shared_ptr@V?$connection_body@U?$pair@W4slot_meta_group@detail@signals2@boost@@V?$optional@H@4@@std@@V?$slot1@XAAVFileDropEvent@app@cinder@@V?$function@$$A6AXAAVFileDropEvent@app@cinder@@@Z@boost@@@signals2@boost@@Vmutex@45@@detail@signals2@boost@@@boost@@@std@@@std@@QAE@XZ 00437f90 f i cinder:Window.obj
 0001:00036f90       ??1?$_Tree_comp@$00V?$_Tmap_traits@U?$pair@W4slot_meta_group@detail@signals2@boost@@V?$optional@H@4@@std@@V?$_List_iterator@V?$_List_val@U?$_List_simple_types@V?$shared_ptr@V?$connection_body@U?$pair@W4slot_meta_group@detail@signals2@boost@@V?$optional@H@4@@std@@V?$slot1@XAAVFileDropEvent@app@cinder@@V?$function@$$A6AXAAVFileDropEvent@app@cinder@@@Z@boost@@@signals2@boost@@Vmutex@45@@detail@signals2@boost@@@boost@@@std@@@std@@@2@V?$group_key_less@HU?$less@H@std@@@detail@signals2@boost@@V?$allocator@U?$pair@$$CBU?$pair@W4slot_meta_group@detail@signals2@boost@@V?$optional@H@4@@std@@V?$_List_iterator@V?$_List_val@U?$_List_simple_types@V?$shared_ptr@V?$connection_body@U?$pair@W4slot_meta_group@detail@signals2@boost@@V?$optional@H@4@@std@@V?$slot1@XAAVFileDropEvent@app@cinder@@V?$function@$$A6AXAAVFileDropEvent@app@cinder@@@Z@boost@@@signals2@boost@@Vmutex@45@@detail@signals2@boost@@@boost@@@std@@@std@@@2@@std@@@2@$0A@@std@@@std@@QAE@XZ 00437f90 f i cinder:Window.obj
 0001:00036f90       ??1?$_List_buy@V?$shared_ptr@V?$connection_body@U?$pair@W4slot_meta_group@detail@signals2@boost@@V?$optional@H@4@@std@@V?$slot0@XV?$function@$$A6AXXZ@boost@@@signals2@boost@@Vmutex@45@@detail@signals2@boost@@@boost@@V?$allocator@V?$shared_ptr@V?$connection_body@U?$pair@W4slot_meta_group@detail@signals2@boost@@V?$optional@H@4@@std@@V?$slot0@XV?$function@$$A6AXXZ@boost@@@signals2@boost@@Vmutex@45@@detail@signals2@boost@@@boost@@@std@@@std@@QAE@XZ 00437f90 f i cinder:Window.obj
 0001:00036f90       ??1?$_Tree_comp@$0A@V?$_Tmap_traits@HU?$pair@P6A?AV?$shared_ptr@VImageTarget@cinder@@@std@@V?$shared_ptr@VDataTarget@cinder@@@2@V?$shared_ptr@VImageSource@cinder@@@2@VOptions@ImageTarget@cinder@@ABV?$basic_string@DU?$char_traits@D@std@@V?$allocator@D@2@@2@@ZV82@@std@@U?$less@H@2@V?$allocator@U?$pair@$$CBHU?$pair@P6A?AV?$shared_ptr@VImageTarget@cinder@@@std@@V?$shared_ptr@VDataTarget@cinder@@@2@V?$shared_ptr@VImageSource@cinder@@@2@VOptions@ImageTarget@cinder@@ABV?$basic_string@DU?$char_traits@D@std@@V?$allocator@D@2@@2@@ZV82@@std@@@std@@@2@$00@std@@@std@@QAE@XZ 00437f90 f i cinder:ImageIo.obj
 0001:00036f90       ??1?$_Tree_comp@$00V?$_Tmap_traits@U?$pair@W4slot_meta_group@detail@signals2@boost@@V?$optional@H@4@@std@@V?$_List_iterator@V?$_List_val@U?$_List_simple_types@V?$shared_ptr@V?$connection_body@U?$pair@W4slot_meta_group@detail@signals2@boost@@V?$optional@H@4@@std@@V?$slot1@XAAVMouseEvent@app@cinder@@V?$function@$$A6AXAAVMouseEvent@app@cinder@@@Z@boost@@@signals2@boost@@Vmutex@45@@detail@signals2@boost@@@boost@@@std@@@std@@@2@V?$group_key_less@HU?$less@H@std@@@detail@signals2@boost@@V?$allocator@U?$pair@$$CBU?$pair@W4slot_meta_group@detail@signals2@boost@@V?$optional@H@4@@std@@V?$_List_iterator@V?$_List_val@U?$_List_simple_types@V?$shared_ptr@V?$connection_body@U?$pair@W4slot_meta_group@detail@signals2@boost@@V?$optional@H@4@@std@@V?$slot1@XAAVMouseEvent@app@cinder@@V?$function@$$A6AXAAVMouseEvent@app@cinder@@@Z@boost@@@signals2@boost@@Vmutex@45@@detail@signals2@boost@@@boost@@@std@@@std@@@2@@std@@@2@$0A@@std@@@std@@QAE@XZ 00437f90 f i cinder:Window.obj
 0001:00036f90       ??1?$_Tree_comp@$00V?$_Tmap_traits@U?$pair@W4slot_meta_group@detail@signals2@boost@@V?$optional@H@4@@std@@V?$_List_iterator@V?$_List_val@U?$_List_simple_types@V?$shared_ptr@V?$connection_body@U?$pair@W4slot_meta_group@detail@signals2@boost@@V?$optional@H@4@@std@@V?$slot1@XAAVTouchEvent@app@cinder@@V?$function@$$A6AXAAVTouchEvent@app@cinder@@@Z@boost@@@signals2@boost@@Vmutex@45@@detail@signals2@boost@@@boost@@@std@@@std@@@2@V?$group_key_less@HU?$less@H@std@@@detail@signals2@boost@@V?$allocator@U?$pair@$$CBU?$pair@W4slot_meta_group@detail@signals2@boost@@V?$optional@H@4@@std@@V?$_List_iterator@V?$_List_val@U?$_List_simple_types@V?$shared_ptr@V?$connection_body@U?$pair@W4slot_meta_group@detail@signals2@boost@@V?$optional@H@4@@std@@V?$slot1@XAAVTouchEvent@app@cinder@@V?$function@$$A6AXAAVTouchEvent@app@cinder@@@Z@boost@@@signals2@boost@@Vmutex@45@@detail@signals2@boost@@@boost@@@std@@@std@@@2@@std@@@2@$0A@@std@@@std@@QAE@XZ 00437f90 f i cinder:Window.obj
 0001:00036fa0       ??1?$clone_impl@U?$error_info_injector@Vbad_function_call@boost@@@exception_detail@boost@@@exception_detail@boost@@UAE@XZ 00437fa0 f i cinder:Window.obj
 0001:00037000       ??1?$error_info_injector@Vbad_function_call@boost@@@exception_detail@boost@@UAE@XZ 00438000 f i cinder:Window.obj
 0001:00037040       ??1?$grouped_list@HU?$less@H@std@@V?$shared_ptr@V?$connection_body@U?$pair@W4slot_meta_group@detail@signals2@boost@@V?$optional@H@4@@std@@V?$slot0@XV?$function@$$A6AXXZ@boost@@@signals2@boost@@Vmutex@45@@detail@signals2@boost@@@boost@@@detail@signals2@boost@@QAE@XZ 00438040 f i cinder:Window.obj
 0001:00037040       ??1?$grouped_list@HU?$less@H@std@@V?$shared_ptr@V?$connection_body@U?$pair@W4slot_meta_group@detail@signals2@boost@@V?$optional@H@4@@std@@V?$slot1@XAAVFileDropEvent@app@cinder@@V?$function@$$A6AXAAVFileDropEvent@app@cinder@@@Z@boost@@@signals2@boost@@Vmutex@45@@detail@signals2@boost@@@boost@@@detail@signals2@boost@@QAE@XZ 00438040 f i cinder:Window.obj
 0001:00037040       ??1?$grouped_list@HU?$less@H@std@@V?$shared_ptr@V?$connection_body@U?$pair@W4slot_meta_group@detail@signals2@boost@@V?$optional@H@4@@std@@V?$slot1@XAAVTouchEvent@app@cinder@@V?$function@$$A6AXAAVTouchEvent@app@cinder@@@Z@boost@@@signals2@boost@@Vmutex@45@@detail@signals2@boost@@@boost@@@detail@signals2@boost@@QAE@XZ 00438040 f i cinder:Window.obj
 0001:00037040       ??1?$grouped_list@HU?$less@H@std@@V?$shared_ptr@V?$connection_body@U?$pair@W4slot_meta_group@detail@signals2@boost@@V?$optional@H@4@@std@@V?$slot0@_NV?$function@$$A6A_NXZ@boost@@@signals2@boost@@Vmutex@45@@detail@signals2@boost@@@boost@@@detail@signals2@boost@@QAE@XZ 00438040 f i cinder:AppBasic.obj
 0001:00037040       ??1?$grouped_list@HU?$less@H@std@@V?$shared_ptr@V?$connection_body@U?$pair@W4slot_meta_group@detail@signals2@boost@@V?$optional@H@4@@std@@V?$slot1@XAAVKeyEvent@app@cinder@@V?$function@$$A6AXAAVKeyEvent@app@cinder@@@Z@boost@@@signals2@boost@@Vmutex@45@@detail@signals2@boost@@@boost@@@detail@signals2@boost@@QAE@XZ 00438040 f i cinder:Window.obj
 0001:00037040       ??1?$grouped_list@HU?$less@H@std@@V?$shared_ptr@V?$connection_body@U?$pair@W4slot_meta_group@detail@signals2@boost@@V?$optional@H@4@@std@@V?$slot1@XAAVMouseEvent@app@cinder@@V?$function@$$A6AXAAVMouseEvent@app@cinder@@@Z@boost@@@signals2@boost@@Vmutex@45@@detail@signals2@boost@@@boost@@@detail@signals2@boost@@QAE@XZ 00438040 f i cinder:Window.obj
 0001:00037080       ??1?$list@V?$shared_ptr@V?$connection_body@U?$pair@W4slot_meta_group@detail@signals2@boost@@V?$optional@H@4@@std@@V?$slot1@XAAVMouseEvent@app@cinder@@V?$function@$$A6AXAAVMouseEvent@app@cinder@@@Z@boost@@@signals2@boost@@Vmutex@45@@detail@signals2@boost@@@boost@@V?$allocator@V?$shared_ptr@V?$connection_body@U?$pair@W4slot_meta_group@detail@signals2@boost@@V?$optional@H@4@@std@@V?$slot1@XAAVMouseEvent@app@cinder@@V?$function@$$A6AXAAVMouseEvent@app@cinder@@@Z@boost@@@signals2@boost@@Vmutex@45@@detail@signals2@boost@@@boost@@@std@@@std@@QAE@XZ 00438080 f i cinder:Window.obj
 0001:00037080       ??1?$list@V?$shared_ptr@V?$connection_body@U?$pair@W4slot_meta_group@detail@signals2@boost@@V?$optional@H@4@@std@@V?$slot1@XAAVKeyEvent@app@cinder@@V?$function@$$A6AXAAVKeyEvent@app@cinder@@@Z@boost@@@signals2@boost@@Vmutex@45@@detail@signals2@boost@@@boost@@V?$allocator@V?$shared_ptr@V?$connection_body@U?$pair@W4slot_meta_group@detail@signals2@boost@@V?$optional@H@4@@std@@V?$slot1@XAAVKeyEvent@app@cinder@@V?$function@$$A6AXAAVKeyEvent@app@cinder@@@Z@boost@@@signals2@boost@@Vmutex@45@@detail@signals2@boost@@@boost@@@std@@@std@@QAE@XZ 00438080 f i cinder:Window.obj
 0001:00037080       ??1?$list@V?$shared_ptr@V?$connection_body@U?$pair@W4slot_meta_group@detail@signals2@boost@@V?$optional@H@4@@std@@V?$slot0@_NV?$function@$$A6A_NXZ@boost@@@signals2@boost@@Vmutex@45@@detail@signals2@boost@@@boost@@V?$allocator@V?$shared_ptr@V?$connection_body@U?$pair@W4slot_meta_group@detail@signals2@boost@@V?$optional@H@4@@std@@V?$slot0@_NV?$function@$$A6A_NXZ@boost@@@signals2@boost@@Vmutex@45@@detail@signals2@boost@@@boost@@@std@@@std@@QAE@XZ 00438080 f i cinder:AppBasic.obj
 0001:00037080       ??1?$list@V?$shared_ptr@V?$connection_body@U?$pair@W4slot_meta_group@detail@signals2@boost@@V?$optional@H@4@@std@@V?$slot0@XV?$function@$$A6AXXZ@boost@@@signals2@boost@@Vmutex@45@@detail@signals2@boost@@@boost@@V?$allocator@V?$shared_ptr@V?$connection_body@U?$pair@W4slot_meta_group@detail@signals2@boost@@V?$optional@H@4@@std@@V?$slot0@XV?$function@$$A6AXXZ@boost@@@signals2@boost@@Vmutex@45@@detail@signals2@boost@@@boost@@@std@@@std@@QAE@XZ 00438080 f i cinder:Window.obj
 0001:00037080       ??1?$list@V?$shared_ptr@V?$connection_body@U?$pair@W4slot_meta_group@detail@signals2@boost@@V?$optional@H@4@@std@@V?$slot1@XAAVTouchEvent@app@cinder@@V?$function@$$A6AXAAVTouchEvent@app@cinder@@@Z@boost@@@signals2@boost@@Vmutex@45@@detail@signals2@boost@@@boost@@V?$allocator@V?$shared_ptr@V?$connection_body@U?$pair@W4slot_meta_group@detail@signals2@boost@@V?$optional@H@4@@std@@V?$slot1@XAAVTouchEvent@app@cinder@@V?$function@$$A6AXAAVTouchEvent@app@cinder@@@Z@boost@@@signals2@boost@@Vmutex@45@@detail@signals2@boost@@@boost@@@std@@@std@@QAE@XZ 00438080 f i cinder:Window.obj
 0001:00037080       ??1?$list@V?$shared_ptr@V?$connection_body@U?$pair@W4slot_meta_group@detail@signals2@boost@@V?$optional@H@4@@std@@V?$slot1@XAAVFileDropEvent@app@cinder@@V?$function@$$A6AXAAVFileDropEvent@app@cinder@@@Z@boost@@@signals2@boost@@Vmutex@45@@detail@signals2@boost@@@boost@@V?$allocator@V?$shared_ptr@V?$connection_body@U?$pair@W4slot_meta_group@detail@signals2@boost@@V?$optional@H@4@@std@@V?$slot1@XAAVFileDropEvent@app@cinder@@V?$function@$$A6AXAAVFileDropEvent@app@cinder@@@Z@boost@@@signals2@boost@@Vmutex@45@@detail@signals2@boost@@@boost@@@std@@@std@@QAE@XZ 00438080 f i cinder:Window.obj
