 voxel-test-4-bones

 Timestamp is 53e7b2c5 (Sun Aug 10 13:58:29 2014)

 Preferred load address is 00400000

 Start         Length     Name                   Class
 0001:00000000 000a6352H .text                   CODE
 0001:000a6360 00006700H .text$x                 CODE
 0001:000aca60 00000e91H .text$yc                CODE
 0001:000ad900 00000617H .text$yd                CODE
 0002:00000000 000003e8H .idata$5                DATA
 0002:000003e8 00000004H .CRT$XCA                DATA
 0002:000003ec 00000034H .CRT$XCC                DATA
 0002:00000420 00000008H .CRT$XCL                DATA
 0002:00000428 00000264H .CRT$XCU                DATA
 0002:0000068c 00000004H .CRT$XCZ                DATA
 0002:00000690 00000004H .CRT$XIA                DATA
 0002:00000694 00000014H .CRT$XIC                DATA
 0002:000006a8 00000004H .CRT$XIU                DATA
 0002:000006ac 00000004H .CRT$XIY                DATA
 0002:000006b0 00000004H .CRT$XIZ                DATA
 0002:000006b4 00000004H .CRT$XLA                DATA
 0002:000006b8 00000004H .CRT$XLC                DATA
 0002:000006bc 00000004H .CRT$XLZ                DATA
 0002:000006c0 00000004H .CRT$XPA                DATA
 0002:000006c4 00000004H .CRT$XPB                DATA
 0002:000006c8 00000008H .CRT$XPX                DATA
 0002:000006d0 00000004H .CRT$XPXA               DATA
 0002:000006d4 00000004H .CRT$XPZ                DATA
 0002:000006d8 00000004H .CRT$XTA                DATA
 0002:000006dc 00000004H .CRT$XTU                DATA
 0002:000006e0 00000004H .CRT$XTZ                DATA
 0002:000006f0 000278c8H .rdata                  DATA
 0002:00027fb8 00000018H .rdata$T                DATA
 0002:00027fd0 0000517cH .rdata$r                DATA
 0002:0002d150 000006fcH .rdata$sxdata           DATA
 0002:0002d84c 00000004H .rtc$IAA                DATA
 0002:0002d850 00000004H .rtc$IZZ                DATA
 0002:0002d854 00000004H .rtc$TAA                DATA
 0002:0002d858 00000004H .rtc$TZZ                DATA
 0002:0002d860 00008b2cH .xdata$x                DATA
 0002:0003638c 000000b4H .idata$2                DATA
 0002:00036440 00000014H .idata$3                DATA
 0002:00036454 000003e8H .idata$4                DATA
 0002:0003683c 0000117eH .idata$6                DATA
 0002:000379ba 00000000H .edata                  DATA
 0003:00000000 000122ccH .data                   DATA
 0003:000122e0 000051c4H .bss                    DATA
 0004:00000000 00000001H .tls                    DATA
 0004:00000001 00000001H .tls$ZZZ                DATA
 0005:00000000 00000058H .rsrc$01                DATA
 0005:00000060 00000180H .rsrc$02                DATA

  Address         Publics by Value              Rva+Base       Lib:Object

 0000:00000000       __except_list              00000000     <absolute>
 0000:000001bf       ___safe_se_handler_count   000001bf     <absolute>
 0000:00000000       ___ImageBase               00400000     <linker-defined>
 0001:00000000       ?startDraw@Renderer@app@cinder@@UAEXXZ 00401000 f i cinder:Renderer.obj
 0001:00000000       ?setup@App@app@cinder@@UAEXXZ 00401000 f i cinder:AppBasic.obj
 0001:00000000       ?finishToggleFullScreen@Renderer@app@cinder@@UAEXXZ 00401000 f i cinder:Renderer.obj
 0001:00000000       ?_Destroy@?$_Ref_count_del@V?$basic_ostream@DU?$char_traits@D@std@@@std@@V<lambda_69588d13dcacf0fdf4c116f96accf98f>@@@std@@EAEXXZ 00401000 f i cinder:AppBasic.obj
 0001:00000000       ??1?$service_id@Vselect_reactor@detail@asio@boost@@@detail@asio@boost@@QAE@XZ 00401000 f i cinder:App.obj
 0001:00000000       ?shutdown@App@app@cinder@@UAEXXZ 00401000 f i cinder:AppBasic.obj
 0001:00000000       ??1?$service_id@Vstrand_service@detail@asio@boost@@@detail@asio@boost@@QAE@XZ 00401000 f i cinder:App.obj
 0001:00000000       ?loopStart@TimelineItem@cinder@@UAEXXZ 00401000 f i cinder:Timeline.obj
 0001:00000000       ?_Unlock@?$basic_streambuf@DU?$char_traits@D@std@@@std@@UAEXXZ 00401000 f i cinder:App.obj
 0001:00000000       ?kill@Renderer@app@cinder@@UAEXXZ 00401000 f i cinder:Renderer.obj
 0001:00000000       ?finalize@ImageTarget@cinder@@UAEXXZ 00401000 f i cinder:Texture.obj
 0001:00000000       ?draw@App@app@cinder@@UAEXXZ 00401000 f i cinder:AppBasic.obj
 0001:00000000       ?_Add_vtordisp2@?$basic_ios@DU?$char_traits@D@std@@@std@@UAEXXZ 00401000 f i cinder:App.obj
 0001:00000000       ?sp_enable_shared_from_this@detail@boost@@YAXZZ 00401000 f i cinder:Window.obj
 0001:00000000       ?finishDraw@Renderer@app@cinder@@UAEXXZ 00401000 f i cinder:Renderer.obj
 0001:00000000       ??1?$service_id@Vwin_iocp_io_service@detail@asio@boost@@@detail@asio@boost@@QAE@XZ 00401000 f i cinder:App.obj
 0001:00000000       ?update@CinderApp@@UAEXXZ  00401000 f i CinderApp.obj
 0001:00000000       ??3@YAXPAX0@Z              00401000 f i Bone.obj
 0001:00000000       ?tss_cleanup_implemented@boost@@YAXXZ 00401000 f i libboost_thread-vc110-mt-s-1_53:tss_pe.obj
 0001:00000000       ?run@externally_launched_thread@?A0x6231255e@boost@@UAEXXZ 00401000 f i libboost_thread-vc110-mt-s-1_53:thread.obj
 0001:00000000       ?makeCurrentContext@Renderer@app@cinder@@UAEXXZ 00401000 f i cinder:Renderer.obj
 0001:00000000       ?resize@App@app@cinder@@UAEXXZ 00401000 f i cinder:AppBasic.obj
 0001:00000000       ?_Lock@?$basic_streambuf@DU?$char_traits@D@std@@@std@@UAEXXZ 00401000 f i cinder:App.obj
 0001:00000000       ?on_process_enter@boost@@YAXXZ 00401000 f i libboost_thread-vc110-mt-s-1_53:thread.obj
 0001:00000000       ?_Add_vtordisp1@?$basic_ios@DU?$char_traits@D@std@@@std@@UAEXXZ 00401000 f i cinder:App.obj
 0001:00000000       ?prepareToggleFullScreen@Renderer@app@cinder@@UAEXXZ 00401000 f i cinder:Renderer.obj
 0001:00000000       ?cleanupLaunch@App@app@cinder@@KAXXZ 00401000 f i cinder:App.obj
 0001:00000000       ?_Add_vtordisp2@?$basic_ostream@DU?$char_traits@D@std@@@std@@UAEXXZ 00401000 f i cinder:App.obj
 0001:00000000       ?defaultResize@Renderer@app@cinder@@UAEXXZ 00401000 f i cinder:Renderer.obj
 0001:00000000       ?prepareLaunch@App@app@cinder@@KAXXZ 00401000 f i cinder:App.obj
 0001:00000000       ?update@App@app@cinder@@UAEXXZ 00401000 f i cinder:AppBasic.obj
 0001:00000010       ??_G_Future_error_category@std@@UAEPAXI@Z 00401010 f i CinderApp.obj
 0001:00000010       ??_E_System_error_category@std@@UAEPAXI@Z 00401010 f i * CIL library *:* CIL module *
 0001:00000010       ??_G_Generic_error_category@std@@UAEPAXI@Z 00401010 f i Bone.obj
 0001:00000010       ??_E_Iostream_error_category@std@@UAEPAXI@Z 00401010 f i * CIL library *:* CIL module *
 0001:00000010       ??_Gerror_category@std@@UAEPAXI@Z 00401010 f i Bone.obj
 0001:00000010       ??_G_Iostream_error_category@std@@UAEPAXI@Z 00401010 f i Bone.obj
 0001:00000010       ??_E_Future_error_category@std@@UAEPAXI@Z 00401010 f i * CIL library *:* CIL module *
 0001:00000010       ??_G_System_error_category@std@@UAEPAXI@Z 00401010 f i Bone.obj
 0001:00000010       ??_Eerror_category@std@@UAEPAXI@Z 00401010 f i * CIL library *:* CIL module *
 0001:00000010       ??_E_Generic_error_category@std@@UAEPAXI@Z 00401010 f i * CIL library *:* CIL module *
 0001:00000040       ?default_error_condition@error_category@system@boost@@UBE?AVerror_condition@23@H@Z 00401040 f i cinder:App.obj
 0001:00000040       ?default_error_condition@error_category@std@@UBE?AVerror_condition@2@H@Z 00401040 f i Bone.obj
 0001:00000060       ?equivalent@error_category@system@boost@@UBE_NHABVerror_condition@23@@Z 00401060 f i cinder:App.obj
 0001:00000060       ?equivalent@error_category@std@@UBE_NHABVerror_condition@2@@Z 00401060 f i Bone.obj
 0001:000000a0       ?equivalent@error_category@std@@UBE_NABVerror_code@2@H@Z 004010a0 f i Bone.obj
 0001:000000a0       ?equivalent@error_category@system@boost@@UBE_NABVerror_code@23@H@Z 004010a0 f i cinder:App.obj
 0001:000000c0       ?name@_Generic_error_category@std@@UBEPBDXZ 004010c0 f i Bone.obj
 0001:000000c0       ?name@generic_error_category@?A0xba8a6edf@@UBEPBDXZ 004010c0 f i libboost_system-vc110-mt-s-1_53:error_code.obj
 0001:000000d0       ?message@_Generic_error_category@std@@UBE?AV?$basic_string@DU?$char_traits@D@std@@V?$allocator@D@2@@2@H@Z 004010d0 f i Bone.obj
 0001:00000140       ?name@_Iostream_error_category@std@@UBEPBDXZ 00401140 f i Bone.obj
 0001:00000150       ?message@_Iostream_error_category@std@@UBE?AV?$basic_string@DU?$char_traits@D@std@@V?$allocator@D@2@@2@H@Z 00401150 f i Bone.obj
 0001:000001a0       ?name@system_error_category@?A0xba8a6edf@@UBEPBDXZ 004011a0 f i libboost_system-vc110-mt-s-1_53:error_code.obj
 0001:000001a0       ?name@_System_error_category@std@@UBEPBDXZ 004011a0 f i Bone.obj
 0001:000001b0       ?message@_System_error_category@std@@UBE?AV?$basic_string@DU?$char_traits@D@std@@V?$allocator@D@2@@2@H@Z 004011b0 f i Bone.obj
 0001:00000220       ?default_error_condition@_System_error_category@std@@UBE?AVerror_condition@2@H@Z 00401220 f i Bone.obj
 0001:00000260       ??0Bone@@QAE@XZ            00401260 f   Bone.obj
 0001:000002c0       ?draw@Bone@@QAEXXZ         004012c0 f   Bone.obj
 0001:00000500       ??0?$basic_string@DU?$char_traits@D@std@@V?$allocator@D@2@@std@@QAE@PBD@Z 00401500 f i Bone.obj
 0001:00000560       ??1?$pair@V?$basic_string@DU?$char_traits@D@std@@V?$allocator@D@2@@std@@PBU_GUID@@@std@@QAE@XZ 00401560 f i cinder:ImageTargetFileWic.obj
 0001:00000560       ??1?$basic_string@DU?$char_traits@D@std@@V?$allocator@D@2@@std@@QAE@XZ 00401560 f i Bone.obj
 0001:00000560       ??1?$pair@V?$basic_string@DU?$char_traits@D@std@@V?$allocator@D@2@@std@@_N@std@@QAE@XZ 00401560 f i cinder:gl.obj
 0001:00000560       ??1Url@cinder@@QAE@XZ      00401560 f i cinder:DataTarget.obj
 0001:00000590       ??0?$Quaternion@N@cinder@@QAE@ABV?$Vec3@N@1@0@Z 00401590 f i Bone.obj
 0001:00000800       ?assign@?$basic_string@DU?$char_traits@D@std@@V?$allocator@D@2@@std@@QAEAAV12@ABV12@II@Z 00401800 f i Bone.obj
 0001:00000930       ?assign@?$basic_string@DU?$char_traits@D@std@@V?$allocator@D@2@@std@@QAEAAV12@PBDI@Z 00401930 f i Bone.obj
 0001:00000a30       ?erase@?$basic_string@DU?$char_traits@D@std@@V?$allocator@D@2@@std@@QAEAAV12@I@Z 00401a30 f i Bone.obj
 0001:00000a70       ?erase@?$basic_string@DU?$char_traits@D@std@@V?$allocator@D@2@@std@@QAEAAV12@II@Z 00401a70 f i Bone.obj
 0001:00000b10       ?_Eos@?$basic_string@DU?$char_traits@D@std@@V?$allocator@D@2@@std@@QAEXI@Z 00401b10 f i Bone.obj
 0001:00000b40       ??0?$service_id@Vstrand_service@detail@asio@boost@@@detail@asio@boost@@QAE@XZ 00401b40 f i cinder:App.obj
 0001:00000b40       ??0?$_Wrap_alloc@V?$allocator@_W@std@@@std@@QAE@XZ 00401b40 f i CinderApp.obj
 0001:00000b40       ??0?$_Wrap_alloc@V?$allocator@U?$_Tree_node@U?$pair@$$CBV?$basic_string@DU?$char_traits@D@std@@V?$allocator@D@2@@std@@_N@std@@PAX@std@@@std@@@std@@QAE@XZ 00401b40 f i cinder:gl.obj
 0001:00000b40       ??0?$_Wrap_alloc@V?$allocator@V?$shared_ptr@VDisplay@cinder@@@std@@@std@@@std@@QAE@XZ 00401b40 f i cinder:Display.obj
 0001:00000b40       ??0?$_Wrap_alloc@V?$allocator@D@std@@@std@@QAE@XZ 00401b40 f i Bone.obj
 0001:00000b40       ??0?$service_id@Vselect_reactor@detail@asio@boost@@@detail@asio@boost@@QAE@XZ 00401b40 f i cinder:App.obj
 0001:00000b40       ??0?$service_id@Vwin_iocp_io_service@detail@asio@boost@@@detail@asio@boost@@QAE@XZ 00401b40 f i cinder:App.obj
 0001:00000b50       ?_Copy@?$basic_string@DU?$char_traits@D@std@@V?$allocator@D@2@@std@@QAEXII@Z 00401b50 f i Bone.obj
 0001:00000ca0       ?allocate@?$_Wrap_alloc@V?$allocator@D@std@@@std@@QAEPADI@Z 00401ca0 f i Bone.obj
 0001:00000ca0       ?allocate@?$allocator@D@std@@QAEPADI@Z 00401ca0 f i Bone.obj
 0001:00000cd0       ?fork_service@service@io_service@asio@boost@@EAEXW4fork_event@234@@Z 00401cd0 f i cinder:App.obj
 0001:00000cd0       ?imbue@?$basic_streambuf@DU?$char_traits@D@std@@@std@@MAEXABVlocale@2@@Z 00401cd0 f i cinder:App.obj
 0001:00000cd0       ??$destroy@PA_W@?$_Wrap_alloc@V?$allocator@_W@std@@@std@@QAEXPAPA_W@Z 00401cd0 f i CinderApp.obj
 0001:00000cd0       ?complete@Timeline@cinder@@MAEX_N@Z 00401cd0 f i cinder:Timeline.obj
 0001:00000cd0       ?prepareSettings@AppBasic@app@cinder@@UAEXPAVSettings@123@@Z 00401cd0 f i cinder:AppBasic.obj
 0001:00000cd0       ??$destroy@PAD@?$_Wrap_alloc@V?$allocator@D@std@@@std@@QAEXPAPAD@Z 00401cd0 f i Bone.obj
 0001:00000cd0       ?start@Timeline@cinder@@MAEX_N@Z 00401cd0 f i cinder:Timeline.obj
 0001:00000cd0       ??$destroy@PAU?$_Tree_node@U?$pair@$$CBV?$basic_string@DU?$char_traits@D@std@@V?$allocator@D@2@@std@@_N@std@@PAX@std@@@?$_Wrap_alloc@V?$allocator@U?$_Tree_node@U?$pair@$$CBV?$basic_string@DU?$char_traits@D@std@@V?$allocator@D@2@@std@@_N@std@@PAX@std@@@std@@@std@@QAEXPAPAU?$_Tree_node@U?$pair@$$CBV?$basic_string@DU?$char_traits@D@std@@V?$allocator@D@2@@std@@_N@std@@PAX@1@@Z 00401cd0 f i cinder:gl.obj
 0001:00000cd0       ?apc_function@detail@asio@boost@@YGXK@Z 00401cd0 f i cinder:App.obj
 0001:00000ce0       ?copy@?$char_traits@_W@std@@SAPA_WPA_WPB_WI@Z 00401ce0 f i CinderApp.obj
 0001:00000d00       ?move@?$char_traits@_W@std@@SAPA_WPA_WPB_WI@Z 00401d00 f i CinderApp.obj
 0001:00000d20       ??_Gsystem_error@std@@UAEPAXI@Z 00401d20 f i CinderApp.obj
 0001:00000d20       ??_Gfailure@ios_base@std@@UAEPAXI@Z 00401d20 f i CinderApp.obj
 0001:00000d20       ??_Gbad_function_call@boost@@UAEPAXI@Z 00401d20 f i cinder:Window.obj
 0001:00000d20       ??_Efailure@ios_base@std@@UAEPAXI@Z 00401d20 f i * CIL library *:* CIL module *
 0001:00000d20       ??_GGlslProgCompileExc@gl@cinder@@UAEPAXI@Z 00401d20 f i cinder:GlslProg.obj
 0001:00000d20       ??_Eruntime_error@std@@UAEPAXI@Z 00401d20 f i * CIL library *:* CIL module *
 0001:00000d20       ??_Gruntime_error@std@@UAEPAXI@Z 00401d20 f i CinderApp.obj
 0001:00000d20       ??_Esystem_error@std@@UAEPAXI@Z 00401d20 f i * CIL library *:* CIL module *
 0001:00000d20       ??_Ebad_function_call@boost@@UAEPAXI@Z 00401d20 f i cinder:Window.obj
 0001:00000d20       ??_EGlslProgCompileExc@gl@cinder@@UAEPAXI@Z 00401d20 f i cinder:GlslProg.obj
 0001:00000d50       ??1bad_function_call@boost@@UAE@XZ 00401d50 f i cinder:Window.obj
 0001:00000d50       ??1failure@ios_base@std@@UAE@XZ 00401d50 f i CinderApp.obj
 0001:00000d50       ??1GlslProgCompileExc@gl@cinder@@UAE@XZ 00401d50 f i cinder:GlslProg.obj
 0001:00000d50       ??1runtime_error@std@@UAE@XZ 00401d50 f i CinderApp.obj
 0001:00000d60       ??0runtime_error@std@@QAE@ABV01@@Z 00401d60 f i CinderApp.obj
 0001:00000d80       ??0failure@ios_base@std@@QAE@PBDABVerror_code@2@@Z 00401d80 f i CinderApp.obj
 0001:00000e70       ?clear@ios_base@std@@QAEXH_N@Z 00401e70 f i CinderApp.obj
 0001:00000f20       ??0failure@ios_base@std@@QAE@ABV012@@Z 00401f20 f i CinderApp.obj
 0001:00000f50       ??0system_error@std@@QAE@ABV01@@Z 00401f50 f i CinderApp.obj
 0001:00000f80       ?endl@std@@YAAAV?$basic_ostream@DU?$char_traits@D@std@@@1@AAV21@@Z 00401f80 f i CinderApp.obj
 0001:00000fb0       ?_Decref@_Ref_count_base@std@@QAEXXZ 00401fb0 f i CinderApp.obj
 0001:00000fe0       ?get_deleter@?$sp_counted_impl_p@Vinvocation_state@?$signal0_impl@_NUBooleanAndEventCombiner@app@cinder@@HU?$less@H@std@@V?$function@$$A6A_NXZ@boost@@V?$function@$$A6A_NABVconnection@signals2@boost@@@Z@7@Vmutex@signals2@7@@detail@signals2@boost@@@detail@boost@@UAEPAXABVtype_info@@@Z 00401fe0 f i cinder:AppBasic.obj
 0001:00000fe0       ?get_deleter@?$sp_counted_impl_p@V?$grouped_list@HU?$less@H@std@@V?$shared_ptr@V?$connection_body@U?$pair@W4slot_meta_group@detail@signals2@boost@@V?$optional@H@4@@std@@V?$slot1@XAAVFileDropEvent@app@cinder@@V?$function@$$A6AXAAVFileDropEvent@app@cinder@@@Z@boost@@@signals2@boost@@Vmutex@45@@detail@signals2@boost@@@boost@@@detail@signals2@boost@@@detail@boost@@UAEPAXABVtype_info@@@Z 00401fe0 f i cinder:Window.obj
 0001:00000fe0       ?get_deleter@?$sp_counted_impl_p@U?$EventCombiner@VTouchEvent@app@cinder@@@app@cinder@@@detail@boost@@UAEPAXABVtype_info@@@Z 00401fe0 f i cinder:Window.obj
 0001:00000fe0       ?get_deleter@?$sp_counted_impl_p@V?$grouped_list@HU?$less@H@std@@V?$shared_ptr@V?$connection_body@U?$pair@W4slot_meta_group@detail@signals2@boost@@V?$optional@H@4@@std@@V?$slot1@XAAVMouseEvent@app@cinder@@V?$function@$$A6AXAAVMouseEvent@app@cinder@@@Z@boost@@@signals2@boost@@Vmutex@45@@detail@signals2@boost@@@boost@@@detail@signals2@boost@@@detail@boost@@UAEPAXABVtype_info@@@Z 00401fe0 f i cinder:Window.obj
 0001:00000fe0       ?get_deleter@?$sp_counted_impl_p@V?$signal1_impl@XAAVKeyEvent@app@cinder@@U?$EventCombiner@VKeyEvent@app@cinder@@@23@HU?$less@H@std@@V?$function@$$A6AXAAVKeyEvent@app@cinder@@@Z@boost@@V?$function@$$A6AXABVconnection@signals2@boost@@AAVKeyEvent@app@cinder@@@Z@8@Vmutex@signals2@8@@detail@signals2@boost@@@detail@boost@@UAEPAXABVtype_info@@@Z 00401fe0 f i cinder:AppImplMsw.obj
 0001:00000fe0       ?get_deleter@?$sp_counted_impl_p@V?$signal0_impl@XV?$optional_last_value@X@signals2@boost@@HU?$less@H@std@@V?$function@$$A6AXXZ@3@V?$function@$$A6AXABVconnection@signals2@boost@@@Z@3@Vmutex@23@@detail@signals2@boost@@@detail@boost@@UAEPAXABVtype_info@@@Z 00401fe0 f i cinder:App.obj
 0001:00000fe0       ?get_deleter@?$sp_counted_impl_p@V?$clone_impl@Ubad_alloc_@exception_detail@boost@@@exception_detail@boost@@@detail@boost@@UAEPAXABVtype_info@@@Z 00401fe0 f i libboost_thread-vc110-mt-s-1_53:thread.obj
 0001:00000fe0       ?get_deleter@?$sp_counted_impl_p@V?$optional_last_value@X@signals2@boost@@@detail@boost@@UAEPAXABVtype_info@@@Z 00401fe0 f i cinder:App.obj
 0001:00000fe0       ?get_deleter@?$sp_counted_impl_p@V?$grouped_list@HU?$less@H@std@@V?$shared_ptr@V?$connection_body@U?$pair@W4slot_meta_group@detail@signals2@boost@@V?$optional@H@4@@std@@V?$slot1@XAAVTouchEvent@app@cinder@@V?$function@$$A6AXAAVTouchEvent@app@cinder@@@Z@boost@@@signals2@boost@@Vmutex@45@@detail@signals2@boost@@@boost@@@detail@signals2@boost@@@detail@boost@@UAEPAXABVtype_info@@@Z 00401fe0 f i cinder:Window.obj
 0001:00000fe0       ?get_deleter@?$sp_counted_impl_p@Vinvocation_state@?$signal1_impl@XAAVKeyEvent@app@cinder@@U?$EventCombiner@VKeyEvent@app@cinder@@@23@HU?$less@H@std@@V?$function@$$A6AXAAVKeyEvent@app@cinder@@@Z@boost@@V?$function@$$A6AXABVconnection@signals2@boost@@AAVKeyEvent@app@cinder@@@Z@8@Vmutex@signals2@8@@detail@signals2@boost@@@detail@boost@@UAEPAXABVtype_info@@@Z 00401fe0 f i cinder:Window.obj
 0001:00000fe0       ?get_deleter@?$sp_counted_impl_p@U?$EventCombiner@VMouseEvent@app@cinder@@@app@cinder@@@detail@boost@@UAEPAXABVtype_info@@@Z 00401fe0 f i cinder:Window.obj
 0001:00000fe0       ?get_deleter@?$sp_counted_impl_p@V?$grouped_list@HU?$less@H@std@@V?$shared_ptr@V?$connection_body@U?$pair@W4slot_meta_group@detail@signals2@boost@@V?$optional@H@4@@std@@V?$slot0@XV?$function@$$A6AXXZ@boost@@@signals2@boost@@Vmutex@45@@detail@signals2@boost@@@boost@@@detail@signals2@boost@@@detail@boost@@UAEPAXABVtype_info@@@Z 00401fe0 f i cinder:Window.obj
 0001:00000fe0       ?get_deleter@?$sp_counted_impl_p@U?$EventCombiner@VKeyEvent@app@cinder@@@app@cinder@@@detail@boost@@UAEPAXABVtype_info@@@Z 00401fe0 f i cinder:Window.obj
 0001:00000fe0       ?_Get_deleter@_Ref_count_base@std@@UBEPAXABVtype_info@@@Z 00401fe0 f i CinderApp.obj
 0001:00000fe0       ?get_deleter@?$sp_counted_impl_p@Um_imp@filesystem_error@filesystem@boost@@@detail@boost@@UAEPAXABVtype_info@@@Z 00401fe0 f i libboost_filesystem-vc110-mt-s-1_53:operations.obj
 0001:00000fe0       ?get_deleter@?$sp_counted_impl_p@V?$grouped_list@HU?$less@H@std@@V?$shared_ptr@V?$connection_body@U?$pair@W4slot_meta_group@detail@signals2@boost@@V?$optional@H@4@@std@@V?$slot0@_NV?$function@$$A6A_NXZ@boost@@@signals2@boost@@Vmutex@45@@detail@signals2@boost@@@boost@@@detail@signals2@boost@@@detail@boost@@UAEPAXABVtype_info@@@Z 00401fe0 f i cinder:AppBasic.obj
 0001:00000fe0       ?get_deleter@?$sp_counted_impl_p@UBooleanAndEventCombiner@app@cinder@@@detail@boost@@UAEPAXABVtype_info@@@Z 00401fe0 f i cinder:AppBasic.obj
 0001:00000fe0       ?get_deleter@?$sp_counted_impl_p@Vinvocation_state@?$signal0_impl@XV?$optional_last_value@X@signals2@boost@@HU?$less@H@std@@V?$function@$$A6AXXZ@3@V?$function@$$A6AXABVconnection@signals2@boost@@@Z@3@Vmutex@23@@detail@signals2@boost@@@detail@boost@@UAEPAXABVtype_info@@@Z 00401fe0 f i cinder:Window.obj
 0001:00000fe0       ?get_deleter@?$sp_counted_impl_p@V?$clone_impl@Ubad_exception_@exception_detail@boost@@@exception_detail@boost@@@detail@boost@@UAEPAXABVtype_info@@@Z 00401fe0 f i libboost_thread-vc110-mt-s-1_53:thread.obj
 0001:00000fe0       ?get_deleter@?$sp_counted_impl_p@V?$signal0_impl@_NUBooleanAndEventCombiner@app@cinder@@HU?$less@H@std@@V?$function@$$A6A_NXZ@boost@@V?$function@$$A6A_NABVconnection@signals2@boost@@@Z@7@Vmutex@signals2@7@@detail@signals2@boost@@@detail@boost@@UAEPAXABVtype_info@@@Z 00401fe0 f i cinder:AppBasic.obj
 0001:00000fe0       ?get_deleter@?$sp_counted_impl_p@V?$grouped_list@HU?$less@H@std@@V?$shared_ptr@V?$connection_body@U?$pair@W4slot_meta_group@detail@signals2@boost@@V?$optional@H@4@@std@@V?$slot1@XAAVKeyEvent@app@cinder@@V?$function@$$A6AXAAVKeyEvent@app@cinder@@@Z@boost@@@signals2@boost@@Vmutex@45@@detail@signals2@boost@@@boost@@@detail@signals2@boost@@@detail@boost@@UAEPAXABVtype_info@@@Z 00401fe0 f i cinder:Window.obj
 0001:00000fe0       ?get_deleter@?$sp_counted_impl_p@U?$EventCombiner@VFileDropEvent@app@cinder@@@app@cinder@@@detail@boost@@UAEPAXABVtype_info@@@Z 00401fe0 f i cinder:Window.obj
 0001:00000fe0       ?get_deleter@?$sp_counted_impl_p@V?$signal1_impl@XAAVTouchEvent@app@cinder@@U?$EventCombiner@VTouchEvent@app@cinder@@@23@HU?$less@H@std@@V?$function@$$A6AXAAVTouchEvent@app@cinder@@@Z@boost@@V?$function@$$A6AXABVconnection@signals2@boost@@AAVTouchEvent@app@cinder@@@Z@8@Vmutex@signals2@8@@detail@signals2@boost@@@detail@boost@@UAEPAXABVtype_info@@@Z 00401fe0 f i cinder:AppImplMsw.obj
 0001:00000fe0       ?get_deleter@?$sp_counted_impl_p@Vinvocation_state@?$signal1_impl@XAAVTouchEvent@app@cinder@@U?$EventCombiner@VTouchEvent@app@cinder@@@23@HU?$less@H@std@@V?$function@$$A6AXAAVTouchEvent@app@cinder@@@Z@boost@@V?$function@$$A6AXABVconnection@signals2@boost@@AAVTouchEvent@app@cinder@@@Z@8@Vmutex@signals2@8@@detail@signals2@boost@@@detail@boost@@UAEPAXABVtype_info@@@Z 00401fe0 f i cinder:Window.obj
 0001:00000fe0       ?get_deleter@?$sp_counted_impl_p@Vinvocation_state@?$signal1_impl@XAAVFileDropEvent@app@cinder@@U?$EventCombiner@VFileDropEvent@app@cinder@@@23@HU?$less@H@std@@V?$function@$$A6AXAAVFileDropEvent@app@cinder@@@Z@boost@@V?$function@$$A6AXABVconnection@signals2@boost@@AAVFileDropEvent@app@cinder@@@Z@8@Vmutex@signals2@8@@detail@signals2@boost@@@detail@boost@@UAEPAXABVtype_info@@@Z 00401fe0 f i cinder:Window.obj
 0001:00000fe0       ?get_deleter@?$sp_counted_impl_p@V?$signal1_impl@XAAVFileDropEvent@app@cinder@@U?$EventCombiner@VFileDropEvent@app@cinder@@@23@HU?$less@H@std@@V?$function@$$A6AXAAVFileDropEvent@app@cinder@@@Z@boost@@V?$function@$$A6AXABVconnection@signals2@boost@@AAVFileDropEvent@app@cinder@@@Z@8@Vmutex@signals2@8@@detail@signals2@boost@@@detail@boost@@UAEPAXABVtype_info@@@Z 00401fe0 f i cinder:AppImplMsw.obj
 0001:00000fe0       ?get_deleter@?$sp_counted_impl_p@V?$signal1_impl@XAAVMouseEvent@app@cinder@@U?$EventCombiner@VMouseEvent@app@cinder@@@23@HU?$less@H@std@@V?$function@$$A6AXAAVMouseEvent@app@cinder@@@Z@boost@@V?$function@$$A6AXABVconnection@signals2@boost@@AAVMouseEvent@app@cinder@@@Z@8@Vmutex@signals2@8@@detail@signals2@boost@@@detail@boost@@UAEPAXABVtype_info@@@Z 00401fe0 f i cinder:AppImplMsw.obj
 0001:00000fe0       ?get_deleter@?$sp_counted_impl_p@Vinvocation_state@?$signal1_impl@XAAVMouseEvent@app@cinder@@U?$EventCombiner@VMouseEvent@app@cinder@@@23@HU?$less@H@std@@V?$function@$$A6AXAAVMouseEvent@app@cinder@@@Z@boost@@V?$function@$$A6AXABVconnection@signals2@boost@@AAVMouseEvent@app@cinder@@@Z@8@Vmutex@signals2@8@@detail@signals2@boost@@@detail@boost@@UAEPAXABVtype_info@@@Z 00401fe0 f i cinder:Window.obj
 0001:00000ff0       ??_E?$_Ref_count@UInst@ImageIoRegistrar@cinder@@@std@@UAEPAXI@Z 00401ff0 f i cinder:ImageIo.obj
 0001:00000ff0       ??_E?$_Ref_count_del@EP6AXPAE@Z@std@@UAEPAXI@Z 00401ff0 f i cinder:Texture.obj
 0001:00000ff0       ??_G?$_Ref_count@VTimeline@cinder@@@std@@UAEPAXI@Z 00401ff0 f i cinder:App.obj
 0001:00000ff0       ??_E?$_Ref_count@UObj@Texture@gl@cinder@@@std@@UAEPAXI@Z 00401ff0 f i cinder:Texture.obj
 0001:00000ff0       ??_E_Ref_count_base@std@@UAEPAXI@Z 00401ff0 f i * CIL library *:* CIL module *
 0001:00000ff0       ??_G?$_Ref_count@VWindow@app@cinder@@@std@@UAEPAXI@Z 00401ff0 f i cinder:AppImplMsw.obj
 0001:00000ff0       ??_E?$_Ref_count_del@UIWICFormatConverter@@P6AXPAX@Z@std@@UAEPAXI@Z 00401ff0 f i cinder:ImageSourceFileWic.obj
 0001:00000ff0       ??_E?$_Ref_count@UObj@?$SurfaceT@E@cinder@@@std@@UAEPAXI@Z 00401ff0 f i cinder:Surface.obj
 0001:00000ff0       ??_E?$_Ref_count_del@UIWICBitmapDecoder@@P6AXPAX@Z@std@@UAEPAXI@Z 00401ff0 f i cinder:ImageSourceFileWic.obj
 0001:00000ff0       ??_E?$_Ref_count@VObj@Font@cinder@@@std@@UAEPAXI@Z 00401ff0 f i cinder:Font.obj
 0001:00000ff0       ??_E?$_Ref_count@VWindow@app@cinder@@@std@@UAEPAXI@Z 00401ff0 f i cinder:AppImplMsw.obj
 0001:00000ff0       ??_G?$_Ref_count@VDataSourcePath@cinder@@@std@@UAEPAXI@Z 00401ff0 f i cinder:DataSource.obj
 0001:00000ff0       ??_G?$_Ref_count_del@UIWICBitmapFrameDecode@@P6AXPAX@Z@std@@UAEPAXI@Z 00401ff0 f i cinder:ImageSourceFileWic.obj
 0001:00000ff0       ??_G?$_Ref_count@VDisplay@cinder@@@std@@UAEPAXI@Z 00401ff0 f i cinder:Display.obj
 0001:00000ff0       ??_G?$_Ref_count_del@UtagTOUCHINPUT@@U?$checked_array_deleter@UtagTOUCHINPUT@@@boost@@@std@@UAEPAXI@Z 00401ff0 f i cinder:AppImplMsw.obj
 0001:00000ff0       ??_G?$_Ref_count@UObj@Buffer@cinder@@@std@@UAEPAXI@Z 00401ff0 f i cinder:Buffer.obj
 0001:00000ff0       ??_G?$_Ref_count@VObj@Font@cinder@@@std@@UAEPAXI@Z 00401ff0 f i cinder:Font.obj
 0001:00000ff0       ??_G?$_Ref_count@VFont@Gdiplus@@@std@@UAEPAXI@Z 00401ff0 f i cinder:Font.obj
 0001:00000ff0       ??_E?$_Ref_count@VImageTargetFileWic@cinder@@@std@@UAEPAXI@Z 00401ff0 f i cinder:ImageTargetFileWic.obj
 0001:00000ff0       ??_E?$_Ref_count@UObj@GlslProg@gl@cinder@@@std@@UAEPAXI@Z 00401ff0 f i cinder:GlslProg.obj
 0001:00000ff0       ??_G?$_Ref_count_del@UIWICBitmapEncoder@@P6AXPAX@Z@std@@UAEPAXI@Z 00401ff0 f i cinder:ImageTargetFileWic.obj
 0001:00000ff0       ??_E?$_Ref_count@UObj@Fbo@gl@cinder@@@std@@UAEPAXI@Z 00401ff0 f i cinder:Fbo.obj
 0001:00000ff0       ??_E?$_Ref_count@Vwork@io_service@asio@boost@@@std@@UAEPAXI@Z 00401ff0 f i cinder:App.obj
 0001:00000ff0       ??_E?$_Ref_count_del@VComOStream@msw@cinder@@P6AXPAX@Z@std@@UAEPAXI@Z 00401ff0 f i cinder:ImageTargetFileWic.obj
 0001:00000ff0       ??_E?$_Ref_count@Vio_service@asio@boost@@@std@@UAEPAXI@Z 00401ff0 f i cinder:App.obj
 0001:00000ff0       ??_G_Ref_count_base@std@@UAEPAXI@Z 00401ff0 f i CinderApp.obj
 0001:00000ff0       ??_G?$_Ref_count_del@VComOStream@msw@cinder@@P6AXPAX@Z@std@@UAEPAXI@Z 00401ff0 f i cinder:ImageTargetFileWic.obj
 0001:00000ff0       ??_E?$_Ref_count@UObj@Buffer@cinder@@@std@@UAEPAXI@Z 00401ff0 f i cinder:Buffer.obj
 0001:00000ff0       ??_E?$_Ref_count@VFont@Gdiplus@@@std@@UAEPAXI@Z 00401ff0 f i cinder:Font.obj
 0001:00000ff0       ??_E?$_Ref_count_del@UtagTOUCHINPUT@@U?$checked_array_deleter@UtagTOUCHINPUT@@@boost@@@std@@UAEPAXI@Z 00401ff0 f i cinder:AppImplMsw.obj
 0001:00000ff0       ??_E?$_Ref_count@V?$basic_dostream@DU?$char_traits@D@std@@@msw@cinder@@@std@@UAEPAXI@Z 00401ff0 f i cinder:App.obj
 0001:00000ff0       ??_G?$_Ref_count@UObj@Fbo@gl@cinder@@@std@@UAEPAXI@Z 00401ff0 f i cinder:Fbo.obj
 0001:00000ff0       ??_E?$_Ref_count@VDisplay@cinder@@@std@@UAEPAXI@Z 00401ff0 f i cinder:Display.obj
 0001:00000ff0       ??_G?$_Ref_count@UObj@?$ChannelT@E@cinder@@@std@@UAEPAXI@Z 00401ff0 f i cinder:Channel.obj
 0001:00000ff0       ??_E?$_Ref_count@VBlankingWindow@app@cinder@@@std@@UAEPAXI@Z 00401ff0 f i cinder:AppImplMswBasic.obj
 0001:00000ff0       ??_E?$_Ref_count_del@UIWICBitmapEncoder@@P6AXPAX@Z@std@@UAEPAXI@Z 00401ff0 f i cinder:ImageTargetFileWic.obj
 0001:00000ff0       ??_E?$_Ref_count@V?$map@V?$basic_string@DU?$char_traits@D@std@@V?$allocator@D@2@@std@@PBU_GUID@@U?$less@V?$basic_string@DU?$char_traits@D@std@@V?$allocator@D@2@@std@@@2@V?$allocator@U?$pair@$$CBV?$basic_string@DU?$char_traits@D@std@@V?$allocator@D@2@@std@@PBU_GUID@@@std@@@2@@std@@@std@@UAEPAXI@Z 00401ff0 f i cinder:ImageTargetFileWic.obj
 0001:00000ff0       ??_G?$_Ref_count_del@EU?$checked_array_deleter@E@boost@@@std@@UAEPAXI@Z 00401ff0 f i cinder:Font.obj
 0001:00000ff0       ??_G?$_Ref_count@UObj@Texture@gl@cinder@@@std@@UAEPAXI@Z 00401ff0 f i cinder:Texture.obj
 0001:00000ff0       ??_G?$_Ref_count@VBlankingWindow@app@cinder@@@std@@UAEPAXI@Z 00401ff0 f i cinder:AppImplMswBasic.obj
 0001:00000ff0       ??_E?$_Ref_count_del@UIWICImagingFactory@@P6AXPAX@Z@std@@UAEPAXI@Z 00401ff0 f i cinder:ImageSourceFileWic.obj
 0001:00000ff0       ??_E?$_Ref_count_del@UIWICStream@@P6AXPAX@Z@std@@UAEPAXI@Z 00401ff0 f i cinder:ImageSourceFileWic.obj
 0001:00000ff0       ??_E?$_Ref_count_del@DU?$checked_array_deleter@D@boost@@@std@@UAEPAXI@Z 00401ff0 f i cinder:GlslProg.obj
 0001:00000ff0       ??_G?$_Ref_count_del@UIWICBitmapFrameEncode@@P6AXPAX@Z@std@@UAEPAXI@Z 00401ff0 f i cinder:ImageTargetFileWic.obj
 0001:00000ff0       ??_E?$_Ref_count@UObj@Renderbuffer@gl@cinder@@@std@@UAEPAXI@Z 00401ff0 f i cinder:Fbo.obj
 0001:00000ff0       ??_G?$_Ref_count@Vwork@io_service@asio@boost@@@std@@UAEPAXI@Z 00401ff0 f i cinder:App.obj
 0001:00000ff0       ??_G?$_Ref_count@VImageTargetFileWic@cinder@@@std@@UAEPAXI@Z 00401ff0 f i cinder:ImageTargetFileWic.obj
 0001:00000ff0       ??_G?$_Ref_count_del@UIWICFormatConverter@@P6AXPAX@Z@std@@UAEPAXI@Z 00401ff0 f i cinder:ImageSourceFileWic.obj
 0001:00000ff0       ??_E?$_Ref_count_del@XP6AXPAX@Z@std@@UAEPAXI@Z 00401ff0 f i cinder:Font.obj
 0001:00000ff0       ??_G?$_Ref_count@UObj@GlslProg@gl@cinder@@@std@@UAEPAXI@Z 00401ff0 f i cinder:GlslProg.obj
 0001:00000ff0       ??_G?$_Ref_count@UObj@?$SurfaceT@E@cinder@@@std@@UAEPAXI@Z 00401ff0 f i cinder:Surface.obj
 0001:00000ff0       ??_E?$_Ref_count@VImageSourceFileWic@cinder@@@std@@UAEPAXI@Z 00401ff0 f i cinder:ImageSourceFileWic.obj
 0001:00000ff0       ??_G?$_Ref_count_del@UIWICStream@@P6AXPAX@Z@std@@UAEPAXI@Z 00401ff0 f i cinder:ImageSourceFileWic.obj
 0001:00000ff0       ??_E?$_Ref_count@VDataSourcePath@cinder@@@std@@UAEPAXI@Z 00401ff0 f i cinder:DataSource.obj
 0001:00000ff0       ??_G?$_Ref_count@UObj@Renderbuffer@gl@cinder@@@std@@UAEPAXI@Z 00401ff0 f i cinder:Fbo.obj
 0001:00000ff0       ??_E?$_Ref_count_del@EU?$checked_array_deleter@E@boost@@@std@@UAEPAXI@Z 00401ff0 f i cinder:Font.obj
 0001:00000ff0       ??_E?$_Ref_count@UObj@?$ChannelT@E@cinder@@@std@@UAEPAXI@Z 00401ff0 f i cinder:Channel.obj
 0001:00000ff0       ??_G?$_Ref_count_del@UIWICImagingFactory@@P6AXPAX@Z@std@@UAEPAXI@Z 00401ff0 f i cinder:ImageSourceFileWic.obj
 0001:00000ff0       ??_E?$_Ref_count@VIStreamFile@cinder@@@std@@UAEPAXI@Z 00401ff0 f i cinder:Stream.obj
 0001:00000ff0       ??_E?$_Ref_count_del@UIWICBitmapFrameEncode@@P6AXPAX@Z@std@@UAEPAXI@Z 00401ff0 f i cinder:ImageTargetFileWic.obj
 0001:00000ff0       ??_E?$_Ref_count@VRendererGl@app@cinder@@@std@@UAEPAXI@Z 00401ff0 f i * CIL library *:* CIL module *
 0001:00000ff0       ??_E?$_Ref_count_del@V?$basic_ostream@DU?$char_traits@D@std@@@std@@V<lambda_69588d13dcacf0fdf4c116f96accf98f>@@@std@@UAEPAXI@Z 00401ff0 f i cinder:AppBasic.obj
 0001:00000ff0       ??_G?$_Ref_count_del@XP6AXPAX@Z@std@@UAEPAXI@Z 00401ff0 f i cinder:Font.obj
 0001:00000ff0       ??_G?$_Ref_count_del@UIWICBitmapDecoder@@P6AXPAX@Z@std@@UAEPAXI@Z 00401ff0 f i cinder:ImageSourceFileWic.obj
 0001:00000ff0       ??_G?$_Ref_count@UInst@ImageIoRegistrar@cinder@@@std@@UAEPAXI@Z 00401ff0 f i cinder:ImageIo.obj
 0001:00000ff0       ??_E?$_Ref_count_del@UIWICBitmapFrameDecode@@P6AXPAX@Z@std@@UAEPAXI@Z 00401ff0 f i cinder:ImageSourceFileWic.obj
 0001:00000ff0       ??_G?$_Ref_count_del@EP6AXPAE@Z@std@@UAEPAXI@Z 00401ff0 f i cinder:Texture.obj
 0001:00000ff0       ??_G?$_Ref_count@V?$basic_dostream@DU?$char_traits@D@std@@@msw@cinder@@@std@@UAEPAXI@Z 00401ff0 f i cinder:App.obj
 0001:00000ff0       ??_G?$_Ref_count@VImageSourceFileWic@cinder@@@std@@UAEPAXI@Z 00401ff0 f i cinder:ImageSourceFileWic.obj
 0001:00000ff0       ??_G?$_Ref_count@VIStreamFile@cinder@@@std@@UAEPAXI@Z 00401ff0 f i cinder:Stream.obj
 0001:00000ff0       ??_G?$_Ref_count_del@V?$basic_ostream@DU?$char_traits@D@std@@@std@@V<lambda_69588d13dcacf0fdf4c116f96accf98f>@@@std@@UAEPAXI@Z 00401ff0 f i cinder:AppBasic.obj
 0001:00000ff0       ??_G?$_Ref_count@V?$map@V?$basic_string@DU?$char_traits@D@std@@V?$allocator@D@2@@std@@PBU_GUID@@U?$less@V?$basic_string@DU?$char_traits@D@std@@V?$allocator@D@2@@std@@@2@V?$allocator@U?$pair@$$CBV?$basic_string@DU?$char_traits@D@std@@V?$allocator@D@2@@std@@PBU_GUID@@@std@@@2@@std@@@std@@UAEPAXI@Z 00401ff0 f i cinder:ImageTargetFileWic.obj
 0001:00000ff0       ??_G?$_Ref_count@Vio_service@asio@boost@@@std@@UAEPAXI@Z 00401ff0 f i cinder:App.obj
 0001:00000ff0       ??_E?$_Ref_count@VTimeline@cinder@@@std@@UAEPAXI@Z 00401ff0 f i cinder:App.obj
 0001:00000ff0       ??_G?$_Ref_count_del@DU?$checked_array_deleter@D@boost@@@std@@UAEPAXI@Z 00401ff0 f i cinder:GlslProg.obj
 0001:00000ff0       ??_G?$_Ref_count@VRendererGl@app@cinder@@@std@@UAEPAXI@Z 00401ff0 f i CinderApp.obj
 0001:00001020       ??1iterator@path@filesystem@boost@@QAE@XZ 00402020 f i libboost_filesystem-vc110-mt-s-1_53:path.obj
 0001:00001020       ??1path@filesystem@boost@@QAE@XZ 00402020 f i CinderApp.obj
 0001:00001020       ??1?$basic_string@_WU?$char_traits@_W@std@@V?$allocator@_W@2@@std@@QAE@XZ 00402020 f i CinderApp.obj
 0001:00001050       ??Kfilesystem@boost@@YA?AVpath@01@ABV201@0@Z 00402050 f i CinderApp.obj
 0001:00001110       ?getProjectionMatrix@Camera@cinder@@UBEABV?$Matrix44@M@2@XZ 00402110 f i CinderApp.obj
 0001:00001130       ?getModelViewMatrix@Camera@cinder@@UBEABV?$Matrix44@M@2@XZ 00402130 f i CinderApp.obj
 0001:00001150       ?getInverseModelViewMatrix@Camera@cinder@@UBEABV?$Matrix44@M@2@XZ 00402150 f i CinderApp.obj
 0001:00001170       ??_GCameraOrtho@cinder@@UAEPAXI@Z 00402170 f i cinder:Camera.obj
 0001:00001170       ??_GCamera@cinder@@UAEPAXI@Z 00402170 f i CinderApp.obj
 0001:00001170       ??_ECameraPersp@cinder@@UAEPAXI@Z 00402170 f i * CIL library *:* CIL module *
 0001:00001170       ??_GCameraPersp@cinder@@UAEPAXI@Z 00402170 f i CinderApp.obj
 0001:00001170       ??_ECamera@cinder@@UAEPAXI@Z 00402170 f i * CIL library *:* CIL module *
 0001:00001170       ??_ECameraOrtho@cinder@@UAEPAXI@Z 00402170 f i cinder:Camera.obj
 0001:000011a0       ?isPersp@CameraPersp@cinder@@UBE_NXZ 004021a0 f i CinderApp.obj
 0001:000011a0       ?receivesEvents@App@app@cinder@@UBE_NXZ 004021a0 f i CinderApp.obj
 0001:000011a0       ?getsWindowsPaintEvents@AppBasic@app@cinder@@UAE_NXZ 004021a0 f i CinderApp.obj
 0001:000011a0       ?isFilePath@DataSourcePath@cinder@@UAE_NXZ 004021a0 f i cinder:DataSource.obj
 0001:000011b0       ??1CameraOrtho@cinder@@UAE@XZ 004021b0 f i CinderApp.obj
 0001:000011b0       ??1CameraPersp@cinder@@UAE@XZ 004021b0 f i CinderApp.obj
 0001:000011c0       ??0MayaCamUI@cinder@@QAE@XZ 004021c0 f i CinderApp.obj
 0001:00001290       ?mouseDrag@MayaCamUI@cinder@@QAEXABV?$Vec2@H@2@_N11@Z 00402290 f i CinderApp.obj
 0001:00001ef0       ??4Camera@cinder@@QAEAAV01@ABV01@@Z 00402ef0 f i CinderApp.obj
 0001:00002050       ??1Texture@gl@cinder@@QAE@XZ 00403050 f i cinder:gl.obj
 0001:00002050       ??1?$shared_ptr@UObj@?$SurfaceT@E@cinder@@@std@@QAE@XZ 00403050 f i cinder:gl.obj
 0001:00002050       ??1Renderbuffer@gl@cinder@@QAE@XZ 00403050 f i cinder:Fbo.obj
 0001:00002050       ??1GlslProg@gl@cinder@@QAE@XZ 00403050 f i CinderApp.obj
 0001:00002050       ??1?$shared_ptr@VDataTarget@cinder@@@std@@QAE@XZ 00403050 f i CinderApp.obj
 0001:00002050       ??1?$shared_ptr@VComOStream@msw@cinder@@@std@@QAE@XZ 00403050 f i cinder:ImageTargetFileWic.obj
 0001:00002050       ??1?$shared_ptr@UIWICStream@@@std@@QAE@XZ 00403050 f i cinder:ImageSourceFileWic.obj
 0001:00002050       ??1?$shared_ptr@UIWICFormatConverter@@@std@@QAE@XZ 00403050 f i cinder:ImageSourceFileWic.obj
 0001:00002050       ??1?$shared_ptr@VDataSource@cinder@@@std@@QAE@XZ 00403050 f i CinderApp.obj
 0001:00002050       ??1?$shared_ptr@UIWICBitmapFrameEncode@@@std@@QAE@XZ 00403050 f i cinder:ImageTargetFileWic.obj
 0001:00002050       ??1?$shared_ptr@VDisplay@cinder@@@std@@QAE@XZ 00403050 f i CinderApp.obj
 0001:00002050       ??1?$shared_ptr@UIWICBitmapFrameDecode@@@std@@QAE@XZ 00403050 f i cinder:ImageSourceFileWic.obj
 0001:00002050       ??1?$shared_ptr@UObj@GlslProg@gl@cinder@@@std@@QAE@XZ 00403050 f i CinderApp.obj
 0001:00002050       ??1?$shared_ptr@VTimeline@cinder@@@std@@QAE@XZ 00403050 f i cinder:App.obj
 0001:00002050       ??1?$shared_ptr@VImageTarget@cinder@@@std@@QAE@XZ 00403050 f i cinder:Texture.obj
 0001:00002050       ??1Buffer@cinder@@QAE@XZ   00403050 f i cinder:App.obj
 0001:00002050       ??1Fbo@gl@cinder@@QAE@XZ   00403050 f i CinderApp.obj
 0001:00002050       ??1Font@cinder@@QAE@XZ     00403050 f i CinderApp.obj
 0001:00002050       ??1?$shared_ptr@VImageSource@cinder@@@std@@QAE@XZ 00403050 f i cinder:Texture.obj
 0001:00002050       ??1?$shared_ptr@UIWICImagingFactory@@@std@@QAE@XZ 00403050 f i cinder:ImageSourceFileWic.obj
 0001:00002050       ??1?$shared_ptr@VIStream@cinder@@@std@@QAE@XZ 00403050 f i CinderApp.obj
 0001:00002050       ??1?$shared_ptr@D@std@@QAE@XZ 00403050 f i cinder:GlslProg.obj
 0001:00002050       ??1?$shared_ptr@VRenderer@app@cinder@@@std@@QAE@XZ 00403050 f i CinderApp.obj
 0001:00002050       ??1?$shared_ptr@VIStreamFile@cinder@@@std@@QAE@XZ 00403050 f i cinder:DataSource.obj
 0001:00002050       ??1FullScreenOptions@app@cinder@@QAE@XZ 00403050 f i CinderApp.obj
 0001:00002050       ??1?$shared_ptr@VBlankingWindow@app@cinder@@@std@@QAE@XZ 00403050 f i cinder:AppImplMswBasic.obj
 0001:00002050       ??1?$shared_ptr@UIWICBitmapEncoder@@@std@@QAE@XZ 00403050 f i cinder:ImageTargetFileWic.obj
 0001:00002050       ??1?$shared_ptr@UIWICBitmapDecoder@@@std@@QAE@XZ 00403050 f i cinder:ImageSourceFileWic.obj
 0001:00002050       ??1?$shared_ptr@VTimelineItem@cinder@@@std@@QAE@XZ 00403050 f i cinder:Timeline.obj
 0001:00002050       ??1?$shared_ptr@VFont@Gdiplus@@@std@@QAE@XZ 00403050 f i cinder:Font.obj
 0001:00002050       ??1?$shared_ptr@UtagTOUCHINPUT@@@std@@QAE@XZ 00403050 f i cinder:AppImplMsw.obj
 0001:00002050       ??1?$shared_ptr@X@std@@QAE@XZ 00403050 f i cinder:App.obj
 0001:00002050       ??1?$SurfaceT@E@cinder@@QAE@XZ 00403050 f i cinder:gl.obj
 0001:00002050       ??1?$shared_ptr@E@std@@QAE@XZ 00403050 f i cinder:Font.obj
 0001:00002050       ??1?$shared_ptr@VWindow@app@cinder@@@std@@QAE@XZ 00403050 f i CinderApp.obj
 0001:00002050       ??1?$shared_ptr@V?$basic_ostream@DU?$char_traits@D@std@@@std@@@std@@QAE@XZ 00403050 f i cinder:AppBasic.obj
 0001:00002050       ??1?$shared_ptr@Vio_service@asio@boost@@@std@@QAE@XZ 00403050 f i cinder:App.obj
 0001:00002050       ??1?$ChannelT@E@cinder@@QAE@XZ 00403050 f i cinder:Surface.obj
 0001:00002050       ??1?$shared_ptr@UObj@Fbo@gl@cinder@@@std@@QAE@XZ 00403050 f i CinderApp.obj
 0001:00002090       ??1MouseEvent@app@cinder@@UAE@XZ 00403090 f i CinderApp.obj
 0001:00002090       ??1Event@app@cinder@@UAE@XZ 00403090 f i CinderApp.obj
 0001:000020d0       ??_EMouseEvent@app@cinder@@UAEPAXI@Z 004030d0 f i cinder:Window.obj
 0001:000020d0       ??_GEvent@app@cinder@@UAEPAXI@Z 004030d0 f i CinderApp.obj
 0001:000020d0       ??_GMouseEvent@app@cinder@@UAEPAXI@Z 004030d0 f i cinder:Window.obj
 0001:000020d0       ??_EEvent@app@cinder@@UAEPAXI@Z 004030d0 f i * CIL library *:* CIL module *
 0001:00002130       ??1TouchEvent@app@cinder@@UAE@XZ 00403130 f i CinderApp.obj
 0001:00002190       ??1KeyEvent@app@cinder@@UAE@XZ 00403190 f i CinderApp.obj
 0001:00002200       ??1FileDropEvent@app@cinder@@UAE@XZ 00403200 f i CinderApp.obj
 0001:00002270       ?name@_Future_error_category@std@@UBEPBDXZ 00403270 f i CinderApp.obj
 0001:00002280       ?message@_Future_error_category@std@@UBE?AV?$basic_string@DU?$char_traits@D@std@@V?$allocator@D@2@@2@H@Z 00403280 f i CinderApp.obj
 0001:00002310       ?mouseWheel@App@app@cinder@@UAEXVMouseEvent@23@@Z 00403310 f i CinderApp.obj
 0001:00002310       ?mouseMove@App@app@cinder@@UAEXVMouseEvent@23@@Z 00403310 f i cinder:AppBasic.obj
 0001:00002310       ?mouseUp@App@app@cinder@@UAEXVMouseEvent@23@@Z 00403310 f i cinder:AppBasic.obj
 0001:00002310       ?mouseDrag@App@app@cinder@@UAEXVMouseEvent@23@@Z 00403310 f i cinder:AppBasic.obj
 0001:00002310       ?mouseUp@CinderApp@@UAEXVMouseEvent@app@cinder@@@Z 00403310 f i CinderApp.obj
 0001:00002310       ?mouseDown@App@app@cinder@@UAEXVMouseEvent@23@@Z 00403310 f i cinder:AppBasic.obj
 0001:00002350       ?touchesEnded@App@app@cinder@@UAEXVTouchEvent@23@@Z 00403350 f i CinderApp.obj
 0001:00002350       ?touchesMoved@App@app@cinder@@UAEXVTouchEvent@23@@Z 00403350 f i CinderApp.obj
 0001:00002350       ?touchesBegan@App@app@cinder@@UAEXVTouchEvent@23@@Z 00403350 f i CinderApp.obj
 0001:000023c0       ?fileDrop@App@app@cinder@@UAEXVFileDropEvent@23@@Z 004033c0 f i CinderApp.obj
 0001:000023d0       ?enablePowerManagement@App@app@cinder@@UAEX_N@Z 004033d0 f i CinderApp.obj
 0001:000023e0       ?isPowerManagementEnabled@App@app@cinder@@UBE_NXZ 004033e0 f i CinderApp.obj
 0001:000023f0       ?getWindowHeight@App@app@cinder@@QBEHXZ 004033f0 f i CinderApp.obj
 0001:00002480       ?getWindowAspectRatio@App@app@cinder@@QBEMXZ 00403480 f i CinderApp.obj
 0001:00002580       ?getWindowBounds@App@app@cinder@@QBE?AVArea@3@XZ 00403580 f i CinderApp.obj
 0001:00002680       ?setWindowPos@App@app@cinder@@UAEXABV?$Vec2@H@3@@Z 00403680 f i CinderApp.obj
 0001:00002710       ?isFullScreen@App@app@cinder@@QBE_NXZ 00403710 f i CinderApp.obj
 0001:000027a0       ?setFullScreen@App@app@cinder@@QAEX_NABUFullScreenOptions@23@@Z 004037a0 f i CinderApp.obj
 0001:00002830       ?getSettings@AppBasic@app@cinder@@UBEABVSettings@123@XZ 00403830 f i CinderApp.obj
 0001:00002840       ??0Light@gl@cinder@@QAE@HH@Z 00403840 f i CinderApp.obj
 0001:00002910       ?prepareSettings@CinderApp@@UAEXPAVSettings@AppBasic@app@cinder@@@Z 00403910 f   CinderApp.obj
 0001:000029e0       ?setup@CinderApp@@UAEXXZ   004039e0 f   CinderApp.obj
 0001:00002bc0       ?resize@CinderApp@@UAEXXZ  00403bc0 f   CinderApp.obj
 0001:00003600       ??0Camera@cinder@@QAE@ABV01@@Z 00404600 f i CinderApp.obj
 0001:00003760       ?shutdown@CinderApp@@UAEXXZ 00404760 f   CinderApp.obj
 0001:000037f0       ?draw@CinderApp@@UAEXXZ    004047f0 f   CinderApp.obj
 0001:00003940       ?render@CinderApp@@QAEXABVCamera@cinder@@@Z 00404940 f   CinderApp.obj
 0001:00003b10       ??1Light@gl@cinder@@QAE@XZ 00404b10 f i CinderApp.obj
 0001:00003b20       ?mouseMove@CinderApp@@UAEXVMouseEvent@app@cinder@@@Z 00404b20 f   CinderApp.obj
 0001:00003bf0       ?mouseDown@CinderApp@@UAEXVMouseEvent@app@cinder@@@Z 00404bf0 f   CinderApp.obj
 0001:00003d10       ?mouseDrag@CinderApp@@UAEXVMouseEvent@app@cinder@@@Z 00404d10 f   CinderApp.obj
 0001:00003de0       ?keyDown@CinderApp@@UAEXVKeyEvent@app@cinder@@@Z 00404de0 f   CinderApp.obj
 0001:00003f60       ?keyUp@CinderApp@@UAEXVKeyEvent@app@cinder@@@Z 00404f60 f   CinderApp.obj
 0001:00003f60       ?keyUp@App@app@cinder@@UAEXVKeyEvent@23@@Z 00404f60 f   cinder:AppBasic.obj
 0001:00003f60       ?keyDown@App@app@cinder@@UAEXVKeyEvent@23@@Z 00404f60 f   cinder:AppBasic.obj
 0001:00003f70       ?loadShaders@CinderApp@@QAEXXZ 00404f70 f   CinderApp.obj
 0001:00004120       ?initFbo@CinderApp@@QAEXAAVFbo@gl@cinder@@VArea@4@@Z 00405120 f   CinderApp.obj
 0001:00004230       ?drawGrid@CinderApp@@QAEXMM@Z 00405230 f   CinderApp.obj
 0001:00004330       ?newBone@CinderApp@@QAEXV?$Vec3@N@cinder@@PAVBone@@@Z 00405330 f   CinderApp.obj
 0001:00004430       ?getCameraCorrectedPos@CinderApp@@QAE?AV?$Vec3@N@cinder@@XZ 00405430 f   CinderApp.obj
 0001:000048f0       _WinMain@16                004058f0 f   CinderApp.obj
 0001:00004a00       ??0CinderApp@@QAE@XZ       00405a00 f i CinderApp.obj
 0001:00004b90       ??_ECinderApp@@UAEPAXI@Z   00405b90 f i * CIL library *:* CIL module *
 0001:00004b90       ??_GCinderApp@@UAEPAXI@Z   00405b90 f i CinderApp.obj
 0001:00004bc0       ??1MayaCamUI@cinder@@QAE@XZ 00405bc0 f i CinderApp.obj
 0001:00004be0       ??1CinderApp@@UAE@XZ       00405be0 f i CinderApp.obj
 0001:00004dc0       ?c_str@?$basic_string@DU?$char_traits@D@std@@V?$allocator@D@2@@std@@QBEPBDXZ 00405dc0 f i CinderApp.obj
 0001:00004dd0       ?put@?$basic_ostream@DU?$char_traits@D@std@@@std@@QAEAAV12@D@Z 00405dd0 f i CinderApp.obj
 0001:00004f50       ?flush@?$basic_ostream@DU?$char_traits@D@std@@@std@@QAEAAV12@XZ 00405f50 f i CinderApp.obj
 0001:00005020       ??0?$basic_string@_WU?$char_traits@_W@std@@V?$allocator@_W@2@@std@@QAE@ABV01@@Z 00406020 f i CinderApp.obj
 0001:00005050       ??1?$vector@U?$pair@GG@std@@V?$allocator@U?$pair@GG@std@@@2@@std@@QAE@XZ 00406050 f i cinder:Font.obj
 0001:00005050       ??1?$vector@VTouch@TouchEvent@app@cinder@@V?$allocator@VTouch@TouchEvent@app@cinder@@@std@@@std@@QAE@XZ 00406050 f i CinderApp.obj
 0001:00005050       ??1?$vector@DV?$allocator@D@std@@@std@@QAE@XZ 00406050 f i cinder:Utilities.obj
 0001:00005050       ??1?$vector@U?$pair@PAVcondition_variable@boost@@PAVmutex@2@@std@@V?$allocator@U?$pair@PAVcondition_variable@boost@@PAVmutex@2@@std@@@2@@std@@QAE@XZ 00406050 f i libboost_thread-vc110-mt-s-1_53:thread.obj
 0001:00005050       ??1?$vector@IV?$allocator@I@std@@@std@@QAE@XZ 00406050 f i cinder:gl.obj
 0001:00005050       ??1?$vector@_WV?$allocator@_W@std@@@std@@QAE@XZ 00406050 f i cinder:Utilities.obj
 0001:00005050       ?_Tidy@?$vector@VTouch@TouchEvent@app@cinder@@V?$allocator@VTouch@TouchEvent@app@cinder@@@std@@@std@@IAEXXZ 00406050 f i CinderApp.obj
 0001:00005080       ??1?$vector@Vpath@filesystem@boost@@V?$allocator@Vpath@filesystem@boost@@@std@@@std@@QAE@XZ 00406080 f i CinderApp.obj
 0001:00005080       ?_Tidy@?$vector@Vpath@filesystem@boost@@V?$allocator@Vpath@filesystem@boost@@@std@@@std@@IAEXXZ 00406080 f i CinderApp.obj
 0001:000050c0       ?push_back@?$vector@PAVBone@@V?$allocator@PAVBone@@@std@@@std@@QAEXABQAVBone@@@Z 004060c0 f i CinderApp.obj
 0001:00005130       ?_Pnavail@?$basic_streambuf@DU?$char_traits@D@std@@@std@@IBE_JXZ 00406130 f i CinderApp.obj
 0001:00005150       ?assign@?$basic_string@_WU?$char_traits@_W@std@@V?$allocator@_W@2@@std@@QAEAAV12@ABV12@II@Z 00406150 f i CinderApp.obj
 0001:00005270       ?_Eos@?$basic_string@_WU?$char_traits@_W@std@@V?$allocator@_W@2@@std@@QAEXI@Z 00406270 f i CinderApp.obj
 0001:000052a0       ?_Tidy@?$basic_string@_WU?$char_traits@_W@std@@V?$allocator@_W@2@@std@@QAEX_NI@Z 004062a0 f i CinderApp.obj
 0001:000052f0       ?_Myptr@?$_String_val@U?$_Simple_types@_W@std@@@std@@QBEPB_WXZ 004062f0 f i CinderApp.obj
 0001:00005300       ?_Reserve@?$vector@PAVBone@@V?$allocator@PAVBone@@@std@@@std@@IAEXI@Z 00406300 f i CinderApp.obj
 0001:00005370       ??0sentry@?$basic_ostream@DU?$char_traits@D@std@@@std@@QAE@AAV12@@Z 00406370 f i CinderApp.obj
 0001:00005400       ??1sentry@?$basic_ostream@DU?$char_traits@D@std@@@std@@QAE@XZ 00406400 f i CinderApp.obj
 0001:00005430       ?_Osfx@?$basic_ostream@DU?$char_traits@D@std@@@std@@QAEXXZ 00406430 f i CinderApp.obj
 0001:000054c0       ?erase@?$basic_string@_WU?$char_traits@_W@std@@V?$allocator@_W@2@@std@@QAEAAV12@I@Z 004064c0 f i CinderApp.obj
 0001:00005500       ?erase@?$basic_string@_WU?$char_traits@_W@std@@V?$allocator@_W@2@@std@@QAEAAV12@II@Z 00406500 f i CinderApp.obj
 0001:000055b0       ?_Grow@?$basic_string@_WU?$char_traits@_W@std@@V?$allocator@_W@2@@std@@QAE_NI_N@Z 004065b0 f i CinderApp.obj
 0001:00005670       ?_Destroy@?$vector@Vpath@filesystem@boost@@V?$allocator@Vpath@filesystem@boost@@@std@@@std@@IAEXPAVpath@filesystem@boost@@0@Z 00406670 f i CinderApp.obj
 0001:000056b0       ?_Reallocate@?$vector@PAVBone@@V?$allocator@PAVBone@@@std@@@std@@IAEXI@Z 004066b0 f i CinderApp.obj
 0001:000056b0       ?_Reallocate@?$vector@IV?$allocator@I@std@@@std@@IAEXI@Z 004066b0 f i cinder:ObjLoader.obj
 0001:00005730       ??1_Sentry_base@?$basic_ostream@DU?$char_traits@D@std@@@std@@QAE@XZ 00406730 f i CinderApp.obj
 0001:00005750       ?_Copy@?$basic_string@_WU?$char_traits@_W@std@@V?$allocator@_W@2@@std@@QAEXII@Z 00406750 f i CinderApp.obj
 0001:000058b0       ?allocate@?$_Wrap_alloc@V?$allocator@_W@std@@@std@@QAEPA_WI@Z 004068b0 f i CinderApp.obj
 0001:000058e0       ??$?0V?$basic_string@DU?$char_traits@D@std@@V?$allocator@D@2@@std@@@path@filesystem@boost@@QAE@ABV?$basic_string@DU?$char_traits@D@std@@V?$allocator@D@2@@std@@PAX@Z 004068e0 f i CinderApp.obj
 0001:00005970       ??$?6U?$char_traits@D@std@@@std@@YAAAV?$basic_ostream@DU?$char_traits@D@std@@@0@AAV10@PBD@Z 00406970 f i CinderApp.obj
 0001:00005c20       ??$?0$$BY0O@$$CBD@path@filesystem@boost@@QAE@AAY0O@$$CBDPAX@Z 00406c20 f i CinderApp.obj
 0001:00005cf0       ??$?0$$BY0BN@$$CBD@path@filesystem@boost@@QAE@AAY0BN@$$CBDPAX@Z 00406cf0 f i CinderApp.obj
 0001:00005dd0       ??$_Reset@VRenderer@app@cinder@@@?$_Ptr_base@VRenderer@app@cinder@@@std@@QAEXABV01@@Z 00406dd0 f i CinderApp.obj
 0001:00005dd0       ??$_Reset@UObj@Buffer@cinder@@@?$_Ptr_base@UObj@Buffer@cinder@@@std@@QAEXABV01@@Z 00406dd0 f i cinder:GlslProg.obj
 0001:00005dd0       ??$_Reset@VDisplay@cinder@@@?$_Ptr_base@VDisplay@cinder@@@std@@QAEXABV01@@Z 00406dd0 f i cinder:AppBasic.obj
 0001:00005dd0       ??$_Reset@VWindow@app@cinder@@@?$_Ptr_base@VWindow@app@cinder@@@std@@QAEXABV01@@Z 00406dd0 f i cinder:Window.obj
 0001:00005dd0       ??$_Reset@UObj@Texture@gl@cinder@@@?$_Ptr_base@UObj@Texture@gl@cinder@@@std@@QAEXABV01@@Z 00406dd0 f i cinder:Fbo.obj
 0001:00005e40       ?sputn@?$basic_streambuf@DU?$char_traits@D@std@@@std@@QAE_JPBD_J@Z 00406e40 f i CinderApp.obj
 0001:00005e60       ??$_Resetp@VRendererGl@app@cinder@@@?$shared_ptr@VRenderer@app@cinder@@@std@@AAEXPAVRendererGl@app@cinder@@@Z 00406e60 f i CinderApp.obj
 0001:00005f30       ??$_Destroy_range@U?$_Wrap_alloc@V?$allocator@Vpath@filesystem@boost@@@std@@@std@@@std@@YAXPAVpath@filesystem@boost@@0AAU?$_Wrap_alloc@V?$allocator@Vpath@filesystem@boost@@@std@@@0@U_Nonscalar_ptr_iterator_tag@0@@Z 00406f30 f i CinderApp.obj
 0001:00005f70       ?dispose@?$sp_counted_impl_p@V?$clone_impl@Ubad_alloc_@exception_detail@boost@@@exception_detail@boost@@@detail@boost@@UAEXXZ 00406f70 f i libboost_thread-vc110-mt-s-1_53:thread.obj
 0001:00005f70       ?dispose@?$sp_counted_impl_p@V?$clone_impl@Ubad_exception_@exception_detail@boost@@@exception_detail@boost@@@detail@boost@@UAEXXZ 00406f70 f i libboost_thread-vc110-mt-s-1_53:thread.obj
 0001:00005f70       ?_Destroy@?$_Ref_count@VRendererGl@app@cinder@@@std@@EAEXXZ 00406f70 f i CinderApp.obj
 0001:00005f70       ?_Destroy@?$_Ref_count@VTimeline@cinder@@@std@@EAEXXZ 00406f70 f i cinder:App.obj
 0001:00005f80       ?_Delete_this@?$_Ref_count@VFont@Gdiplus@@@std@@EAEXXZ 00406f80 f i cinder:Font.obj
 0001:00005f80       ?_Delete_this@?$_Ref_count@UObj@GlslProg@gl@cinder@@@std@@EAEXXZ 00406f80 f i cinder:GlslProg.obj
 0001:00005f80       ?_Delete_this@?$_Ref_count_del@V?$basic_ostream@DU?$char_traits@D@std@@@std@@V<lambda_69588d13dcacf0fdf4c116f96accf98f>@@@std@@EAEXXZ 00406f80 f i cinder:AppBasic.obj
 0001:00005f80       ?_Delete_this@?$_Ref_count@V?$basic_dostream@DU?$char_traits@D@std@@@msw@cinder@@@std@@EAEXXZ 00406f80 f i cinder:App.obj
 0001:00005f80       ?_Delete_this@?$_Ref_count_del@VComOStream@msw@cinder@@P6AXPAX@Z@std@@EAEXXZ 00406f80 f i cinder:ImageTargetFileWic.obj
 0001:00005f80       ?_Delete_this@?$_Ref_count@VObj@Font@cinder@@@std@@EAEXXZ 00406f80 f i cinder:Font.obj
 0001:00005f80       ?_Delete_this@?$_Ref_count@VDataSourcePath@cinder@@@std@@EAEXXZ 00406f80 f i cinder:DataSource.obj
 0001:00005f80       ?_Delete_this@?$_Ref_count@VTimeline@cinder@@@std@@EAEXXZ 00406f80 f i cinder:App.obj
 0001:00005f80       ?_Delete_this@?$_Ref_count@V?$map@V?$basic_string@DU?$char_traits@D@std@@V?$allocator@D@2@@std@@PBU_GUID@@U?$less@V?$basic_string@DU?$char_traits@D@std@@V?$allocator@D@2@@std@@@2@V?$allocator@U?$pair@$$CBV?$basic_string@DU?$char_traits@D@std@@V?$allocator@D@2@@std@@PBU_GUID@@@std@@@2@@std@@@std@@EAEXXZ 00406f80 f i cinder:ImageTargetFileWic.obj
 0001:00005f80       ?_Delete_this@?$_Ref_count_del@UIWICBitmapEncoder@@P6AXPAX@Z@std@@EAEXXZ 00406f80 f i cinder:ImageTargetFileWic.obj
 0001:00005f80       ?_Delete_this@?$_Ref_count@VImageTargetFileWic@cinder@@@std@@EAEXXZ 00406f80 f i cinder:ImageTargetFileWic.obj
 0001:00005f80       ?_Delete_this@?$_Ref_count_del@UIWICBitmapFrameEncode@@P6AXPAX@Z@std@@EAEXXZ 00406f80 f i cinder:ImageTargetFileWic.obj
 0001:00005f80       ?_Delete_this@?$_Ref_count@VImageSourceFileWic@cinder@@@std@@EAEXXZ 00406f80 f i cinder:ImageSourceFileWic.obj
 0001:00005f80       ?_Delete_this@?$_Ref_count@UObj@Texture@gl@cinder@@@std@@EAEXXZ 00406f80 f i cinder:Texture.obj
 0001:00005f80       ?_Delete_this@?$_Ref_count@UObj@Fbo@gl@cinder@@@std@@EAEXXZ 00406f80 f i cinder:Fbo.obj
 0001:00005f80       ?_Delete_this@?$_Ref_count@VRendererGl@app@cinder@@@std@@EAEXXZ 00406f80 f i CinderApp.obj
 0001:00005f80       ?_Delete_this@?$_Ref_count@VBlankingWindow@app@cinder@@@std@@EAEXXZ 00406f80 f i cinder:AppImplMswBasic.obj
 0001:00005f80       ?_Delete_this@?$_Ref_count_del@DU?$checked_array_deleter@D@boost@@@std@@EAEXXZ 00406f80 f i cinder:GlslProg.obj
 0001:00005f80       ?_Delete_this@?$_Ref_count_del@UIWICBitmapDecoder@@P6AXPAX@Z@std@@EAEXXZ 00406f80 f i cinder:ImageSourceFileWic.obj
 0001:00005f80       ?_Delete_this@?$_Ref_count_del@EP6AXPAE@Z@std@@EAEXXZ 00406f80 f i cinder:Texture.obj
 0001:00005f80       ?_Delete_this@?$_Ref_count@UObj@?$SurfaceT@E@cinder@@@std@@EAEXXZ 00406f80 f i cinder:Surface.obj
 0001:00005f80       ?_Delete_this@?$_Ref_count_del@UtagTOUCHINPUT@@U?$checked_array_deleter@UtagTOUCHINPUT@@@boost@@@std@@EAEXXZ 00406f80 f i cinder:AppImplMsw.obj
 0001:00005f80       ?_Delete_this@?$_Ref_count_del@UIWICBitmapFrameDecode@@P6AXPAX@Z@std@@EAEXXZ 00406f80 f i cinder:ImageSourceFileWic.obj
 0001:00005f80       ?_Delete_this@?$_Ref_count_del@UIWICStream@@P6AXPAX@Z@std@@EAEXXZ 00406f80 f i cinder:ImageSourceFileWic.obj
 0001:00005f80       ?_Delete_this@?$_Ref_count@UObj@?$ChannelT@E@cinder@@@std@@EAEXXZ 00406f80 f i cinder:Channel.obj
 0001:00005f80       ?_Delete_this@?$_Ref_count_del@XP6AXPAX@Z@std@@EAEXXZ 00406f80 f i cinder:Font.obj
 0001:00005f80       ?_Delete_this@?$_Ref_count_del@UIWICImagingFactory@@P6AXPAX@Z@std@@EAEXXZ 00406f80 f i cinder:ImageSourceFileWic.obj
 0001:00005f80       ?_Delete_this@?$_Ref_count@VIStreamFile@cinder@@@std@@EAEXXZ 00406f80 f i cinder:Stream.obj
 0001:00005f80       ?_Delete_this@?$_Ref_count@UObj@Renderbuffer@gl@cinder@@@std@@EAEXXZ 00406f80 f i cinder:Fbo.obj
 0001:00005f80       ?_Delete_this@?$_Ref_count@UInst@ImageIoRegistrar@cinder@@@std@@EAEXXZ 00406f80 f i cinder:ImageIo.obj
 0001:00005f80       ?_Delete_this@?$_Ref_count_del@UIWICFormatConverter@@P6AXPAX@Z@std@@EAEXXZ 00406f80 f i cinder:ImageSourceFileWic.obj
 0001:00005f80       ?_Delete_this@?$_Ref_count@UObj@Buffer@cinder@@@std@@EAEXXZ 00406f80 f i cinder:Buffer.obj
 0001:00005f80       ?_Delete_this@?$_Ref_count@VWindow@app@cinder@@@std@@EAEXXZ 00406f80 f i cinder:AppImplMsw.obj
 0001:00005f80       ?_Delete_this@?$_Ref_count@VDisplay@cinder@@@std@@EAEXXZ 00406f80 f i cinder:Display.obj
 0001:00005f80       ?_Delete_this@?$_Ref_count_del@EU?$checked_array_deleter@E@boost@@@std@@EAEXXZ 00406f80 f i cinder:Font.obj
 0001:00005f80       ?_Delete_this@?$_Ref_count@Vwork@io_service@asio@boost@@@std@@EAEXXZ 00406f80 f i cinder:App.obj
 0001:00005f80       ?_Delete_this@?$_Ref_count@Vio_service@asio@boost@@@std@@EAEXXZ 00406f80 f i cinder:App.obj
 0001:00005f90       ??$destroy@Vpath@filesystem@boost@@@?$_Wrap_alloc@V?$allocator@Vpath@filesystem@boost@@@std@@@std@@QAEXPAVpath@filesystem@boost@@@Z 00406f90 f i CinderApp.obj
 0001:00005fc0       ??$?0V?$basic_string@DU?$char_traits@D@std@@V?$allocator@D@2@@std@@_N@?$pair@$$CBV?$basic_string@DU?$char_traits@D@std@@V?$allocator@D@2@@std@@_N@std@@QAE@$$QAU?$pair@V?$basic_string@DU?$char_traits@D@std@@V?$allocator@D@2@@std@@_N@1@PAPAX@Z 00406fc0 f i cinder:gl.obj
 0001:00006030       ??$_Buynode@U?$pair@V?$basic_string@DU?$char_traits@D@std@@V?$allocator@D@2@@std@@_N@std@@@?$_Tree_buy@U?$pair@$$CBV?$basic_string@DU?$char_traits@D@std@@V?$allocator@D@2@@std@@_N@std@@V?$allocator@U?$pair@$$CBV?$basic_string@DU?$char_traits@D@std@@V?$allocator@D@2@@std@@_N@std@@@2@@std@@QAEPAU?$_Tree_node@U?$pair@$$CBV?$basic_string@DU?$char_traits@D@std@@V?$allocator@D@2@@std@@_N@std@@PAX@1@$$QAU?$pair@V?$basic_string@DU?$char_traits@D@std@@V?$allocator@D@2@@std@@_N@1@@Z 00407030 f i cinder:gl.obj
 0001:00006060       ??0?$basic_string@DU?$char_traits@D@std@@V?$allocator@D@2@@std@@QAE@$$QAV01@@Z 00407060 f i cinder:gl.obj
 0001:000060d0       ??0?$basic_string@DU?$char_traits@D@std@@V?$allocator@D@2@@std@@QAE@ABV01@@Z 004070d0 f i cinder:gl.obj
 0001:00006100       ??0Exception@cinder@@QAE@ABV01@@Z 00407100 f i cinder:gl.obj
 0001:00006120       ??0Exception@gl@cinder@@QAE@ABV012@@Z 00407120 f i cinder:gl.obj
 0001:00006140       ??0ExceptionUnknownTarget@gl@cinder@@QAE@ABV012@@Z 00407140 f i cinder:gl.obj
 0001:00006160       ??0SaveFramebufferBinding@gl@cinder@@QAE@XZ 00407160 f   cinder:gl.obj
 0001:00006180       ??0SaveTextureBindState@gl@cinder@@QAE@H@Z 00407180 f   cinder:gl.obj
 0001:00006240       ??1BoolState@gl@cinder@@QAE@XZ 00407240 f   cinder:gl.obj
 0001:00006260       ??1ClientBoolState@gl@cinder@@QAE@XZ 00407260 f   cinder:gl.obj
 0001:00006280       ??1SaveFramebufferBinding@gl@cinder@@QAE@XZ 00407280 f   cinder:gl.obj
 0001:00006290       ??1SaveTextureBindState@gl@cinder@@QAE@XZ 00407290 f   cinder:gl.obj
 0001:000062a0       ??A?$map@V?$basic_string@DU?$char_traits@D@std@@V?$allocator@D@2@@std@@_NU?$less@V?$basic_string@DU?$char_traits@D@std@@V?$allocator@D@2@@std@@@2@V?$allocator@U?$pair@$$CBV?$basic_string@DU?$char_traits@D@std@@V?$allocator@D@2@@std@@_N@std@@@2@@std@@QAEAA_NABV?$basic_string@DU?$char_traits@D@std@@V?$allocator@D@2@@1@@Z 004072a0 f i cinder:gl.obj
 0001:00006380       ??R?$less@V?$basic_string@DU?$char_traits@D@std@@V?$allocator@D@2@@std@@@std@@QBE_NABV?$basic_string@DU?$char_traits@D@std@@V?$allocator@D@2@@1@0@Z 00407380 f i cinder:gl.obj
 0001:000063b0       ?_Assign_rv@?$basic_string@DU?$char_traits@D@std@@V?$allocator@D@2@@std@@QAEX$$QAV12@@Z 004073b0 f i cinder:gl.obj
 0001:00006410       ?_Buynode0@?$_Tree_buy@U?$pair@$$CBV?$basic_string@DU?$char_traits@D@std@@V?$allocator@D@2@@std@@PBU_GUID@@@std@@V?$allocator@U?$pair@$$CBV?$basic_string@DU?$char_traits@D@std@@V?$allocator@D@2@@std@@PBU_GUID@@@std@@@2@@std@@QAEPAU?$_Tree_node@U?$pair@$$CBV?$basic_string@DU?$char_traits@D@std@@V?$allocator@D@2@@std@@PBU_GUID@@@std@@PAX@2@XZ 00407410 f i cinder:ImageTargetFileWic.obj
 0001:00006410       ?_Buynode0@?$_Tree_buy@U?$pair@$$CBV?$basic_string@DU?$char_traits@D@std@@V?$allocator@D@2@@std@@_N@std@@V?$allocator@U?$pair@$$CBV?$basic_string@DU?$char_traits@D@std@@V?$allocator@D@2@@std@@_N@std@@@2@@std@@QAEPAU?$_Tree_node@U?$pair@$$CBV?$basic_string@DU?$char_traits@D@std@@V?$allocator@D@2@@std@@_N@std@@PAX@2@XZ 00407410 f i cinder:gl.obj
 0001:00006450       ?_Erase@?$_Tree@V?$_Tmap_traits@V?$basic_string@DU?$char_traits@D@std@@V?$allocator@D@2@@std@@PBU_GUID@@U?$less@V?$basic_string@DU?$char_traits@D@std@@V?$allocator@D@2@@std@@@2@V?$allocator@U?$pair@$$CBV?$basic_string@DU?$char_traits@D@std@@V?$allocator@D@2@@std@@PBU_GUID@@@std@@@2@$0A@@std@@@std@@IAEXPAU?$_Tree_node@U?$pair@$$CBV?$basic_string@DU?$char_traits@D@std@@V?$allocator@D@2@@std@@PBU_GUID@@@std@@PAX@2@@Z 00407450 f i cinder:ImageTargetFileWic.obj
 0001:00006450       ?_Erase@?$_Tree@V?$_Tmap_traits@V?$basic_string@DU?$char_traits@D@std@@V?$allocator@D@2@@std@@HU?$less@V?$basic_string@DU?$char_traits@D@std@@V?$allocator@D@2@@std@@@2@V?$allocator@U?$pair@$$CBV?$basic_string@DU?$char_traits@D@std@@V?$allocator@D@2@@std@@H@std@@@2@$0A@@std@@@std@@IAEXPAU?$_Tree_node@U?$pair@$$CBV?$basic_string@DU?$char_traits@D@std@@V?$allocator@D@2@@std@@H@std@@PAX@2@@Z 00407450 f i cinder:GlslProg.obj
 0001:00006450       ?_Erase@?$_Tree@V?$_Tmap_traits@V?$basic_string@DU?$char_traits@D@std@@V?$allocator@D@2@@std@@_NU?$less@V?$basic_string@DU?$char_traits@D@std@@V?$allocator@D@2@@std@@@2@V?$allocator@U?$pair@$$CBV?$basic_string@DU?$char_traits@D@std@@V?$allocator@D@2@@std@@_N@std@@@2@$0A@@std@@@std@@IAEXPAU?$_Tree_node@U?$pair@$$CBV?$basic_string@DU?$char_traits@D@std@@V?$allocator@D@2@@std@@_N@std@@PAX@2@@Z 00407450 f i cinder:gl.obj
 0001:000064b0       ?clear@gl@cinder@@YAXABV?$ColorAT@M@2@_N@Z 004074b0 f   cinder:gl.obj
 0001:00006520       ?compare@?$basic_string@DU?$char_traits@D@std@@V?$allocator@D@2@@std@@QBEHIIPBDI@Z 00407520 f i cinder:gl.obj
 0001:00006590       ?compare@?$char_traits@D@std@@SAHPBD0I@Z 00407590 f i cinder:gl.obj
 0001:00006600       ?disableWireframe@gl@cinder@@YAXXZ 00407600 f   cinder:gl.obj
 0001:00006620       ?draw@gl@cinder@@YAXABVTexture@12@ABV?$RectT@M@2@@Z 00407620 f   cinder:gl.obj
 0001:00006660       ?draw@gl@cinder@@YAXABVTexture@12@ABVArea@2@ABV?$RectT@M@2@@Z 00407660 f   cinder:gl.obj
 0001:00006820       ?drawLine@gl@cinder@@YAXABV?$Vec3@M@2@0@Z 00407820 f   cinder:gl.obj
 0001:000068c0       ?drawSolidTriangle@gl@cinder@@YAXABV?$Vec2@M@2@00@Z 004078c0 f   cinder:gl.obj
 0001:00006960       ?drawStrokedRect@gl@cinder@@YAXABV?$RectT@M@2@@Z 00407960 f   cinder:gl.obj
 0001:00006a00       ?enableDepthRead@gl@cinder@@YAX_N@Z 00407a00 f   cinder:gl.obj
 0001:00006a20       ?enableDepthWrite@gl@cinder@@YAX_N@Z 00407a20 f   cinder:gl.obj
 0001:00006a40       ?enableVerticalSync@gl@cinder@@YAX_N@Z 00407a40 f   cinder:gl.obj
 0001:00006a60       ?enableWireframe@gl@cinder@@YAXXZ 00407a60 f   cinder:gl.obj
 0001:00006a80       ?erase@?$_Tree@V?$_Tmap_traits@V?$basic_string@DU?$char_traits@D@std@@V?$allocator@D@2@@std@@HU?$less@V?$basic_string@DU?$char_traits@D@std@@V?$allocator@D@2@@std@@@2@V?$allocator@U?$pair@$$CBV?$basic_string@DU?$char_traits@D@std@@V?$allocator@D@2@@std@@H@std@@@2@$0A@@std@@@std@@QAE?AV?$_Tree_iterator@V?$_Tree_val@U?$_Tree_simple_types@U?$pair@$$CBV?$basic_string@DU?$char_traits@D@std@@V?$allocator@D@2@@std@@H@std@@@std@@@std@@@2@V?$_Tree_const_iterator@V?$_Tree_val@U?$_Tree_simple_types@U?$pair@$$CBV?$basic_string@DU?$char_traits@D@std@@V?$allocator@D@2@@std@@H@std@@@std@@@std@@@2@0@Z 00407a80 f i cinder:GlslProg.obj
 0001:00006a80       ?erase@?$_Tree@V?$_Tmap_traits@V?$basic_string@DU?$char_traits@D@std@@V?$allocator@D@2@@std@@_NU?$less@V?$basic_string@DU?$char_traits@D@std@@V?$allocator@D@2@@std@@@2@V?$allocator@U?$pair@$$CBV?$basic_string@DU?$char_traits@D@std@@V?$allocator@D@2@@std@@_N@std@@@2@$0A@@std@@@std@@QAE?AV?$_Tree_iterator@V?$_Tree_val@U?$_Tree_simple_types@U?$pair@$$CBV?$basic_string@DU?$char_traits@D@std@@V?$allocator@D@2@@std@@_N@std@@@std@@@std@@@2@V?$_Tree_const_iterator@V?$_Tree_val@U?$_Tree_simple_types@U?$pair@$$CBV?$basic_string@DU?$char_traits@D@std@@V?$allocator@D@2@@std@@_N@std@@@std@@@std@@@2@0@Z 00407a80 f i cinder:gl.obj
 0001:00006a80       ?erase@?$_Tree@V?$_Tmap_traits@V?$basic_string@DU?$char_traits@D@std@@V?$allocator@D@2@@std@@PBU_GUID@@U?$less@V?$basic_string@DU?$char_traits@D@std@@V?$allocator@D@2@@std@@@2@V?$allocator@U?$pair@$$CBV?$basic_string@DU?$char_traits@D@std@@V?$allocator@D@2@@std@@PBU_GUID@@@std@@@2@$0A@@std@@@std@@QAE?AV?$_Tree_iterator@V?$_Tree_val@U?$_Tree_simple_types@U?$pair@$$CBV?$basic_string@DU?$char_traits@D@std@@V?$allocator@D@2@@std@@PBU_GUID@@@std@@@std@@@std@@@2@V?$_Tree_const_iterator@V?$_Tree_val@U?$_Tree_simple_types@U?$pair@$$CBV?$basic_string@DU?$char_traits@D@std@@V?$allocator@D@2@@std@@PBU_GUID@@@std@@@std@@@std@@@2@0@Z 00407a80 f i cinder:ImageTargetFileWic.obj
 0001:00006b40       ?erase@?$_Tree@V?$_Tmap_traits@V?$basic_string@DU?$char_traits@D@std@@V?$allocator@D@2@@std@@PBU_GUID@@U?$less@V?$basic_string@DU?$char_traits@D@std@@V?$allocator@D@2@@std@@@2@V?$allocator@U?$pair@$$CBV?$basic_string@DU?$char_traits@D@std@@V?$allocator@D@2@@std@@PBU_GUID@@@std@@@2@$0A@@std@@@std@@QAE?AV?$_Tree_iterator@V?$_Tree_val@U?$_Tree_simple_types@U?$pair@$$CBV?$basic_string@DU?$char_traits@D@std@@V?$allocator@D@2@@std@@PBU_GUID@@@std@@@std@@@std@@@2@V?$_Tree_const_iterator@V?$_Tree_val@U?$_Tree_simple_types@U?$pair@$$CBV?$basic_string@DU?$char_traits@D@std@@V?$allocator@D@2@@std@@PBU_GUID@@@std@@@std@@@std@@@2@@Z 00407b40 f i cinder:ImageTargetFileWic.obj
 0001:00006b40       ?erase@?$_Tree@V?$_Tmap_traits@V?$basic_string@DU?$char_traits@D@std@@V?$allocator@D@2@@std@@_NU?$less@V?$basic_string@DU?$char_traits@D@std@@V?$allocator@D@2@@std@@@2@V?$allocator@U?$pair@$$CBV?$basic_string@DU?$char_traits@D@std@@V?$allocator@D@2@@std@@_N@std@@@2@$0A@@std@@@std@@QAE?AV?$_Tree_iterator@V?$_Tree_val@U?$_Tree_simple_types@U?$pair@$$CBV?$basic_string@DU?$char_traits@D@std@@V?$allocator@D@2@@std@@_N@std@@@std@@@std@@@2@V?$_Tree_const_iterator@V?$_Tree_val@U?$_Tree_simple_types@U?$pair@$$CBV?$basic_string@DU?$char_traits@D@std@@V?$allocator@D@2@@std@@_N@std@@@std@@@std@@@2@@Z 00407b40 f i cinder:gl.obj
 0001:00006b40       ?erase@?$_Tree@V?$_Tmap_traits@V?$basic_string@DU?$char_traits@D@std@@V?$allocator@D@2@@std@@HU?$less@V?$basic_string@DU?$char_traits@D@std@@V?$allocator@D@2@@std@@@2@V?$allocator@U?$pair@$$CBV?$basic_string@DU?$char_traits@D@std@@V?$allocator@D@2@@std@@H@std@@@2@$0A@@std@@@std@@QAE?AV?$_Tree_iterator@V?$_Tree_val@U?$_Tree_simple_types@U?$pair@$$CBV?$basic_string@DU?$char_traits@D@std@@V?$allocator@D@2@@std@@H@std@@@std@@@std@@@2@V?$_Tree_const_iterator@V?$_Tree_val@U?$_Tree_simple_types@U?$pair@$$CBV?$basic_string@DU?$char_traits@D@std@@V?$allocator@D@2@@std@@H@std@@@std@@@std@@@2@@Z 00407b40 f i cinder:GlslProg.obj
 0001:00006df0       ?isExtensionAvailable@gl@cinder@@YA_NABV?$basic_string@DU?$char_traits@D@std@@V?$allocator@D@2@@std@@@Z 00407df0 f   cinder:gl.obj
 0001:00006f90       ?isVerticalSyncEnabled@gl@cinder@@YA_NXZ 00407f90 f   cinder:gl.obj
 0001:00006fa0       ?popMatrices@gl@cinder@@YAXXZ 00407fa0 f   cinder:gl.obj
 0001:00006fd0       ?popModelView@gl@cinder@@YAXXZ 00407fd0 f   cinder:gl.obj
 0001:00006ff0       ?pushMatrices@gl@cinder@@YAXXZ 00407ff0 f   cinder:gl.obj
 0001:00007020       ?pushModelView@gl@cinder@@YAXXZ 00408020 f   cinder:gl.obj
 0001:00007040       ?rotate@gl@cinder@@YAXABV?$Quaternion@M@2@@Z 00408040 f   cinder:gl.obj
 0001:00007100       ?rotate@gl@cinder@@YAXABV?$Vec3@M@2@@Z 00408100 f   cinder:gl.obj
 0001:00007190       ?setMatrices@gl@cinder@@YAXABVCamera@2@@Z 00408190 f   cinder:gl.obj
 0001:000071d0       ?setToIdentity@?$Matrix44@M@cinder@@QAEXXZ 004081d0 f i cinder:gl.obj
 0001:00007240       ?translate@gl@cinder@@YAXABV?$Vec3@M@2@@Z 00408240 f   cinder:gl.obj
 0001:00007270       ??0?$RectT@M@cinder@@QAE@ABVArea@1@@Z 00408270 f i cinder:Rect.obj
 0001:000072c0       ?set@?$RectT@M@cinder@@QAEXMMMM@Z 004082c0 f i cinder:Rect.obj
 0001:000072f0       ??$_Resetp@VRendererGl@app@cinder@@@?$shared_ptr@VRendererGl@app@cinder@@@std@@AAEXPAVRendererGl@app@cinder@@@Z 004082f0 f i cinder:Renderer.obj
 0001:000073c0       ??0RendererGl@app@cinder@@QAE@H@Z 004083c0 f   cinder:Renderer.obj
 0001:000073f0       ??_ERenderer@app@cinder@@UAEPAXI@Z 004083f0 f i cinder:Renderer.obj
 0001:000073f0       ??_GRenderer@app@cinder@@UAEPAXI@Z 004083f0 f i cinder:Renderer.obj
 0001:00007420       ??_ERendererGl@app@cinder@@UAEPAXI@Z 00408420 f i cinder:Renderer.obj
 0001:00007420       ??_GRendererGl@app@cinder@@UAEPAXI@Z 00408420 f i cinder:Renderer.obj
 0001:00007460       ?clone@RendererGl@app@cinder@@UBE?AV?$shared_ptr@VRenderer@app@cinder@@@std@@XZ 00408460 f i cinder:Renderer.obj
 0001:000074e0       ?copyWindowSurface@RendererGl@app@cinder@@UAE?AV?$SurfaceT@E@3@ABVArea@3@@Z 004084e0 f   cinder:Renderer.obj
 0001:000076a0       ?defaultResize@RendererGl@app@cinder@@UAEXXZ 004086a0 f   cinder:Renderer.obj
 0001:000076b0       ?finishDraw@RendererGl@app@cinder@@UAEXXZ 004086b0 f   cinder:Renderer.obj
 0001:000076c0       ?finishToggleFullScreen@RendererGl@app@cinder@@UAEXXZ 004086c0 f   cinder:Renderer.obj
 0001:000076d0       ?kill@RendererGl@app@cinder@@UAEXXZ 004086d0 f   cinder:Renderer.obj
 0001:000076e0       ?prepareToggleFullScreen@RendererGl@app@cinder@@UAEXXZ 004086e0 f   cinder:Renderer.obj
 0001:000076f0       ?setAntiAliasing@RendererGl@app@cinder@@QAEXH@Z 004086f0 f   cinder:Renderer.obj
 0001:00007700       ?setup@RendererGl@app@cinder@@UAEXPAVApp@23@PAUHWND__@@PAUHDC__@@V?$shared_ptr@VRenderer@app@cinder@@@std@@@Z 00408700 f   cinder:Renderer.obj
 0001:00007830       ?makeCurrentContext@RendererGl@app@cinder@@UAEXXZ 00408830 f   cinder:Renderer.obj
 0001:00007830       ?startDraw@RendererGl@app@cinder@@UAEXXZ 00408830 f   cinder:Renderer.obj
 0001:00007840       ??$?0U?$EventCombiner@VFileDropEvent@app@cinder@@@app@cinder@@@?$shared_ptr@U?$EventCombiner@VFileDropEvent@app@cinder@@@app@cinder@@@boost@@QAE@PAU?$EventCombiner@VFileDropEvent@app@cinder@@@app@cinder@@@Z 00408840 f i cinder:Window.obj
 0001:000078f0       ??$?0U?$EventCombiner@VFileDropEvent@app@cinder@@@app@cinder@@@shared_count@detail@boost@@QAE@PAU?$EventCombiner@VFileDropEvent@app@cinder@@@app@cinder@@@Z 004088f0 f i cinder:Window.obj
 0001:00007990       ??$?0U?$EventCombiner@VKeyEvent@app@cinder@@@app@cinder@@@?$shared_ptr@U?$EventCombiner@VKeyEvent@app@cinder@@@app@cinder@@@boost@@QAE@PAU?$EventCombiner@VKeyEvent@app@cinder@@@app@cinder@@@Z 00408990 f i cinder:Window.obj
 0001:00007a40       ??$?0U?$EventCombiner@VKeyEvent@app@cinder@@@app@cinder@@@shared_count@detail@boost@@QAE@PAU?$EventCombiner@VKeyEvent@app@cinder@@@app@cinder@@@Z 00408a40 f i cinder:Window.obj
 0001:00007ae0       ??$?0U?$EventCombiner@VMouseEvent@app@cinder@@@app@cinder@@@?$shared_ptr@U?$EventCombiner@VMouseEvent@app@cinder@@@app@cinder@@@boost@@QAE@PAU?$EventCombiner@VMouseEvent@app@cinder@@@app@cinder@@@Z 00408ae0 f i cinder:Window.obj
 0001:00007b90       ??$?0U?$EventCombiner@VMouseEvent@app@cinder@@@app@cinder@@@shared_count@detail@boost@@QAE@PAU?$EventCombiner@VMouseEvent@app@cinder@@@app@cinder@@@Z 00408b90 f i cinder:Window.obj
 0001:00007c30       ??$?0U?$EventCombiner@VTouchEvent@app@cinder@@@app@cinder@@@?$shared_ptr@U?$EventCombiner@VTouchEvent@app@cinder@@@app@cinder@@@boost@@QAE@PAU?$EventCombiner@VTouchEvent@app@cinder@@@app@cinder@@@Z 00408c30 f i cinder:Window.obj
 0001:00007ce0       ??$?0U?$EventCombiner@VTouchEvent@app@cinder@@@app@cinder@@@shared_count@detail@boost@@QAE@PAU?$EventCombiner@VTouchEvent@app@cinder@@@app@cinder@@@Z 00408ce0 f i cinder:Window.obj
 0001:00007d80       ??$?0V?$grouped_list@HU?$less@H@std@@V?$shared_ptr@V?$connection_body@U?$pair@W4slot_meta_group@detail@signals2@boost@@V?$optional@H@4@@std@@V?$slot0@XV?$function@$$A6AXXZ@boost@@@signals2@boost@@Vmutex@45@@detail@signals2@boost@@@boost@@@detail@signals2@boost@@@?$shared_ptr@V?$grouped_list@HU?$less@H@std@@V?$shared_ptr@V?$connection_body@U?$pair@W4slot_meta_group@detail@signals2@boost@@V?$optional@H@4@@std@@V?$slot0@XV?$function@$$A6AXXZ@boost@@@signals2@boost@@Vmutex@45@@detail@signals2@boost@@@boost@@@detail@signals2@boost@@@boost@@QAE@PAV?$grouped_list@HU?$less@H@std@@V?$shared_ptr@V?$connection_body@U?$pair@W4slot_meta_group@detail@signals2@boost@@V?$optional@H@4@@std@@V?$slot0@XV?$function@$$A6AXXZ@boost@@@signals2@boost@@Vmutex@45@@detail@signals2@boost@@@boost@@@detail@signals2@1@@Z 00408d80 f i cinder:Window.obj
 0001:00007e30       ??$?0V?$grouped_list@HU?$less@H@std@@V?$shared_ptr@V?$connection_body@U?$pair@W4slot_meta_group@detail@signals2@boost@@V?$optional@H@4@@std@@V?$slot0@XV?$function@$$A6AXXZ@boost@@@signals2@boost@@Vmutex@45@@detail@signals2@boost@@@boost@@@detail@signals2@boost@@@shared_count@detail@boost@@QAE@PAV?$grouped_list@HU?$less@H@std@@V?$shared_ptr@V?$connection_body@U?$pair@W4slot_meta_group@detail@signals2@boost@@V?$optional@H@4@@std@@V?$slot0@XV?$function@$$A6AXXZ@boost@@@signals2@boost@@Vmutex@45@@detail@signals2@boost@@@boost@@@1signals2@2@@Z 00408e30 f i cinder:Window.obj
 0001:00007ed0       ??$?0V?$grouped_list@HU?$less@H@std@@V?$shared_ptr@V?$connection_body@U?$pair@W4slot_meta_group@detail@signals2@boost@@V?$optional@H@4@@std@@V?$slot1@XAAVFileDropEvent@app@cinder@@V?$function@$$A6AXAAVFileDropEvent@app@cinder@@@Z@boost@@@signals2@boost@@Vmutex@45@@detail@signals2@boost@@@boost@@@detail@signals2@boost@@@?$shared_ptr@V?$grouped_list@HU?$less@H@std@@V?$shared_ptr@V?$connection_body@U?$pair@W4slot_meta_group@detail@signals2@boost@@V?$optional@H@4@@std@@V?$slot1@XAAVFileDropEvent@app@cinder@@V?$function@$$A6AXAAVFileDropEvent@app@cinder@@@Z@boost@@@signals2@boost@@Vmutex@45@@detail@signals2@boost@@@boost@@@detail@signals2@boost@@@boost@@QAE@PAV?$grouped_list@HU?$less@H@std@@V?$shared_ptr@V?$connection_body@U?$pair@W4slot_meta_group@detail@signals2@boost@@V?$optional@H@4@@std@@V?$slot1@XAAVFileDropEvent@app@cinder@@V?$function@$$A6AXAAVFileDropEvent@app@cinder@@@Z@boost@@@signals2@boost@@Vmutex@45@@detail@signals2@boost@@@boost@@@detail@signals2@1@@Z 00408ed0 f i cinder:Window.obj
 0001:00007f80       ??$?0V?$grouped_list@HU?$less@H@std@@V?$shared_ptr@V?$connection_body@U?$pair@W4slot_meta_group@detail@signals2@boost@@V?$optional@H@4@@std@@V?$slot1@XAAVFileDropEvent@app@cinder@@V?$function@$$A6AXAAVFileDropEvent@app@cinder@@@Z@boost@@@signals2@boost@@Vmutex@45@@detail@signals2@boost@@@boost@@@detail@signals2@boost@@@shared_count@detail@boost@@QAE@PAV?$grouped_list@HU?$less@H@std@@V?$shared_ptr@V?$connection_body@U?$pair@W4slot_meta_group@detail@signals2@boost@@V?$optional@H@4@@std@@V?$slot1@XAAVFileDropEvent@app@cinder@@V?$function@$$A6AXAAVFileDropEvent@app@cinder@@@Z@boost@@@signals2@boost@@Vmutex@45@@detail@signals2@boost@@@boost@@@1signals2@2@@Z 00408f80 f i cinder:Window.obj
 0001:00008020       ??$?0V?$grouped_list@HU?$less@H@std@@V?$shared_ptr@V?$connection_body@U?$pair@W4slot_meta_group@detail@signals2@boost@@V?$optional@H@4@@std@@V?$slot1@XAAVKeyEvent@app@cinder@@V?$function@$$A6AXAAVKeyEvent@app@cinder@@@Z@boost@@@signals2@boost@@Vmutex@45@@detail@signals2@boost@@@boost@@@detail@signals2@boost@@@?$shared_ptr@V?$grouped_list@HU?$less@H@std@@V?$shared_ptr@V?$connection_body@U?$pair@W4slot_meta_group@detail@signals2@boost@@V?$optional@H@4@@std@@V?$slot1@XAAVKeyEvent@app@cinder@@V?$function@$$A6AXAAVKeyEvent@app@cinder@@@Z@boost@@@signals2@boost@@Vmutex@45@@detail@signals2@boost@@@boost@@@detail@signals2@boost@@@boost@@QAE@PAV?$grouped_list@HU?$less@H@std@@V?$shared_ptr@V?$connection_body@U?$pair@W4slot_meta_group@detail@signals2@boost@@V?$optional@H@4@@std@@V?$slot1@XAAVKeyEvent@app@cinder@@V?$function@$$A6AXAAVKeyEvent@app@cinder@@@Z@boost@@@signals2@boost@@Vmutex@45@@detail@signals2@boost@@@boost@@@detail@signals2@1@@Z 00409020 f i cinder:Window.obj
 0001:000080d0       ??$?0V?$grouped_list@HU?$less@H@std@@V?$shared_ptr@V?$connection_body@U?$pair@W4slot_meta_group@detail@signals2@boost@@V?$optional@H@4@@std@@V?$slot1@XAAVKeyEvent@app@cinder@@V?$function@$$A6AXAAVKeyEvent@app@cinder@@@Z@boost@@@signals2@boost@@Vmutex@45@@detail@signals2@boost@@@boost@@@detail@signals2@boost@@@shared_count@detail@boost@@QAE@PAV?$grouped_list@HU?$less@H@std@@V?$shared_ptr@V?$connection_body@U?$pair@W4slot_meta_group@detail@signals2@boost@@V?$optional@H@4@@std@@V?$slot1@XAAVKeyEvent@app@cinder@@V?$function@$$A6AXAAVKeyEvent@app@cinder@@@Z@boost@@@signals2@boost@@Vmutex@45@@detail@signals2@boost@@@boost@@@1signals2@2@@Z 004090d0 f i cinder:Window.obj
 0001:00008170       ??$?0V?$grouped_list@HU?$less@H@std@@V?$shared_ptr@V?$connection_body@U?$pair@W4slot_meta_group@detail@signals2@boost@@V?$optional@H@4@@std@@V?$slot1@XAAVMouseEvent@app@cinder@@V?$function@$$A6AXAAVMouseEvent@app@cinder@@@Z@boost@@@signals2@boost@@Vmutex@45@@detail@signals2@boost@@@boost@@@detail@signals2@boost@@@?$shared_ptr@V?$grouped_list@HU?$less@H@std@@V?$shared_ptr@V?$connection_body@U?$pair@W4slot_meta_group@detail@signals2@boost@@V?$optional@H@4@@std@@V?$slot1@XAAVMouseEvent@app@cinder@@V?$function@$$A6AXAAVMouseEvent@app@cinder@@@Z@boost@@@signals2@boost@@Vmutex@45@@detail@signals2@boost@@@boost@@@detail@signals2@boost@@@boost@@QAE@PAV?$grouped_list@HU?$less@H@std@@V?$shared_ptr@V?$connection_body@U?$pair@W4slot_meta_group@detail@signals2@boost@@V?$optional@H@4@@std@@V?$slot1@XAAVMouseEvent@app@cinder@@V?$function@$$A6AXAAVMouseEvent@app@cinder@@@Z@boost@@@signals2@boost@@Vmutex@45@@detail@signals2@boost@@@boost@@@detail@signals2@1@@Z 00409170 f i cinder:Window.obj
 0001:00008220       ??$?0V?$grouped_list@HU?$less@H@std@@V?$shared_ptr@V?$connection_body@U?$pair@W4slot_meta_group@detail@signals2@boost@@V?$optional@H@4@@std@@V?$slot1@XAAVMouseEvent@app@cinder@@V?$function@$$A6AXAAVMouseEvent@app@cinder@@@Z@boost@@@signals2@boost@@Vmutex@45@@detail@signals2@boost@@@boost@@@detail@signals2@boost@@@shared_count@detail@boost@@QAE@PAV?$grouped_list@HU?$less@H@std@@V?$shared_ptr@V?$connection_body@U?$pair@W4slot_meta_group@detail@signals2@boost@@V?$optional@H@4@@std@@V?$slot1@XAAVMouseEvent@app@cinder@@V?$function@$$A6AXAAVMouseEvent@app@cinder@@@Z@boost@@@signals2@boost@@Vmutex@45@@detail@signals2@boost@@@boost@@@1signals2@2@@Z 00409220 f i cinder:Window.obj
 0001:000082c0       ??$?0V?$grouped_list@HU?$less@H@std@@V?$shared_ptr@V?$connection_body@U?$pair@W4slot_meta_group@detail@signals2@boost@@V?$optional@H@4@@std@@V?$slot1@XAAVTouchEvent@app@cinder@@V?$function@$$A6AXAAVTouchEvent@app@cinder@@@Z@boost@@@signals2@boost@@Vmutex@45@@detail@signals2@boost@@@boost@@@detail@signals2@boost@@@?$shared_ptr@V?$grouped_list@HU?$less@H@std@@V?$shared_ptr@V?$connection_body@U?$pair@W4slot_meta_group@detail@signals2@boost@@V?$optional@H@4@@std@@V?$slot1@XAAVTouchEvent@app@cinder@@V?$function@$$A6AXAAVTouchEvent@app@cinder@@@Z@boost@@@signals2@boost@@Vmutex@45@@detail@signals2@boost@@@boost@@@detail@signals2@boost@@@boost@@QAE@PAV?$grouped_list@HU?$less@H@std@@V?$shared_ptr@V?$connection_body@U?$pair@W4slot_meta_group@detail@signals2@boost@@V?$optional@H@4@@std@@V?$slot1@XAAVTouchEvent@app@cinder@@V?$function@$$A6AXAAVTouchEvent@app@cinder@@@Z@boost@@@signals2@boost@@Vmutex@45@@detail@signals2@boost@@@boost@@@detail@signals2@1@@Z 004092c0 f i cinder:Window.obj
 0001:00008370       ??$?0V?$grouped_list@HU?$less@H@std@@V?$shared_ptr@V?$connection_body@U?$pair@W4slot_meta_group@detail@signals2@boost@@V?$optional@H@4@@std@@V?$slot1@XAAVTouchEvent@app@cinder@@V?$function@$$A6AXAAVTouchEvent@app@cinder@@@Z@boost@@@signals2@boost@@Vmutex@45@@detail@signals2@boost@@@boost@@@detail@signals2@boost@@@shared_count@detail@boost@@QAE@PAV?$grouped_list@HU?$less@H@std@@V?$shared_ptr@V?$connection_body@U?$pair@W4slot_meta_group@detail@signals2@boost@@V?$optional@H@4@@std@@V?$slot1@XAAVTouchEvent@app@cinder@@V?$function@$$A6AXAAVTouchEvent@app@cinder@@@Z@boost@@@signals2@boost@@Vmutex@45@@detail@signals2@boost@@@boost@@@1signals2@2@@Z 00409370 f i cinder:Window.obj
 0001:00008410       ??$?0Vinvocation_state@?$signal0_impl@XV?$optional_last_value@X@signals2@boost@@HU?$less@H@std@@V?$function@$$A6AXXZ@3@V?$function@$$A6AXABVconnection@signals2@boost@@@Z@3@Vmutex@23@@detail@signals2@boost@@@?$shared_ptr@Vinvocation_state@?$signal0_impl@XV?$optional_last_value@X@signals2@boost@@HU?$less@H@std@@V?$function@$$A6AXXZ@3@V?$function@$$A6AXABVconnection@signals2@boost@@@Z@3@Vmutex@23@@detail@signals2@boost@@@boost@@QAE@PAVinvocation_state@?$signal0_impl@XV?$optional_last_value@X@signals2@boost@@HU?$less@H@std@@V?$function@$$A6AXXZ@3@V?$function@$$A6AXABVconnection@signals2@boost@@@Z@3@Vmutex@23@@detail@signals2@1@@Z 00409410 f i cinder:Window.obj
 0001:000084c0       ??$?0Vinvocation_state@?$signal0_impl@XV?$optional_last_value@X@signals2@boost@@HU?$less@H@std@@V?$function@$$A6AXXZ@3@V?$function@$$A6AXABVconnection@signals2@boost@@@Z@3@Vmutex@23@@detail@signals2@boost@@@shared_count@detail@boost@@QAE@PAVinvocation_state@?$signal0_impl@XV?$optional_last_value@X@signals2@boost@@HU?$less@H@std@@V?$function@$$A6AXXZ@3@V?$function@$$A6AXABVconnection@signals2@boost@@@Z@3@Vmutex@23@@1signals2@2@@Z 004094c0 f i cinder:Window.obj
 0001:00008560       ??$?0Vinvocation_state@?$signal1_impl@XAAVFileDropEvent@app@cinder@@U?$EventCombiner@VFileDropEvent@app@cinder@@@23@HU?$less@H@std@@V?$function@$$A6AXAAVFileDropEvent@app@cinder@@@Z@boost@@V?$function@$$A6AXABVconnection@signals2@boost@@AAVFileDropEvent@app@cinder@@@Z@8@Vmutex@signals2@8@@detail@signals2@boost@@@?$shared_ptr@Vinvocation_state@?$signal1_impl@XAAVFileDropEvent@app@cinder@@U?$EventCombiner@VFileDropEvent@app@cinder@@@23@HU?$less@H@std@@V?$function@$$A6AXAAVFileDropEvent@app@cinder@@@Z@boost@@V?$function@$$A6AXABVconnection@signals2@boost@@AAVFileDropEvent@app@cinder@@@Z@8@Vmutex@signals2@8@@detail@signals2@boost@@@boost@@QAE@PAVinvocation_state@?$signal1_impl@XAAVFileDropEvent@app@cinder@@U?$EventCombiner@VFileDropEvent@app@cinder@@@23@HU?$less@H@std@@V?$function@$$A6AXAAVFileDropEvent@app@cinder@@@Z@boost@@V?$function@$$A6AXABVconnection@signals2@boost@@AAVFileDropEvent@app@cinder@@@Z@8@Vmutex@signals2@8@@detail@signals2@1@@Z 00409560 f i cinder:Window.obj
 0001:00008610       ??$?0Vinvocation_state@?$signal1_impl@XAAVFileDropEvent@app@cinder@@U?$EventCombiner@VFileDropEvent@app@cinder@@@23@HU?$less@H@std@@V?$function@$$A6AXAAVFileDropEvent@app@cinder@@@Z@boost@@V?$function@$$A6AXABVconnection@signals2@boost@@AAVFileDropEvent@app@cinder@@@Z@8@Vmutex@signals2@8@@detail@signals2@boost@@@shared_count@detail@boost@@QAE@PAVinvocation_state@?$signal1_impl@XAAVFileDropEvent@app@cinder@@U?$EventCombiner@VFileDropEvent@app@cinder@@@23@HU?$less@H@std@@V?$function@$$A6AXAAVFileDropEvent@app@cinder@@@Z@boost@@V?$function@$$A6AXABVconnection@signals2@boost@@AAVFileDropEvent@app@cinder@@@Z@8@Vmutex@signals2@8@@1signals2@2@@Z 00409610 f i cinder:Window.obj
 0001:000086b0       ??$?0Vinvocation_state@?$signal1_impl@XAAVKeyEvent@app@cinder@@U?$EventCombiner@VKeyEvent@app@cinder@@@23@HU?$less@H@std@@V?$function@$$A6AXAAVKeyEvent@app@cinder@@@Z@boost@@V?$function@$$A6AXABVconnection@signals2@boost@@AAVKeyEvent@app@cinder@@@Z@8@Vmutex@signals2@8@@detail@signals2@boost@@@?$shared_ptr@Vinvocation_state@?$signal1_impl@XAAVKeyEvent@app@cinder@@U?$EventCombiner@VKeyEvent@app@cinder@@@23@HU?$less@H@std@@V?$function@$$A6AXAAVKeyEvent@app@cinder@@@Z@boost@@V?$function@$$A6AXABVconnection@signals2@boost@@AAVKeyEvent@app@cinder@@@Z@8@Vmutex@signals2@8@@detail@signals2@boost@@@boost@@QAE@PAVinvocation_state@?$signal1_impl@XAAVKeyEvent@app@cinder@@U?$EventCombiner@VKeyEvent@app@cinder@@@23@HU?$less@H@std@@V?$function@$$A6AXAAVKeyEvent@app@cinder@@@Z@boost@@V?$function@$$A6AXABVconnection@signals2@boost@@AAVKeyEvent@app@cinder@@@Z@8@Vmutex@signals2@8@@detail@signals2@1@@Z 004096b0 f i cinder:Window.obj
 0001:00008760       ??$?0Vinvocation_state@?$signal1_impl@XAAVKeyEvent@app@cinder@@U?$EventCombiner@VKeyEvent@app@cinder@@@23@HU?$less@H@std@@V?$function@$$A6AXAAVKeyEvent@app@cinder@@@Z@boost@@V?$function@$$A6AXABVconnection@signals2@boost@@AAVKeyEvent@app@cinder@@@Z@8@Vmutex@signals2@8@@detail@signals2@boost@@@shared_count@detail@boost@@QAE@PAVinvocation_state@?$signal1_impl@XAAVKeyEvent@app@cinder@@U?$EventCombiner@VKeyEvent@app@cinder@@@23@HU?$less@H@std@@V?$function@$$A6AXAAVKeyEvent@app@cinder@@@Z@boost@@V?$function@$$A6AXABVconnection@signals2@boost@@AAVKeyEvent@app@cinder@@@Z@8@Vmutex@signals2@8@@1signals2@2@@Z 00409760 f i cinder:Window.obj
 0001:00008800       ??$?0Vinvocation_state@?$signal1_impl@XAAVMouseEvent@app@cinder@@U?$EventCombiner@VMouseEvent@app@cinder@@@23@HU?$less@H@std@@V?$function@$$A6AXAAVMouseEvent@app@cinder@@@Z@boost@@V?$function@$$A6AXABVconnection@signals2@boost@@AAVMouseEvent@app@cinder@@@Z@8@Vmutex@signals2@8@@detail@signals2@boost@@@?$shared_ptr@Vinvocation_state@?$signal1_impl@XAAVMouseEvent@app@cinder@@U?$EventCombiner@VMouseEvent@app@cinder@@@23@HU?$less@H@std@@V?$function@$$A6AXAAVMouseEvent@app@cinder@@@Z@boost@@V?$function@$$A6AXABVconnection@signals2@boost@@AAVMouseEvent@app@cinder@@@Z@8@Vmutex@signals2@8@@detail@signals2@boost@@@boost@@QAE@PAVinvocation_state@?$signal1_impl@XAAVMouseEvent@app@cinder@@U?$EventCombiner@VMouseEvent@app@cinder@@@23@HU?$less@H@std@@V?$function@$$A6AXAAVMouseEvent@app@cinder@@@Z@boost@@V?$function@$$A6AXABVconnection@signals2@boost@@AAVMouseEvent@app@cinder@@@Z@8@Vmutex@signals2@8@@detail@signals2@1@@Z 00409800 f i cinder:Window.obj
 0001:000088b0       ??$?0Vinvocation_state@?$signal1_impl@XAAVMouseEvent@app@cinder@@U?$EventCombiner@VMouseEvent@app@cinder@@@23@HU?$less@H@std@@V?$function@$$A6AXAAVMouseEvent@app@cinder@@@Z@boost@@V?$function@$$A6AXABVconnection@signals2@boost@@AAVMouseEvent@app@cinder@@@Z@8@Vmutex@signals2@8@@detail@signals2@boost@@@shared_count@detail@boost@@QAE@PAVinvocation_state@?$signal1_impl@XAAVMouseEvent@app@cinder@@U?$EventCombiner@VMouseEvent@app@cinder@@@23@HU?$less@H@std@@V?$function@$$A6AXAAVMouseEvent@app@cinder@@@Z@boost@@V?$function@$$A6AXABVconnection@signals2@boost@@AAVMouseEvent@app@cinder@@@Z@8@Vmutex@signals2@8@@1signals2@2@@Z 004098b0 f i cinder:Window.obj
 0001:00008950       ??$?0Vinvocation_state@?$signal1_impl@XAAVTouchEvent@app@cinder@@U?$EventCombiner@VTouchEvent@app@cinder@@@23@HU?$less@H@std@@V?$function@$$A6AXAAVTouchEvent@app@cinder@@@Z@boost@@V?$function@$$A6AXABVconnection@signals2@boost@@AAVTouchEvent@app@cinder@@@Z@8@Vmutex@signals2@8@@detail@signals2@boost@@@?$shared_ptr@Vinvocation_state@?$signal1_impl@XAAVTouchEvent@app@cinder@@U?$EventCombiner@VTouchEvent@app@cinder@@@23@HU?$less@H@std@@V?$function@$$A6AXAAVTouchEvent@app@cinder@@@Z@boost@@V?$function@$$A6AXABVconnection@signals2@boost@@AAVTouchEvent@app@cinder@@@Z@8@Vmutex@signals2@8@@detail@signals2@boost@@@boost@@QAE@PAVinvocation_state@?$signal1_impl@XAAVTouchEvent@app@cinder@@U?$EventCombiner@VTouchEvent@app@cinder@@@23@HU?$less@H@std@@V?$function@$$A6AXAAVTouchEvent@app@cinder@@@Z@boost@@V?$function@$$A6AXABVconnection@signals2@boost@@AAVTouchEvent@app@cinder@@@Z@8@Vmutex@signals2@8@@detail@signals2@1@@Z 00409950 f i cinder:Window.obj
 0001:00008a00       ??$?0Vinvocation_state@?$signal1_impl@XAAVTouchEvent@app@cinder@@U?$EventCombiner@VTouchEvent@app@cinder@@@23@HU?$less@H@std@@V?$function@$$A6AXAAVTouchEvent@app@cinder@@@Z@boost@@V?$function@$$A6AXABVconnection@signals2@boost@@AAVTouchEvent@app@cinder@@@Z@8@Vmutex@signals2@8@@detail@signals2@boost@@@shared_count@detail@boost@@QAE@PAVinvocation_state@?$signal1_impl@XAAVTouchEvent@app@cinder@@U?$EventCombiner@VTouchEvent@app@cinder@@@23@HU?$less@H@std@@V?$function@$$A6AXAAVTouchEvent@app@cinder@@@Z@boost@@V?$function@$$A6AXABVconnection@signals2@boost@@AAVTouchEvent@app@cinder@@@Z@8@Vmutex@signals2@8@@1signals2@2@@Z 00409a00 f i cinder:Window.obj
 0001:00008aa0       ??$?0X@?$shared_ptr@X@boost@@QAE@ABV?$weak_ptr@X@1@Usp_nothrow_tag@detail@1@@Z 00409aa0 f i cinder:Window.obj
 0001:00008b00       ??$?RV?$slot_call_iterator_t@Vslot_invoker@?$signal0_impl@XV?$optional_last_value@X@signals2@boost@@HU?$less@H@std@@V?$function@$$A6AXXZ@3@V?$function@$$A6AXABVconnection@signals2@boost@@@Z@3@Vmutex@23@@detail@signals2@boost@@V?$_List_iterator@V?$_List_val@U?$_List_simple_types@V?$shared_ptr@V?$connection_body@U?$pair@W4slot_meta_group@detail@signals2@boost@@V?$optional@H@4@@std@@V?$slot0@XV?$function@$$A6AXXZ@boost@@@signals2@boost@@Vmutex@45@@detail@signals2@boost@@@boost@@@std@@@std@@@std@@V?$connection_body@U?$pair@W4slot_meta_group@detail@signals2@boost@@V?$optional@H@4@@std@@V?$slot0@XV?$function@$$A6AXXZ@boost@@@signals2@boost@@Vmutex@45@@345@@detail@signals2@boost@@@?$optional_last_value@X@signals2@boost@@QBEXV?$slot_call_iterator_t@Vslot_invoker@?$signal0_impl@XV?$optional_last_value@X@signals2@boost@@HU?$less@H@std@@V?$function@$$A6AXXZ@3@V?$function@$$A6AXABVconnection@signals2@boost@@@Z@3@Vmutex@23@@detail@signals2@boost@@V?$_List_iterator@V?$_List_val@U?$_List_simple_types@V?$shared_ptr@V?$connection_body@U?$pair@W4slot_meta_group@detail@signals2@boost@@V?$optional@H@4@@std@@V?$slot0@XV?$function@$$A6AXXZ@boost@@@signals2@boost@@Vmutex@45@@detail@signals2@boost@@@boost@@@std@@@std@@@std@@V?$connection_body@U?$pair@W4slot_meta_group@detail@signals2@boost@@V?$optional@H@4@@std@@V?$slot0@XV?$function@$$A6AXXZ@boost@@@signals2@boost@@Vmutex@45@@345@@detail@12@0@Z 00409b00 f i cinder:Window.obj
 0001:00008b90       ??$?RV?$slot_call_iterator_t@Vslot_invoker@?$signal1_impl@XAAVKeyEvent@app@cinder@@U?$EventCombiner@VKeyEvent@app@cinder@@@23@HU?$less@H@std@@V?$function@$$A6AXAAVKeyEvent@app@cinder@@@Z@boost@@V?$function@$$A6AXABVconnection@signals2@boost@@AAVKeyEvent@app@cinder@@@Z@8@Vmutex@signals2@8@@detail@signals2@boost@@V?$_List_iterator@V?$_List_val@U?$_List_simple_types@V?$shared_ptr@V?$connection_body@U?$pair@W4slot_meta_group@detail@signals2@boost@@V?$optional@H@4@@std@@V?$slot1@XAAVKeyEvent@app@cinder@@V?$function@$$A6AXAAVKeyEvent@app@cinder@@@Z@boost@@@signals2@boost@@Vmutex@45@@detail@signals2@boost@@@boost@@@std@@@std@@@std@@V?$connection_body@U?$pair@W4slot_meta_group@detail@signals2@boost@@V?$optional@H@4@@std@@V?$slot1@XAAVKeyEvent@app@cinder@@V?$function@$$A6AXAAVKeyEvent@app@cinder@@@Z@boost@@@signals2@boost@@Vmutex@45@@345@@detail@signals2@boost@@@?$EventCombiner@VKeyEvent@app@cinder@@@app@cinder@@QBEXV?$slot_call_iterator_t@Vslot_invoker@?$signal1_impl@XAAVKeyEvent@app@cinder@@U?$EventCombiner@VKeyEvent@app@cinder@@@23@HU?$less@H@std@@V?$function@$$A6AXAAVKeyEvent@app@cinder@@@Z@boost@@V?$function@$$A6AXABVconnection@signals2@boost@@AAVKeyEvent@app@cinder@@@Z@8@Vmutex@signals2@8@@detail@signals2@boost@@V?$_List_iterator@V?$_List_val@U?$_List_simple_types@V?$shared_ptr@V?$connection_body@U?$pair@W4slot_meta_group@detail@signals2@boost@@V?$optional@H@4@@std@@V?$slot1@XAAVKeyEvent@app@cinder@@V?$function@$$A6AXAAVKeyEvent@app@cinder@@@Z@boost@@@signals2@boost@@Vmutex@45@@detail@signals2@boost@@@boost@@@std@@@std@@@std@@V?$connection_body@U?$pair@W4slot_meta_group@detail@signals2@boost@@V?$optional@H@4@@std@@V?$slot1@XAAVKeyEvent@app@cinder@@V?$function@$$A6AXAAVKeyEvent@app@cinder@@@Z@boost@@@signals2@boost@@Vmutex@45@@345@@detail@signals2@boost@@0@Z 00409b90 f i cinder:Window.obj
 0001:00008b90       ??$?RV?$slot_call_iterator_t@Vslot_invoker@?$signal1_impl@XAAVFileDropEvent@app@cinder@@U?$EventCombiner@VFileDropEvent@app@cinder@@@23@HU?$less@H@std@@V?$function@$$A6AXAAVFileDropEvent@app@cinder@@@Z@boost@@V?$function@$$A6AXABVconnection@signals2@boost@@AAVFileDropEvent@app@cinder@@@Z@8@Vmutex@signals2@8@@detail@signals2@boost@@V?$_List_iterator@V?$_List_val@U?$_List_simple_types@V?$shared_ptr@V?$connection_body@U?$pair@W4slot_meta_group@detail@signals2@boost@@V?$optional@H@4@@std@@V?$slot1@XAAVFileDropEvent@app@cinder@@V?$function@$$A6AXAAVFileDropEvent@app@cinder@@@Z@boost@@@signals2@boost@@Vmutex@45@@detail@signals2@boost@@@boost@@@std@@@std@@@std@@V?$connection_body@U?$pair@W4slot_meta_group@detail@signals2@boost@@V?$optional@H@4@@std@@V?$slot1@XAAVFileDropEvent@app@cinder@@V?$function@$$A6AXAAVFileDropEvent@app@cinder@@@Z@boost@@@signals2@boost@@Vmutex@45@@345@@detail@signals2@boost@@@?$EventCombiner@VFileDropEvent@app@cinder@@@app@cinder@@QBEXV?$slot_call_iterator_t@Vslot_invoker@?$signal1_impl@XAAVFileDropEvent@app@cinder@@U?$EventCombiner@VFileDropEvent@app@cinder@@@23@HU?$less@H@std@@V?$function@$$A6AXAAVFileDropEvent@app@cinder@@@Z@boost@@V?$function@$$A6AXABVconnection@signals2@boost@@AAVFileDropEvent@app@cinder@@@Z@8@Vmutex@signals2@8@@detail@signals2@boost@@V?$_List_iterator@V?$_List_val@U?$_List_simple_types@V?$shared_ptr@V?$connection_body@U?$pair@W4slot_meta_group@detail@signals2@boost@@V?$optional@H@4@@std@@V?$slot1@XAAVFileDropEvent@app@cinder@@V?$function@$$A6AXAAVFileDropEvent@app@cinder@@@Z@boost@@@signals2@boost@@Vmutex@45@@detail@signals2@boost@@@boost@@@std@@@std@@@std@@V?$connection_body@U?$pair@W4slot_meta_group@detail@signals2@boost@@V?$optional@H@4@@std@@V?$slot1@XAAVFileDropEvent@app@cinder@@V?$function@$$A6AXAAVFileDropEvent@app@cinder@@@Z@boost@@@signals2@boost@@Vmutex@45@@345@@detail@signals2@boost@@0@Z 00409b90 f i cinder:Window.obj
 0001:00008b90       ??$?RV?$slot_call_iterator_t@Vslot_invoker@?$signal1_impl@XAAVTouchEvent@app@cinder@@U?$EventCombiner@VTouchEvent@app@cinder@@@23@HU?$less@H@std@@V?$function@$$A6AXAAVTouchEvent@app@cinder@@@Z@boost@@V?$function@$$A6AXABVconnection@signals2@boost@@AAVTouchEvent@app@cinder@@@Z@8@Vmutex@signals2@8@@detail@signals2@boost@@V?$_List_iterator@V?$_List_val@U?$_List_simple_types@V?$shared_ptr@V?$connection_body@U?$pair@W4slot_meta_group@detail@signals2@boost@@V?$optional@H@4@@std@@V?$slot1@XAAVTouchEvent@app@cinder@@V?$function@$$A6AXAAVTouchEvent@app@cinder@@@Z@boost@@@signals2@boost@@Vmutex@45@@detail@signals2@boost@@@boost@@@std@@@std@@@std@@V?$connection_body@U?$pair@W4slot_meta_group@detail@signals2@boost@@V?$optional@H@4@@std@@V?$slot1@XAAVTouchEvent@app@cinder@@V?$function@$$A6AXAAVTouchEvent@app@cinder@@@Z@boost@@@signals2@boost@@Vmutex@45@@345@@detail@signals2@boost@@@?$EventCombiner@VTouchEvent@app@cinder@@@app@cinder@@QBEXV?$slot_call_iterator_t@Vslot_invoker@?$signal1_impl@XAAVTouchEvent@app@cinder@@U?$EventCombiner@VTouchEvent@app@cinder@@@23@HU?$less@H@std@@V?$function@$$A6AXAAVTouchEvent@app@cinder@@@Z@boost@@V?$function@$$A6AXABVconnection@signals2@boost@@AAVTouchEvent@app@cinder@@@Z@8@Vmutex@signals2@8@@detail@signals2@boost@@V?$_List_iterator@V?$_List_val@U?$_List_simple_types@V?$shared_ptr@V?$connection_body@U?$pair@W4slot_meta_group@detail@signals2@boost@@V?$optional@H@4@@std@@V?$slot1@XAAVTouchEvent@app@cinder@@V?$function@$$A6AXAAVTouchEvent@app@cinder@@@Z@boost@@@signals2@boost@@Vmutex@45@@detail@signals2@boost@@@boost@@@std@@@std@@@std@@V?$connection_body@U?$pair@W4slot_meta_group@detail@signals2@boost@@V?$optional@H@4@@std@@V?$slot1@XAAVTouchEvent@app@cinder@@V?$function@$$A6AXAAVTouchEvent@app@cinder@@@Z@boost@@@signals2@boost@@Vmutex@45@@345@@detail@signals2@boost@@0@Z 00409b90 f i cinder:Window.obj
 0001:00008b90       ??$?RV?$slot_call_iterator_t@Vslot_invoker@?$signal1_impl@XAAVMouseEvent@app@cinder@@U?$EventCombiner@VMouseEvent@app@cinder@@@23@HU?$less@H@std@@V?$function@$$A6AXAAVMouseEvent@app@cinder@@@Z@boost@@V?$function@$$A6AXABVconnection@signals2@boost@@AAVMouseEvent@app@cinder@@@Z@8@Vmutex@signals2@8@@detail@signals2@boost@@V?$_List_iterator@V?$_List_val@U?$_List_simple_types@V?$shared_ptr@V?$connection_body@U?$pair@W4slot_meta_group@detail@signals2@boost@@V?$optional@H@4@@std@@V?$slot1@XAAVMouseEvent@app@cinder@@V?$function@$$A6AXAAVMouseEvent@app@cinder@@@Z@boost@@@signals2@boost@@Vmutex@45@@detail@signals2@boost@@@boost@@@std@@@std@@@std@@V?$connection_body@U?$pair@W4slot_meta_group@detail@signals2@boost@@V?$optional@H@4@@std@@V?$slot1@XAAVMouseEvent@app@cinder@@V?$function@$$A6AXAAVMouseEvent@app@cinder@@@Z@boost@@@signals2@boost@@Vmutex@45@@345@@detail@signals2@boost@@@?$EventCombiner@VMouseEvent@app@cinder@@@app@cinder@@QBEXV?$slot_call_iterator_t@Vslot_invoker@?$signal1_impl@XAAVMouseEvent@app@cinder@@U?$EventCombiner@VMouseEvent@app@cinder@@@23@HU?$less@H@std@@V?$function@$$A6AXAAVMouseEvent@app@cinder@@@Z@boost@@V?$function@$$A6AXABVconnection@signals2@boost@@AAVMouseEvent@app@cinder@@@Z@8@Vmutex@signals2@8@@detail@signals2@boost@@V?$_List_iterator@V?$_List_val@U?$_List_simple_types@V?$shared_ptr@V?$connection_body@U?$pair@W4slot_meta_group@detail@signals2@boost@@V?$optional@H@4@@std@@V?$slot1@XAAVMouseEvent@app@cinder@@V?$function@$$A6AXAAVMouseEvent@app@cinder@@@Z@boost@@@signals2@boost@@Vmutex@45@@detail@signals2@boost@@@boost@@@std@@@std@@@std@@V?$connection_body@U?$pair@W4slot_meta_group@detail@signals2@boost@@V?$optional@H@4@@std@@V?$slot1@XAAVMouseEvent@app@cinder@@V?$function@$$A6AXAAVMouseEvent@app@cinder@@@Z@boost@@@signals2@boost@@Vmutex@45@@345@@detail@signals2@boost@@0@Z 00409b90 f i cinder:Window.obj
 0001:00008be0       ??$?RV?$weak_ptr@X@boost@@@lock_weak_ptr_visitor@detail@signals2@boost@@QBE?AV?$variant@V?$shared_ptr@X@boost@@Vforeign_void_shared_ptr@detail@signals2@2@Uvoid_@042@U6042@U6042@U6042@U6042@U6042@U6042@U6042@U6042@U6042@U6042@U6042@U6042@U6042@U6042@U6042@U6042@U6042@@3@ABV?$weak_ptr@X@3@@Z 00409be0 f i cinder:Window.obj
 0001:00008ca0       ??$?RVforeign_void_weak_ptr@detail@signals2@boost@@@lock_weak_ptr_visitor@detail@signals2@boost@@QBE?AV?$variant@V?$shared_ptr@X@boost@@Vforeign_void_shared_ptr@detail@signals2@2@Uvoid_@042@U6042@U6042@U6042@U6042@U6042@U6042@U6042@U6042@U6042@U6042@U6042@U6042@U6042@U6042@U6042@U6042@U6042@@3@ABVforeign_void_weak_ptr@123@@Z 00409ca0 f i cinder:Window.obj
 0001:00008d40       ??$_Buynode@ABV?$shared_ptr@V?$connection_body@U?$pair@W4slot_meta_group@detail@signals2@boost@@V?$optional@H@4@@std@@V?$slot0@_NV?$function@$$A6A_NXZ@boost@@@signals2@boost@@Vmutex@45@@detail@signals2@boost@@@boost@@@?$_List_buy@V?$shared_ptr@V?$connection_body@U?$pair@W4slot_meta_group@detail@signals2@boost@@V?$optional@H@4@@std@@V?$slot0@_NV?$function@$$A6A_NXZ@boost@@@signals2@boost@@Vmutex@45@@detail@signals2@boost@@@boost@@V?$allocator@V?$shared_ptr@V?$connection_body@U?$pair@W4slot_meta_group@detail@signals2@boost@@V?$optional@H@4@@std@@V?$slot0@_NV?$function@$$A6A_NXZ@boost@@@signals2@boost@@Vmutex@45@@detail@signals2@boost@@@boost@@@std@@@std@@QAEPAU?$_List_node@V?$shared_ptr@V?$connection_body@U?$pair@W4slot_meta_group@detail@signals2@boost@@V?$optional@H@4@@std@@V?$slot0@_NV?$function@$$A6A_NXZ@boost@@@signals2@boost@@Vmutex@45@@detail@signals2@boost@@@boost@@PAX@1@PAU21@0ABV?$shared_ptr@V?$connection_body@U?$pair@W4slot_meta_group@detail@signals2@boost@@V?$optional@H@4@@std@@V?$slot0@_NV?$function@$$A6A_NXZ@boost@@@signals2@boost@@Vmutex@45@@detail@signals2@boost@@@boost@@@Z 00409d40 f i cinder:AppBasic.obj
 0001:00008d40       ??$_Buynode@ABV?$shared_ptr@V?$connection_body@U?$pair@W4slot_meta_group@detail@signals2@boost@@V?$optional@H@4@@std@@V?$slot1@XAAVKeyEvent@app@cinder@@V?$function@$$A6AXAAVKeyEvent@app@cinder@@@Z@boost@@@signals2@boost@@Vmutex@45@@detail@signals2@boost@@@boost@@@?$_List_buy@V?$shared_ptr@V?$connection_body@U?$pair@W4slot_meta_group@detail@signals2@boost@@V?$optional@H@4@@std@@V?$slot1@XAAVKeyEvent@app@cinder@@V?$function@$$A6AXAAVKeyEvent@app@cinder@@@Z@boost@@@signals2@boost@@Vmutex@45@@detail@signals2@boost@@@boost@@V?$allocator@V?$shared_ptr@V?$connection_body@U?$pair@W4slot_meta_group@detail@signals2@boost@@V?$optional@H@4@@std@@V?$slot1@XAAVKeyEvent@app@cinder@@V?$function@$$A6AXAAVKeyEvent@app@cinder@@@Z@boost@@@signals2@boost@@Vmutex@45@@detail@signals2@boost@@@boost@@@std@@@std@@QAEPAU?$_List_node@V?$shared_ptr@V?$connection_body@U?$pair@W4slot_meta_group@detail@signals2@boost@@V?$optional@H@4@@std@@V?$slot1@XAAVKeyEvent@app@cinder@@V?$function@$$A6AXAAVKeyEvent@app@cinder@@@Z@boost@@@signals2@boost@@Vmutex@45@@detail@signals2@boost@@@boost@@PAX@1@PAU21@0ABV?$shared_ptr@V?$connection_body@U?$pair@W4slot_meta_group@detail@signals2@boost@@V?$optional@H@4@@std@@V?$slot1@XAAVKeyEvent@app@cinder@@V?$function@$$A6AXAAVKeyEvent@app@cinder@@@Z@boost@@@signals2@boost@@Vmutex@45@@detail@signals2@boost@@@boost@@@Z 00409d40 f i cinder:Window.obj
 0001:00008d40       ??$_Buynode@ABV?$shared_ptr@V?$connection_body@U?$pair@W4slot_meta_group@detail@signals2@boost@@V?$optional@H@4@@std@@V?$slot1@XAAVTouchEvent@app@cinder@@V?$function@$$A6AXAAVTouchEvent@app@cinder@@@Z@boost@@@signals2@boost@@Vmutex@45@@detail@signals2@boost@@@boost@@@?$_List_buy@V?$shared_ptr@V?$connection_body@U?$pair@W4slot_meta_group@detail@signals2@boost@@V?$optional@H@4@@std@@V?$slot1@XAAVTouchEvent@app@cinder@@V?$function@$$A6AXAAVTouchEvent@app@cinder@@@Z@boost@@@signals2@boost@@Vmutex@45@@detail@signals2@boost@@@boost@@V?$allocator@V?$shared_ptr@V?$connection_body@U?$pair@W4slot_meta_group@detail@signals2@boost@@V?$optional@H@4@@std@@V?$slot1@XAAVTouchEvent@app@cinder@@V?$function@$$A6AXAAVTouchEvent@app@cinder@@@Z@boost@@@signals2@boost@@Vmutex@45@@detail@signals2@boost@@@boost@@@std@@@std@@QAEPAU?$_List_node@V?$shared_ptr@V?$connection_body@U?$pair@W4slot_meta_group@detail@signals2@boost@@V?$optional@H@4@@std@@V?$slot1@XAAVTouchEvent@app@cinder@@V?$function@$$A6AXAAVTouchEvent@app@cinder@@@Z@boost@@@signals2@boost@@Vmutex@45@@detail@signals2@boost@@@boost@@PAX@1@PAU21@0ABV?$shared_ptr@V?$connection_body@U?$pair@W4slot_meta_group@detail@signals2@boost@@V?$optional@H@4@@std@@V?$slot1@XAAVTouchEvent@app@cinder@@V?$function@$$A6AXAAVTouchEvent@app@cinder@@@Z@boost@@@signals2@boost@@Vmutex@45@@detail@signals2@boost@@@boost@@@Z 00409d40 f i cinder:Window.obj
 0001:00008d40       ??$_Buynode@ABV?$shared_ptr@V?$connection_body@U?$pair@W4slot_meta_group@detail@signals2@boost@@V?$optional@H@4@@std@@V?$slot0@XV?$function@$$A6AXXZ@boost@@@signals2@boost@@Vmutex@45@@detail@signals2@boost@@@boost@@@?$_List_buy@V?$shared_ptr@V?$connection_body@U?$pair@W4slot_meta_group@detail@signals2@boost@@V?$optional@H@4@@std@@V?$slot0@XV?$function@$$A6AXXZ@boost@@@signals2@boost@@Vmutex@45@@detail@signals2@boost@@@boost@@V?$allocator@V?$shared_ptr@V?$connection_body@U?$pair@W4slot_meta_group@detail@signals2@boost@@V?$optional@H@4@@std@@V?$slot0@XV?$function@$$A6AXXZ@boost@@@signals2@boost@@Vmutex@45@@detail@signals2@boost@@@boost@@@std@@@std@@QAEPAU?$_List_node@V?$shared_ptr@V?$connection_body@U?$pair@W4slot_meta_group@detail@signals2@boost@@V?$optional@H@4@@std@@V?$slot0@XV?$function@$$A6AXXZ@boost@@@signals2@boost@@Vmutex@45@@detail@signals2@boost@@@boost@@PAX@1@PAU21@0ABV?$shared_ptr@V?$connection_body@U?$pair@W4slot_meta_group@detail@signals2@boost@@V?$optional@H@4@@std@@V?$slot0@XV?$function@$$A6AXXZ@boost@@@signals2@boost@@Vmutex@45@@detail@signals2@boost@@@boost@@@Z 00409d40 f i cinder:Window.obj
 0001:00008d40       ??$_Buynode@ABV?$shared_ptr@V?$connection_body@U?$pair@W4slot_meta_group@detail@signals2@boost@@V?$optional@H@4@@std@@V?$slot1@XAAVFileDropEvent@app@cinder@@V?$function@$$A6AXAAVFileDropEvent@app@cinder@@@Z@boost@@@signals2@boost@@Vmutex@45@@detail@signals2@boost@@@boost@@@?$_List_buy@V?$shared_ptr@V?$connection_body@U?$pair@W4slot_meta_group@detail@signals2@boost@@V?$optional@H@4@@std@@V?$slot1@XAAVFileDropEvent@app@cinder@@V?$function@$$A6AXAAVFileDropEvent@app@cinder@@@Z@boost@@@signals2@boost@@Vmutex@45@@detail@signals2@boost@@@boost@@V?$allocator@V?$shared_ptr@V?$connection_body@U?$pair@W4slot_meta_group@detail@signals2@boost@@V?$optional@H@4@@std@@V?$slot1@XAAVFileDropEvent@app@cinder@@V?$function@$$A6AXAAVFileDropEvent@app@cinder@@@Z@boost@@@signals2@boost@@Vmutex@45@@detail@signals2@boost@@@boost@@@std@@@std@@QAEPAU?$_List_node@V?$shared_ptr@V?$connection_body@U?$pair@W4slot_meta_group@detail@signals2@boost@@V?$optional@H@4@@std@@V?$slot1@XAAVFileDropEvent@app@cinder@@V?$function@$$A6AXAAVFileDropEvent@app@cinder@@@Z@boost@@@signals2@boost@@Vmutex@45@@detail@signals2@boost@@@boost@@PAX@1@PAU21@0ABV?$shared_ptr@V?$connection_body@U?$pair@W4slot_meta_group@detail@signals2@boost@@V?$optional@H@4@@std@@V?$slot1@XAAVFileDropEvent@app@cinder@@V?$function@$$A6AXAAVFileDropEvent@app@cinder@@@Z@boost@@@signals2@boost@@Vmutex@45@@detail@signals2@boost@@@boost@@@Z 00409d40 f i cinder:Window.obj
 0001:00008d40       ??$_Buynode@ABV?$shared_ptr@V?$connection_body@U?$pair@W4slot_meta_group@detail@signals2@boost@@V?$optional@H@4@@std@@V?$slot1@XAAVMouseEvent@app@cinder@@V?$function@$$A6AXAAVMouseEvent@app@cinder@@@Z@boost@@@signals2@boost@@Vmutex@45@@detail@signals2@boost@@@boost@@@?$_List_buy@V?$shared_ptr@V?$connection_body@U?$pair@W4slot_meta_group@detail@signals2@boost@@V?$optional@H@4@@std@@V?$slot1@XAAVMouseEvent@app@cinder@@V?$function@$$A6AXAAVMouseEvent@app@cinder@@@Z@boost@@@signals2@boost@@Vmutex@45@@detail@signals2@boost@@@boost@@V?$allocator@V?$shared_ptr@V?$connection_body@U?$pair@W4slot_meta_group@detail@signals2@boost@@V?$optional@H@4@@std@@V?$slot1@XAAVMouseEvent@app@cinder@@V?$function@$$A6AXAAVMouseEvent@app@cinder@@@Z@boost@@@signals2@boost@@Vmutex@45@@detail@signals2@boost@@@boost@@@std@@@std@@QAEPAU?$_List_node@V?$shared_ptr@V?$connection_body@U?$pair@W4slot_meta_group@detail@signals2@boost@@V?$optional@H@4@@std@@V?$slot1@XAAVMouseEvent@app@cinder@@V?$function@$$A6AXAAVMouseEvent@app@cinder@@@Z@boost@@@signals2@boost@@Vmutex@45@@detail@signals2@boost@@@boost@@PAX@1@PAU21@0ABV?$shared_ptr@V?$connection_body@U?$pair@W4slot_meta_group@detail@signals2@boost@@V?$optional@H@4@@std@@V?$slot1@XAAVMouseEvent@app@cinder@@V?$function@$$A6AXAAVMouseEvent@app@cinder@@@Z@boost@@@signals2@boost@@Vmutex@45@@detail@signals2@boost@@@boost@@@Z 00409d40 f i cinder:Window.obj
 0001:00008d80       ??$_Destroy@V?$variant@V?$shared_ptr@X@boost@@Vforeign_void_shared_ptr@detail@signals2@2@Uvoid_@042@U6042@U6042@U6042@U6042@U6042@U6042@U6042@U6042@U6042@U6042@U6042@U6042@U6042@U6042@U6042@U6042@U6042@@boost@@@std@@YAXPAV?$variant@V?$shared_ptr@X@boost@@Vforeign_void_shared_ptr@detail@signals2@2@Uvoid_@042@U6042@U6042@U6042@U6042@U6042@U6042@U6042@U6042@U6042@U6042@U6042@U6042@U6042@U6042@U6042@U6042@U6042@@boost@@@Z 00409d80 f i cinder:Window.obj
 0001:00008dc0       ??$_Insert_at@AAU?$pair@$$CBU?$pair@W4slot_meta_group@detail@signals2@boost@@V?$optional@H@4@@std@@V?$_List_iterator@V?$_List_val@U?$_List_simple_types@V?$shared_ptr@V?$connection_body@U?$pair@W4slot_meta_group@detail@signals2@boost@@V?$optional@H@4@@std@@V?$slot1@XAAVFileDropEvent@app@cinder@@V?$function@$$A6AXAAVFileDropEvent@app@cinder@@@Z@boost@@@signals2@boost@@Vmutex@45@@detail@signals2@boost@@@boost@@@std@@@std@@@2@@std@@PAU?$_Tree_node@U?$pair@$$CBU?$pair@W4slot_meta_group@detail@signals2@boost@@V?$optional@H@4@@std@@V?$_List_iterator@V?$_List_val@U?$_List_simple_types@V?$shared_ptr@V?$connection_body@U?$pair@W4slot_meta_group@detail@signals2@boost@@V?$optional@H@4@@std@@V?$slot1@XAAVFileDropEvent@app@cinder@@V?$function@$$A6AXAAVFileDropEvent@app@cinder@@@Z@boost@@@signals2@boost@@Vmutex@45@@detail@signals2@boost@@@boost@@@std@@@std@@@2@@std@@PAX@2@@?$_Tree@V?$_Tmap_traits@U?$pair@W4slot_meta_group@detail@signals2@boost@@V?$optional@H@4@@std@@V?$_List_iterator@V?$_List_val@U?$_List_simple_types@V?$shared_ptr@V?$connection_body@U?$pair@W4slot_meta_group@detail@signals2@boost@@V?$optional@H@4@@std@@V?$slot1@XAAVFileDropEvent@app@cinder@@V?$function@$$A6AXAAVFileDropEvent@app@cinder@@@Z@boost@@@signals2@boost@@Vmutex@45@@detail@signals2@boost@@@boost@@@std@@@std@@@2@V?$group_key_less@HU?$less@H@std@@@detail@signals2@boost@@V?$allocator@U?$pair@$$CBU?$pair@W4slot_meta_group@detail@signals2@boost@@V?$optional@H@4@@std@@V?$_List_iterator@V?$_List_val@U?$_List_simple_types@V?$shared_ptr@V?$connection_body@U?$pair@W4slot_meta_group@detail@signals2@boost@@V?$optional@H@4@@std@@V?$slot1@XAAVFileDropEvent@app@cinder@@V?$function@$$A6AXAAVFileDropEvent@app@cinder@@@Z@boost@@@signals2@boost@@Vmutex@45@@detail@signals2@boost@@@boost@@@std@@@std@@@2@@std@@@2@$0A@@std@@@std@@IAE?AV?$_Tree_iterator@V?$_Tree_val@U?$_Tree_simple_types@U?$pair@$$CBU?$pair@W4slot_meta_group@detail@signals2@boost@@V?$optional@H@4@@std@@V?$_List_iterator@V?$_List_val@U?$_List_simple_types@V?$shared_ptr@V?$connection_body@U?$pair@W4slot_meta_group@detail@signals2@boost@@V?$optional@H@4@@std@@V?$slot1@XAAVFileDropEvent@app@cinder@@V?$function@$$A6AXAAVFileDropEvent@app@cinder@@@Z@boost@@@signals2@boost@@Vmutex@45@@detail@signals2@boost@@@boost@@@std@@@std@@@2@@std@@@std@@@std@@@1@_NPAU?$_Tree_node@U?$pair@$$CBU?$pair@W4slot_meta_group@detail@signals2@boost@@V?$optional@H@4@@std@@V?$_List_iterator@V?$_List_val@U?$_List_simple_types@V?$shared_ptr@V?$connection_body@U?$pair@W4slot_meta_group@detail@signals2@boost@@V?$optional@H@4@@std@@V?$slot1@XAAVFileDropEvent@app@cinder@@V?$function@$$A6AXAAVFileDropEvent@app@cinder@@@Z@boost@@@signals2@boost@@Vmutex@45@@detail@signals2@boost@@@boost@@@std@@@std@@@2@@std@@PAX@1@AAU?$pair@$$CBU?$pair@W4slot_meta_group@detail@signals2@boost@@V?$optional@H@4@@std@@V?$_List_iterator@V?$_List_val@U?$_List_simple_types@V?$shared_ptr@V?$connection_body@U?$pair@W4slot_meta_group@detail@signals2@boost@@V?$optional@H@4@@std@@V?$slot1@XAAVFileDropEvent@app@cinder@@V?$function@$$A6AXAAVFileDropEvent@app@cinder@@@Z@boost@@@signals2@boost@@Vmutex@45@@detail@signals2@boost@@@boost@@@std@@@std@@@2@@1@1@Z 00409dc0 f i cinder:Window.obj
 0001:00008dc0       ??$_Insert_at@AAU?$pair@$$CBU?$pair@W4slot_meta_group@detail@signals2@boost@@V?$optional@H@4@@std@@V?$_List_iterator@V?$_List_val@U?$_List_simple_types@V?$shared_ptr@V?$connection_body@U?$pair@W4slot_meta_group@detail@signals2@boost@@V?$optional@H@4@@std@@V?$slot1@XAAVTouchEvent@app@cinder@@V?$function@$$A6AXAAVTouchEvent@app@cinder@@@Z@boost@@@signals2@boost@@Vmutex@45@@detail@signals2@boost@@@boost@@@std@@@std@@@2@@std@@PAU?$_Tree_node@U?$pair@$$CBU?$pair@W4slot_meta_group@detail@signals2@boost@@V?$optional@H@4@@std@@V?$_List_iterator@V?$_List_val@U?$_List_simple_types@V?$shared_ptr@V?$connection_body@U?$pair@W4slot_meta_group@detail@signals2@boost@@V?$optional@H@4@@std@@V?$slot1@XAAVTouchEvent@app@cinder@@V?$function@$$A6AXAAVTouchEvent@app@cinder@@@Z@boost@@@signals2@boost@@Vmutex@45@@detail@signals2@boost@@@boost@@@std@@@std@@@2@@std@@PAX@2@@?$_Tree@V?$_Tmap_traits@U?$pair@W4slot_meta_group@detail@signals2@boost@@V?$optional@H@4@@std@@V?$_List_iterator@V?$_List_val@U?$_List_simple_types@V?$shared_ptr@V?$connection_body@U?$pair@W4slot_meta_group@detail@signals2@boost@@V?$optional@H@4@@std@@V?$slot1@XAAVTouchEvent@app@cinder@@V?$function@$$A6AXAAVTouchEvent@app@cinder@@@Z@boost@@@signals2@boost@@Vmutex@45@@detail@signals2@boost@@@boost@@@std@@@std@@@2@V?$group_key_less@HU?$less@H@std@@@detail@signals2@boost@@V?$allocator@U?$pair@$$CBU?$pair@W4slot_meta_group@detail@signals2@boost@@V?$optional@H@4@@std@@V?$_List_iterator@V?$_List_val@U?$_List_simple_types@V?$shared_ptr@V?$connection_body@U?$pair@W4slot_meta_group@detail@signals2@boost@@V?$optional@H@4@@std@@V?$slot1@XAAVTouchEvent@app@cinder@@V?$function@$$A6AXAAVTouchEvent@app@cinder@@@Z@boost@@@signals2@boost@@Vmutex@45@@detail@signals2@boost@@@boost@@@std@@@std@@@2@@std@@@2@$0A@@std@@@std@@IAE?AV?$_Tree_iterator@V?$_Tree_val@U?$_Tree_simple_types@U?$pair@$$CBU?$pair@W4slot_meta_group@detail@signals2@boost@@V?$optional@H@4@@std@@V?$_List_iterator@V?$_List_val@U?$_List_simple_types@V?$shared_ptr@V?$connection_body@U?$pair@W4slot_meta_group@detail@signals2@boost@@V?$optional@H@4@@std@@V?$slot1@XAAVTouchEvent@app@cinder@@V?$function@$$A6AXAAVTouchEvent@app@cinder@@@Z@boost@@@signals2@boost@@Vmutex@45@@detail@signals2@boost@@@boost@@@std@@@std@@@2@@std@@@std@@@std@@@1@_NPAU?$_Tree_node@U?$pair@$$CBU?$pair@W4slot_meta_group@detail@signals2@boost@@V?$optional@H@4@@std@@V?$_List_iterator@V?$_List_val@U?$_List_simple_types@V?$shared_ptr@V?$connection_body@U?$pair@W4slot_meta_group@detail@signals2@boost@@V?$optional@H@4@@std@@V?$slot1@XAAVTouchEvent@app@cinder@@V?$function@$$A6AXAAVTouchEvent@app@cinder@@@Z@boost@@@signals2@boost@@Vmutex@45@@detail@signals2@boost@@@boost@@@std@@@std@@@2@@std@@PAX@1@AAU?$pair@$$CBU?$pair@W4slot_meta_group@detail@signals2@boost@@V?$optional@H@4@@std@@V?$_List_iterator@V?$_List_val@U?$_List_simple_types@V?$shared_ptr@V?$connection_body@U?$pair@W4slot_meta_group@detail@signals2@boost@@V?$optional@H@4@@std@@V?$slot1@XAAVTouchEvent@app@cinder@@V?$function@$$A6AXAAVTouchEvent@app@cinder@@@Z@boost@@@signals2@boost@@Vmutex@45@@detail@signals2@boost@@@boost@@@std@@@std@@@2@@1@1@Z 00409dc0 f i cinder:Window.obj
 0001:00008dc0       ??$_Insert_at@AAU?$pair@$$CBU?$pair@W4slot_meta_group@detail@signals2@boost@@V?$optional@H@4@@std@@V?$_List_iterator@V?$_List_val@U?$_List_simple_types@V?$shared_ptr@V?$connection_body@U?$pair@W4slot_meta_group@detail@signals2@boost@@V?$optional@H@4@@std@@V?$slot0@XV?$function@$$A6AXXZ@boost@@@signals2@boost@@Vmutex@45@@detail@signals2@boost@@@boost@@@std@@@std@@@2@@std@@PAU?$_Tree_node@U?$pair@$$CBU?$pair@W4slot_meta_group@detail@signals2@boost@@V?$optional@H@4@@std@@V?$_List_iterator@V?$_List_val@U?$_List_simple_types@V?$shared_ptr@V?$connection_body@U?$pair@W4slot_meta_group@detail@signals2@boost@@V?$optional@H@4@@std@@V?$slot0@XV?$function@$$A6AXXZ@boost@@@signals2@boost@@Vmutex@45@@detail@signals2@boost@@@boost@@@std@@@std@@@2@@std@@PAX@2@@?$_Tree@V?$_Tmap_traits@U?$pair@W4slot_meta_group@detail@signals2@boost@@V?$optional@H@4@@std@@V?$_List_iterator@V?$_List_val@U?$_List_simple_types@V?$shared_ptr@V?$connection_body@U?$pair@W4slot_meta_group@detail@signals2@boost@@V?$optional@H@4@@std@@V?$slot0@XV?$function@$$A6AXXZ@boost@@@signals2@boost@@Vmutex@45@@detail@signals2@boost@@@boost@@@std@@@std@@@2@V?$group_key_less@HU?$less@H@std@@@detail@signals2@boost@@V?$allocator@U?$pair@$$CBU?$pair@W4slot_meta_group@detail@signals2@boost@@V?$optional@H@4@@std@@V?$_List_iterator@V?$_List_val@U?$_List_simple_types@V?$shared_ptr@V?$connection_body@U?$pair@W4slot_meta_group@detail@signals2@boost@@V?$optional@H@4@@std@@V?$slot0@XV?$function@$$A6AXXZ@boost@@@signals2@boost@@Vmutex@45@@detail@signals2@boost@@@boost@@@std@@@std@@@2@@std@@@2@$0A@@std@@@std@@IAE?AV?$_Tree_iterator@V?$_Tree_val@U?$_Tree_simple_types@U?$pair@$$CBU?$pair@W4slot_meta_group@detail@signals2@boost@@V?$optional@H@4@@std@@V?$_List_iterator@V?$_List_val@U?$_List_simple_types@V?$shared_ptr@V?$connection_body@U?$pair@W4slot_meta_group@detail@signals2@boost@@V?$optional@H@4@@std@@V?$slot0@XV?$function@$$A6AXXZ@boost@@@signals2@boost@@Vmutex@45@@detail@signals2@boost@@@boost@@@std@@@std@@@2@@std@@@std@@@std@@@1@_NPAU?$_Tree_node@U?$pair@$$CBU?$pair@W4slot_meta_group@detail@signals2@boost@@V?$optional@H@4@@std@@V?$_List_iterator@V?$_List_val@U?$_List_simple_types@V?$shared_ptr@V?$connection_body@U?$pair@W4slot_meta_group@detail@signals2@boost@@V?$optional@H@4@@std@@V?$slot0@XV?$function@$$A6AXXZ@boost@@@signals2@boost@@Vmutex@45@@detail@signals2@boost@@@boost@@@std@@@std@@@2@@std@@PAX@1@AAU?$pair@$$CBU?$pair@W4slot_meta_group@detail@signals2@boost@@V?$optional@H@4@@std@@V?$_List_iterator@V?$_List_val@U?$_List_simple_types@V?$shared_ptr@V?$connection_body@U?$pair@W4slot_meta_group@detail@signals2@boost@@V?$optional@H@4@@std@@V?$slot0@XV?$function@$$A6AXXZ@boost@@@signals2@boost@@Vmutex@45@@detail@signals2@boost@@@boost@@@std@@@std@@@2@@1@1@Z 00409dc0 f i cinder:Window.obj
 0001:00008dc0       ??$_Insert_at@AAU?$pair@$$CBU?$pair@W4slot_meta_group@detail@signals2@boost@@V?$optional@H@4@@std@@V?$_List_iterator@V?$_List_val@U?$_List_simple_types@V?$shared_ptr@V?$connection_body@U?$pair@W4slot_meta_group@detail@signals2@boost@@V?$optional@H@4@@std@@V?$slot1@XAAVMouseEvent@app@cinder@@V?$function@$$A6AXAAVMouseEvent@app@cinder@@@Z@boost@@@signals2@boost@@Vmutex@45@@detail@signals2@boost@@@boost@@@std@@@std@@@2@@std@@PAU?$_Tree_node@U?$pair@$$CBU?$pair@W4slot_meta_group@detail@signals2@boost@@V?$optional@H@4@@std@@V?$_List_iterator@V?$_List_val@U?$_List_simple_types@V?$shared_ptr@V?$connection_body@U?$pair@W4slot_meta_group@detail@signals2@boost@@V?$optional@H@4@@std@@V?$slot1@XAAVMouseEvent@app@cinder@@V?$function@$$A6AXAAVMouseEvent@app@cinder@@@Z@boost@@@signals2@boost@@Vmutex@45@@detail@signals2@boost@@@boost@@@std@@@std@@@2@@std@@PAX@2@@?$_Tree@V?$_Tmap_traits@U?$pair@W4slot_meta_group@detail@signals2@boost@@V?$optional@H@4@@std@@V?$_List_iterator@V?$_List_val@U?$_List_simple_types@V?$shared_ptr@V?$connection_body@U?$pair@W4slot_meta_group@detail@signals2@boost@@V?$optional@H@4@@std@@V?$slot1@XAAVMouseEvent@app@cinder@@V?$function@$$A6AXAAVMouseEvent@app@cinder@@@Z@boost@@@signals2@boost@@Vmutex@45@@detail@signals2@boost@@@boost@@@std@@@std@@@2@V?$group_key_less@HU?$less@H@std@@@detail@signals2@boost@@V?$allocator@U?$pair@$$CBU?$pair@W4slot_meta_group@detail@signals2@boost@@V?$optional@H@4@@std@@V?$_List_iterator@V?$_List_val@U?$_List_simple_types@V?$shared_ptr@V?$connection_body@U?$pair@W4slot_meta_group@detail@signals2@boost@@V?$optional@H@4@@std@@V?$slot1@XAAVMouseEvent@app@cinder@@V?$function@$$A6AXAAVMouseEvent@app@cinder@@@Z@boost@@@signals2@boost@@Vmutex@45@@detail@signals2@boost@@@boost@@@std@@@std@@@2@@std@@@2@$0A@@std@@@std@@IAE?AV?$_Tree_iterator@V?$_Tree_val@U?$_Tree_simple_types@U?$pair@$$CBU?$pair@W4slot_meta_group@detail@signals2@boost@@V?$optional@H@4@@std@@V?$_List_iterator@V?$_List_val@U?$_List_simple_types@V?$shared_ptr@V?$connection_body@U?$pair@W4slot_meta_group@detail@signals2@boost@@V?$optional@H@4@@std@@V?$slot1@XAAVMouseEvent@app@cinder@@V?$function@$$A6AXAAVMouseEvent@app@cinder@@@Z@boost@@@signals2@boost@@Vmutex@45@@detail@signals2@boost@@@boost@@@std@@@std@@@2@@std@@@std@@@std@@@1@_NPAU?$_Tree_node@U?$pair@$$CBU?$pair@W4slot_meta_group@detail@signals2@boost@@V?$optional@H@4@@std@@V?$_List_iterator@V?$_List_val@U?$_List_simple_types@V?$shared_ptr@V?$connection_body@U?$pair@W4slot_meta_group@detail@signals2@boost@@V?$optional@H@4@@std@@V?$slot1@XAAVMouseEvent@app@cinder@@V?$function@$$A6AXAAVMouseEvent@app@cinder@@@Z@boost@@@signals2@boost@@Vmutex@45@@detail@signals2@boost@@@boost@@@std@@@std@@@2@@std@@PAX@1@AAU?$pair@$$CBU?$pair@W4slot_meta_group@detail@signals2@boost@@V?$optional@H@4@@std@@V?$_List_iterator@V?$_List_val@U?$_List_simple_types@V?$shared_ptr@V?$connection_body@U?$pair@W4slot_meta_group@detail@signals2@boost@@V?$optional@H@4@@std@@V?$slot1@XAAVMouseEvent@app@cinder@@V?$function@$$A6AXAAVMouseEvent@app@cinder@@@Z@boost@@@signals2@boost@@Vmutex@45@@detail@signals2@boost@@@boost@@@std@@@std@@@2@@1@1@Z 00409dc0 f i cinder:Window.obj
 0001:00008dc0       ??$_Insert_at@AAU?$pair@$$CBU?$pair@W4slot_meta_group@detail@signals2@boost@@V?$optional@H@4@@std@@V?$_List_iterator@V?$_List_val@U?$_List_simple_types@V?$shared_ptr@V?$connection_body@U?$pair@W4slot_meta_group@detail@signals2@boost@@V?$optional@H@4@@std@@V?$slot1@XAAVKeyEvent@app@cinder@@V?$function@$$A6AXAAVKeyEvent@app@cinder@@@Z@boost@@@signals2@boost@@Vmutex@45@@detail@signals2@boost@@@boost@@@std@@@std@@@2@@std@@PAU?$_Tree_node@U?$pair@$$CBU?$pair@W4slot_meta_group@detail@signals2@boost@@V?$optional@H@4@@std@@V?$_List_iterator@V?$_List_val@U?$_List_simple_types@V?$shared_ptr@V?$connection_body@U?$pair@W4slot_meta_group@detail@signals2@boost@@V?$optional@H@4@@std@@V?$slot1@XAAVKeyEvent@app@cinder@@V?$function@$$A6AXAAVKeyEvent@app@cinder@@@Z@boost@@@signals2@boost@@Vmutex@45@@detail@signals2@boost@@@boost@@@std@@@std@@@2@@std@@PAX@2@@?$_Tree@V?$_Tmap_traits@U?$pair@W4slot_meta_group@detail@signals2@boost@@V?$optional@H@4@@std@@V?$_List_iterator@V?$_List_val@U?$_List_simple_types@V?$shared_ptr@V?$connection_body@U?$pair@W4slot_meta_group@detail@signals2@boost@@V?$optional@H@4@@std@@V?$slot1@XAAVKeyEvent@app@cinder@@V?$function@$$A6AXAAVKeyEvent@app@cinder@@@Z@boost@@@signals2@boost@@Vmutex@45@@detail@signals2@boost@@@boost@@@std@@@std@@@2@V?$group_key_less@HU?$less@H@std@@@detail@signals2@boost@@V?$allocator@U?$pair@$$CBU?$pair@W4slot_meta_group@detail@signals2@boost@@V?$optional@H@4@@std@@V?$_List_iterator@V?$_List_val@U?$_List_simple_types@V?$shared_ptr@V?$connection_body@U?$pair@W4slot_meta_group@detail@signals2@boost@@V?$optional@H@4@@std@@V?$slot1@XAAVKeyEvent@app@cinder@@V?$function@$$A6AXAAVKeyEvent@app@cinder@@@Z@boost@@@signals2@boost@@Vmutex@45@@detail@signals2@boost@@@boost@@@std@@@std@@@2@@std@@@2@$0A@@std@@@std@@IAE?AV?$_Tree_iterator@V?$_Tree_val@U?$_Tree_simple_types@U?$pair@$$CBU?$pair@W4slot_meta_group@detail@signals2@boost@@V?$optional@H@4@@std@@V?$_List_iterator@V?$_List_val@U?$_List_simple_types@V?$shared_ptr@V?$connection_body@U?$pair@W4slot_meta_group@detail@signals2@boost@@V?$optional@H@4@@std@@V?$slot1@XAAVKeyEvent@app@cinder@@V?$function@$$A6AXAAVKeyEvent@app@cinder@@@Z@boost@@@signals2@boost@@Vmutex@45@@detail@signals2@boost@@@boost@@@std@@@std@@@2@@std@@@std@@@std@@@1@_NPAU?$_Tree_node@U?$pair@$$CBU?$pair@W4slot_meta_group@detail@signals2@boost@@V?$optional@H@4@@std@@V?$_List_iterator@V?$_List_val@U?$_List_simple_types@V?$shared_ptr@V?$connection_body@U?$pair@W4slot_meta_group@detail@signals2@boost@@V?$optional@H@4@@std@@V?$slot1@XAAVKeyEvent@app@cinder@@V?$function@$$A6AXAAVKeyEvent@app@cinder@@@Z@boost@@@signals2@boost@@Vmutex@45@@detail@signals2@boost@@@boost@@@std@@@std@@@2@@std@@PAX@1@AAU?$pair@$$CBU?$pair@W4slot_meta_group@detail@signals2@boost@@V?$optional@H@4@@std@@V?$_List_iterator@V?$_List_val@U?$_List_simple_types@V?$shared_ptr@V?$connection_body@U?$pair@W4slot_meta_group@detail@signals2@boost@@V?$optional@H@4@@std@@V?$slot1@XAAVKeyEvent@app@cinder@@V?$function@$$A6AXAAVKeyEvent@app@cinder@@@Z@boost@@@signals2@boost@@Vmutex@45@@detail@signals2@boost@@@boost@@@std@@@std@@@2@@1@1@Z 00409dc0 f i cinder:Window.obj
 0001:00008fe0       ??$_Insert_hint@AAU?$pair@$$CBU?$pair@W4slot_meta_group@detail@signals2@boost@@V?$optional@H@4@@std@@V?$_List_iterator@V?$_List_val@U?$_List_simple_types@V?$shared_ptr@V?$connection_body@U?$pair@W4slot_meta_group@detail@signals2@boost@@V?$optional@H@4@@std@@V?$slot1@XAAVMouseEvent@app@cinder@@V?$function@$$A6AXAAVMouseEvent@app@cinder@@@Z@boost@@@signals2@boost@@Vmutex@45@@detail@signals2@boost@@@boost@@@std@@@std@@@2@@std@@PAU?$_Tree_node@U?$pair@$$CBU?$pair@W4slot_meta_group@detail@signals2@boost@@V?$optional@H@4@@std@@V?$_List_iterator@V?$_List_val@U?$_List_simple_types@V?$shared_ptr@V?$connection_body@U?$pair@W4slot_meta_group@detail@signals2@boost@@V?$optional@H@4@@std@@V?$slot1@XAAVMouseEvent@app@cinder@@V?$function@$$A6AXAAVMouseEvent@app@cinder@@@Z@boost@@@signals2@boost@@Vmutex@45@@detail@signals2@boost@@@boost@@@std@@@std@@@2@@std@@PAX@2@@?$_Tree@V?$_Tmap_traits@U?$pair@W4slot_meta_group@detail@signals2@boost@@V?$optional@H@4@@std@@V?$_List_iterator@V?$_List_val@U?$_List_simple_types@V?$shared_ptr@V?$connection_body@U?$pair@W4slot_meta_group@detail@signals2@boost@@V?$optional@H@4@@std@@V?$slot1@XAAVMouseEvent@app@cinder@@V?$function@$$A6AXAAVMouseEvent@app@cinder@@@Z@boost@@@signals2@boost@@Vmutex@45@@detail@signals2@boost@@@boost@@@std@@@std@@@2@V?$group_key_less@HU?$less@H@std@@@detail@signals2@boost@@V?$allocator@U?$pair@$$CBU?$pair@W4slot_meta_group@detail@signals2@boost@@V?$optional@H@4@@std@@V?$_List_iterator@V?$_List_val@U?$_List_simple_types@V?$shared_ptr@V?$connection_body@U?$pair@W4slot_meta_group@detail@signals2@boost@@V?$optional@H@4@@std@@V?$slot1@XAAVMouseEvent@app@cinder@@V?$function@$$A6AXAAVMouseEvent@app@cinder@@@Z@boost@@@signals2@boost@@Vmutex@45@@detail@signals2@boost@@@boost@@@std@@@std@@@2@@std@@@2@$0A@@std@@@std@@IAE?AV?$_Tree_iterator@V?$_Tree_val@U?$_Tree_simple_types@U?$pair@$$CBU?$pair@W4slot_meta_group@detail@signals2@boost@@V?$optional@H@4@@std@@V?$_List_iterator@V?$_List_val@U?$_List_simple_types@V?$shared_ptr@V?$connection_body@U?$pair@W4slot_meta_group@detail@signals2@boost@@V?$optional@H@4@@std@@V?$slot1@XAAVMouseEvent@app@cinder@@V?$function@$$A6AXAAVMouseEvent@app@cinder@@@Z@boost@@@signals2@boost@@Vmutex@45@@detail@signals2@boost@@@boost@@@std@@@std@@@2@@std@@@std@@@std@@@1@V?$_Tree_const_iterator@V?$_Tree_val@U?$_Tree_simple_types@U?$pair@$$CBU?$pair@W4slot_meta_group@detail@signals2@boost@@V?$optional@H@4@@std@@V?$_List_iterator@V?$_List_val@U?$_List_simple_types@V?$shared_ptr@V?$connection_body@U?$pair@W4slot_meta_group@detail@signals2@boost@@V?$optional@H@4@@std@@V?$slot1@XAAVMouseEvent@app@cinder@@V?$function@$$A6AXAAVMouseEvent@app@cinder@@@Z@boost@@@signals2@boost@@Vmutex@45@@detail@signals2@boost@@@boost@@@std@@@std@@@2@@std@@@std@@@std@@@1@AAU?$pair@$$CBU?$pair@W4slot_meta_group@detail@signals2@boost@@V?$optional@H@4@@std@@V?$_List_iterator@V?$_List_val@U?$_List_simple_types@V?$shared_ptr@V?$connection_body@U?$pair@W4slot_meta_group@detail@signals2@boost@@V?$optional@H@4@@std@@V?$slot1@XAAVMouseEvent@app@cinder@@V?$function@$$A6AXAAVMouseEvent@app@cinder@@@Z@boost@@@signals2@boost@@Vmutex@45@@detail@signals2@boost@@@boost@@@std@@@std@@@2@@1@PAU?$_Tree_node@U?$pair@$$CBU?$pair@W4slot_meta_group@detail@signals2@boost@@V?$optional@H@4@@std@@V?$_List_iterator@V?$_List_val@U?$_List_simple_types@V?$shared_ptr@V?$connection_body@U?$pair@W4slot_meta_group@detail@signals2@boost@@V?$optional@H@4@@std@@V?$slot1@XAAVMouseEvent@app@cinder@@V?$function@$$A6AXAAVMouseEvent@app@cinder@@@Z@boost@@@signals2@boost@@Vmutex@45@@detail@signals2@boost@@@boost@@@std@@@std@@@2@@std@@PAX@1@@Z 00409fe0 f i cinder:Window.obj
 0001:00008fe0       ??$_Insert_hint@AAU?$pair@$$CBU?$pair@W4slot_meta_group@detail@signals2@boost@@V?$optional@H@4@@std@@V?$_List_iterator@V?$_List_val@U?$_List_simple_types@V?$shared_ptr@V?$connection_body@U?$pair@W4slot_meta_group@detail@signals2@boost@@V?$optional@H@4@@std@@V?$slot1@XAAVFileDropEvent@app@cinder@@V?$function@$$A6AXAAVFileDropEvent@app@cinder@@@Z@boost@@@signals2@boost@@Vmutex@45@@detail@signals2@boost@@@boost@@@std@@@std@@@2@@std@@PAU?$_Tree_node@U?$pair@$$CBU?$pair@W4slot_meta_group@detail@signals2@boost@@V?$optional@H@4@@std@@V?$_List_iterator@V?$_List_val@U?$_List_simple_types@V?$shared_ptr@V?$connection_body@U?$pair@W4slot_meta_group@detail@signals2@boost@@V?$optional@H@4@@std@@V?$slot1@XAAVFileDropEvent@app@cinder@@V?$function@$$A6AXAAVFileDropEvent@app@cinder@@@Z@boost@@@signals2@boost@@Vmutex@45@@detail@signals2@boost@@@boost@@@std@@@std@@@2@@std@@PAX@2@@?$_Tree@V?$_Tmap_traits@U?$pair@W4slot_meta_group@detail@signals2@boost@@V?$optional@H@4@@std@@V?$_List_iterator@V?$_List_val@U?$_List_simple_types@V?$shared_ptr@V?$connection_body@U?$pair@W4slot_meta_group@detail@signals2@boost@@V?$optional@H@4@@std@@V?$slot1@XAAVFileDropEvent@app@cinder@@V?$function@$$A6AXAAVFileDropEvent@app@cinder@@@Z@boost@@@signals2@boost@@Vmutex@45@@detail@signals2@boost@@@boost@@@std@@@std@@@2@V?$group_key_less@HU?$less@H@std@@@detail@signals2@boost@@V?$allocator@U?$pair@$$CBU?$pair@W4slot_meta_group@detail@signals2@boost@@V?$optional@H@4@@std@@V?$_List_iterator@V?$_List_val@U?$_List_simple_types@V?$shared_ptr@V?$connection_body@U?$pair@W4slot_meta_group@detail@signals2@boost@@V?$optional@H@4@@std@@V?$slot1@XAAVFileDropEvent@app@cinder@@V?$function@$$A6AXAAVFileDropEvent@app@cinder@@@Z@boost@@@signals2@boost@@Vmutex@45@@detail@signals2@boost@@@boost@@@std@@@std@@@2@@std@@@2@$0A@@std@@@std@@IAE?AV?$_Tree_iterator@V?$_Tree_val@U?$_Tree_simple_types@U?$pair@$$CBU?$pair@W4slot_meta_group@detail@signals2@boost@@V?$optional@H@4@@std@@V?$_List_iterator@V?$_List_val@U?$_List_simple_types@V?$shared_ptr@V?$connection_body@U?$pair@W4slot_meta_group@detail@signals2@boost@@V?$optional@H@4@@std@@V?$slot1@XAAVFileDropEvent@app@cinder@@V?$function@$$A6AXAAVFileDropEvent@app@cinder@@@Z@boost@@@signals2@boost@@Vmutex@45@@detail@signals2@boost@@@boost@@@std@@@std@@@2@@std@@@std@@@std@@@1@V?$_Tree_const_iterator@V?$_Tree_val@U?$_Tree_simple_types@U?$pair@$$CBU?$pair@W4slot_meta_group@detail@signals2@boost@@V?$optional@H@4@@std@@V?$_List_iterator@V?$_List_val@U?$_List_simple_types@V?$shared_ptr@V?$connection_body@U?$pair@W4slot_meta_group@detail@signals2@boost@@V?$optional@H@4@@std@@V?$slot1@XAAVFileDropEvent@app@cinder@@V?$function@$$A6AXAAVFileDropEvent@app@cinder@@@Z@boost@@@signals2@boost@@Vmutex@45@@detail@signals2@boost@@@boost@@@std@@@std@@@2@@std@@@std@@@std@@@1@AAU?$pair@$$CBU?$pair@W4slot_meta_group@detail@signals2@boost@@V?$optional@H@4@@std@@V?$_List_iterator@V?$_List_val@U?$_List_simple_types@V?$shared_ptr@V?$connection_body@U?$pair@W4slot_meta_group@detail@signals2@boost@@V?$optional@H@4@@std@@V?$slot1@XAAVFileDropEvent@app@cinder@@V?$function@$$A6AXAAVFileDropEvent@app@cinder@@@Z@boost@@@signals2@boost@@Vmutex@45@@detail@signals2@boost@@@boost@@@std@@@std@@@2@@1@PAU?$_Tree_node@U?$pair@$$CBU?$pair@W4slot_meta_group@detail@signals2@boost@@V?$optional@H@4@@std@@V?$_List_iterator@V?$_List_val@U?$_List_simple_types@V?$shared_ptr@V?$connection_body@U?$pair@W4slot_meta_group@detail@signals2@boost@@V?$optional@H@4@@std@@V?$slot1@XAAVFileDropEvent@app@cinder@@V?$function@$$A6AXAAVFileDropEvent@app@cinder@@@Z@boost@@@signals2@boost@@Vmutex@45@@detail@signals2@boost@@@boost@@@std@@@std@@@2@@std@@PAX@1@@Z 00409fe0 f i cinder:Window.obj
 0001:00008fe0       ??$_Insert_hint@AAU?$pair@$$CBU?$pair@W4slot_meta_group@detail@signals2@boost@@V?$optional@H@4@@std@@V?$_List_iterator@V?$_List_val@U?$_List_simple_types@V?$shared_ptr@V?$connection_body@U?$pair@W4slot_meta_group@detail@signals2@boost@@V?$optional@H@4@@std@@V?$slot1@XAAVTouchEvent@app@cinder@@V?$function@$$A6AXAAVTouchEvent@app@cinder@@@Z@boost@@@signals2@boost@@Vmutex@45@@detail@signals2@boost@@@boost@@@std@@@std@@@2@@std@@PAU?$_Tree_node@U?$pair@$$CBU?$pair@W4slot_meta_group@detail@signals2@boost@@V?$optional@H@4@@std@@V?$_List_iterator@V?$_List_val@U?$_List_simple_types@V?$shared_ptr@V?$connection_body@U?$pair@W4slot_meta_group@detail@signals2@boost@@V?$optional@H@4@@std@@V?$slot1@XAAVTouchEvent@app@cinder@@V?$function@$$A6AXAAVTouchEvent@app@cinder@@@Z@boost@@@signals2@boost@@Vmutex@45@@detail@signals2@boost@@@boost@@@std@@@std@@@2@@std@@PAX@2@@?$_Tree@V?$_Tmap_traits@U?$pair@W4slot_meta_group@detail@signals2@boost@@V?$optional@H@4@@std@@V?$_List_iterator@V?$_List_val@U?$_List_simple_types@V?$shared_ptr@V?$connection_body@U?$pair@W4slot_meta_group@detail@signals2@boost@@V?$optional@H@4@@std@@V?$slot1@XAAVTouchEvent@app@cinder@@V?$function@$$A6AXAAVTouchEvent@app@cinder@@@Z@boost@@@signals2@boost@@Vmutex@45@@detail@signals2@boost@@@boost@@@std@@@std@@@2@V?$group_key_less@HU?$less@H@std@@@detail@signals2@boost@@V?$allocator@U?$pair@$$CBU?$pair@W4slot_meta_group@detail@signals2@boost@@V?$optional@H@4@@std@@V?$_List_iterator@V?$_List_val@U?$_List_simple_types@V?$shared_ptr@V?$connection_body@U?$pair@W4slot_meta_group@detail@signals2@boost@@V?$optional@H@4@@std@@V?$slot1@XAAVTouchEvent@app@cinder@@V?$function@$$A6AXAAVTouchEvent@app@cinder@@@Z@boost@@@signals2@boost@@Vmutex@45@@detail@signals2@boost@@@boost@@@std@@@std@@@2@@std@@@2@$0A@@std@@@std@@IAE?AV?$_Tree_iterator@V?$_Tree_val@U?$_Tree_simple_types@U?$pair@$$CBU?$pair@W4slot_meta_group@detail@signals2@boost@@V?$optional@H@4@@std@@V?$_List_iterator@V?$_List_val@U?$_List_simple_types@V?$shared_ptr@V?$connection_body@U?$pair@W4slot_meta_group@detail@signals2@boost@@V?$optional@H@4@@std@@V?$slot1@XAAVTouchEvent@app@cinder@@V?$function@$$A6AXAAVTouchEvent@app@cinder@@@Z@boost@@@signals2@boost@@Vmutex@45@@detail@signals2@boost@@@boost@@@std@@@std@@@2@@std@@@std@@@std@@@1@V?$_Tree_const_iterator@V?$_Tree_val@U?$_Tree_simple_types@U?$pair@$$CBU?$pair@W4slot_meta_group@detail@signals2@boost@@V?$optional@H@4@@std@@V?$_List_iterator@V?$_List_val@U?$_List_simple_types@V?$shared_ptr@V?$connection_body@U?$pair@W4slot_meta_group@detail@signals2@boost@@V?$optional@H@4@@std@@V?$slot1@XAAVTouchEvent@app@cinder@@V?$function@$$A6AXAAVTouchEvent@app@cinder@@@Z@boost@@@signals2@boost@@Vmutex@45@@detail@signals2@boost@@@boost@@@std@@@std@@@2@@std@@@std@@@std@@@1@AAU?$pair@$$CBU?$pair@W4slot_meta_group@detail@signals2@boost@@V?$optional@H@4@@std@@V?$_List_iterator@V?$_List_val@U?$_List_simple_types@V?$shared_ptr@V?$connection_body@U?$pair@W4slot_meta_group@detail@signals2@boost@@V?$optional@H@4@@std@@V?$slot1@XAAVTouchEvent@app@cinder@@V?$function@$$A6AXAAVTouchEvent@app@cinder@@@Z@boost@@@signals2@boost@@Vmutex@45@@detail@signals2@boost@@@boost@@@std@@@std@@@2@@1@PAU?$_Tree_node@U?$pair@$$CBU?$pair@W4slot_meta_group@detail@signals2@boost@@V?$optional@H@4@@std@@V?$_List_iterator@V?$_List_val@U?$_List_simple_types@V?$shared_ptr@V?$connection_body@U?$pair@W4slot_meta_group@detail@signals2@boost@@V?$optional@H@4@@std@@V?$slot1@XAAVTouchEvent@app@cinder@@V?$function@$$A6AXAAVTouchEvent@app@cinder@@@Z@boost@@@signals2@boost@@Vmutex@45@@detail@signals2@boost@@@boost@@@std@@@std@@@2@@std@@PAX@1@@Z 00409fe0 f i cinder:Window.obj
 0001:00008fe0       ??$_Insert_hint@AAU?$pair@$$CBU?$pair@W4slot_meta_group@detail@signals2@boost@@V?$optional@H@4@@std@@V?$_List_iterator@V?$_List_val@U?$_List_simple_types@V?$shared_ptr@V?$connection_body@U?$pair@W4slot_meta_group@detail@signals2@boost@@V?$optional@H@4@@std@@V?$slot1@XAAVKeyEvent@app@cinder@@V?$function@$$A6AXAAVKeyEvent@app@cinder@@@Z@boost@@@signals2@boost@@Vmutex@45@@detail@signals2@boost@@@boost@@@std@@@std@@@2@@std@@PAU?$_Tree_node@U?$pair@$$CBU?$pair@W4slot_meta_group@detail@signals2@boost@@V?$optional@H@4@@std@@V?$_List_iterator@V?$_List_val@U?$_List_simple_types@V?$shared_ptr@V?$connection_body@U?$pair@W4slot_meta_group@detail@signals2@boost@@V?$optional@H@4@@std@@V?$slot1@XAAVKeyEvent@app@cinder@@V?$function@$$A6AXAAVKeyEvent@app@cinder@@@Z@boost@@@signals2@boost@@Vmutex@45@@detail@signals2@boost@@@boost@@@std@@@std@@@2@@std@@PAX@2@@?$_Tree@V?$_Tmap_traits@U?$pair@W4slot_meta_group@detail@signals2@boost@@V?$optional@H@4@@std@@V?$_List_iterator@V?$_List_val@U?$_List_simple_types@V?$shared_ptr@V?$connection_body@U?$pair@W4slot_meta_group@detail@signals2@boost@@V?$optional@H@4@@std@@V?$slot1@XAAVKeyEvent@app@cinder@@V?$function@$$A6AXAAVKeyEvent@app@cinder@@@Z@boost@@@signals2@boost@@Vmutex@45@@detail@signals2@boost@@@boost@@@std@@@std@@@2@V?$group_key_less@HU?$less@H@std@@@detail@signals2@boost@@V?$allocator@U?$pair@$$CBU?$pair@W4slot_meta_group@detail@signals2@boost@@V?$optional@H@4@@std@@V?$_List_iterator@V?$_List_val@U?$_List_simple_types@V?$shared_ptr@V?$connection_body@U?$pair@W4slot_meta_group@detail@signals2@boost@@V?$optional@H@4@@std@@V?$slot1@XAAVKeyEvent@app@cinder@@V?$function@$$A6AXAAVKeyEvent@app@cinder@@@Z@boost@@@signals2@boost@@Vmutex@45@@detail@signals2@boost@@@boost@@@std@@@std@@@2@@std@@@2@$0A@@std@@@std@@IAE?AV?$_Tree_iterator@V?$_Tree_val@U?$_Tree_simple_types@U?$pair@$$CBU?$pair@W4slot_meta_group@detail@signals2@boost@@V?$optional@H@4@@std@@V?$_List_iterator@V?$_List_val@U?$_List_simple_types@V?$shared_ptr@V?$connection_body@U?$pair@W4slot_meta_group@detail@signals2@boost@@V?$optional@H@4@@std@@V?$slot1@XAAVKeyEvent@app@cinder@@V?$function@$$A6AXAAVKeyEvent@app@cinder@@@Z@boost@@@signals2@boost@@Vmutex@45@@detail@signals2@boost@@@boost@@@std@@@std@@@2@@std@@@std@@@std@@@1@V?$_Tree_const_iterator@V?$_Tree_val@U?$_Tree_simple_types@U?$pair@$$CBU?$pair@W4slot_meta_group@detail@signals2@boost@@V?$optional@H@4@@std@@V?$_List_iterator@V?$_List_val@U?$_List_simple_types@V?$shared_ptr@V?$connection_body@U?$pair@W4slot_meta_group@detail@signals2@boost@@V?$optional@H@4@@std@@V?$slot1@XAAVKeyEvent@app@cinder@@V?$function@$$A6AXAAVKeyEvent@app@cinder@@@Z@boost@@@signals2@boost@@Vmutex@45@@detail@signals2@boost@@@boost@@@std@@@std@@@2@@std@@@std@@@std@@@1@AAU?$pair@$$CBU?$pair@W4slot_meta_group@detail@signals2@boost@@V?$optional@H@4@@std@@V?$_List_iterator@V?$_List_val@U?$_List_simple_types@V?$shared_ptr@V?$connection_body@U?$pair@W4slot_meta_group@detail@signals2@boost@@V?$optional@H@4@@std@@V?$slot1@XAAVKeyEvent@app@cinder@@V?$function@$$A6AXAAVKeyEvent@app@cinder@@@Z@boost@@@signals2@boost@@Vmutex@45@@detail@signals2@boost@@@boost@@@std@@@std@@@2@@1@PAU?$_Tree_node@U?$pair@$$CBU?$pair@W4slot_meta_group@detail@signals2@boost@@V?$optional@H@4@@std@@V?$_List_iterator@V?$_List_val@U?$_List_simple_types@V?$shared_ptr@V?$connection_body@U?$pair@W4slot_meta_group@detail@signals2@boost@@V?$optional@H@4@@std@@V?$slot1@XAAVKeyEvent@app@cinder@@V?$function@$$A6AXAAVKeyEvent@app@cinder@@@Z@boost@@@signals2@boost@@Vmutex@45@@detail@signals2@boost@@@boost@@@std@@@std@@@2@@std@@PAX@1@@Z 00409fe0 f i cinder:Window.obj
 0001:00008fe0       ??$_Insert_hint@AAU?$pair@$$CBU?$pair@W4slot_meta_group@detail@signals2@boost@@V?$optional@H@4@@std@@V?$_List_iterator@V?$_List_val@U?$_List_simple_types@V?$shared_ptr@V?$connection_body@U?$pair@W4slot_meta_group@detail@signals2@boost@@V?$optional@H@4@@std@@V?$slot0@XV?$function@$$A6AXXZ@boost@@@signals2@boost@@Vmutex@45@@detail@signals2@boost@@@boost@@@std@@@std@@@2@@std@@PAU?$_Tree_node@U?$pair@$$CBU?$pair@W4slot_meta_group@detail@signals2@boost@@V?$optional@H@4@@std@@V?$_List_iterator@V?$_List_val@U?$_List_simple_types@V?$shared_ptr@V?$connection_body@U?$pair@W4slot_meta_group@detail@signals2@boost@@V?$optional@H@4@@std@@V?$slot0@XV?$function@$$A6AXXZ@boost@@@signals2@boost@@Vmutex@45@@detail@signals2@boost@@@boost@@@std@@@std@@@2@@std@@PAX@2@@?$_Tree@V?$_Tmap_traits@U?$pair@W4slot_meta_group@detail@signals2@boost@@V?$optional@H@4@@std@@V?$_List_iterator@V?$_List_val@U?$_List_simple_types@V?$shared_ptr@V?$connection_body@U?$pair@W4slot_meta_group@detail@signals2@boost@@V?$optional@H@4@@std@@V?$slot0@XV?$function@$$A6AXXZ@boost@@@signals2@boost@@Vmutex@45@@detail@signals2@boost@@@boost@@@std@@@std@@@2@V?$group_key_less@HU?$less@H@std@@@detail@signals2@boost@@V?$allocator@U?$pair@$$CBU?$pair@W4slot_meta_group@detail@signals2@boost@@V?$optional@H@4@@std@@V?$_List_iterator@V?$_List_val@U?$_List_simple_types@V?$shared_ptr@V?$connection_body@U?$pair@W4slot_meta_group@detail@signals2@boost@@V?$optional@H@4@@std@@V?$slot0@XV?$function@$$A6AXXZ@boost@@@signals2@boost@@Vmutex@45@@detail@signals2@boost@@@boost@@@std@@@std@@@2@@std@@@2@$0A@@std@@@std@@IAE?AV?$_Tree_iterator@V?$_Tree_val@U?$_Tree_simple_types@U?$pair@$$CBU?$pair@W4slot_meta_group@detail@signals2@boost@@V?$optional@H@4@@std@@V?$_List_iterator@V?$_List_val@U?$_List_simple_types@V?$shared_ptr@V?$connection_body@U?$pair@W4slot_meta_group@detail@signals2@boost@@V?$optional@H@4@@std@@V?$slot0@XV?$function@$$A6AXXZ@boost@@@signals2@boost@@Vmutex@45@@detail@signals2@boost@@@boost@@@std@@@std@@@2@@std@@@std@@@std@@@1@V?$_Tree_const_iterator@V?$_Tree_val@U?$_Tree_simple_types@U?$pair@$$CBU?$pair@W4slot_meta_group@detail@signals2@boost@@V?$optional@H@4@@std@@V?$_List_iterator@V?$_List_val@U?$_List_simple_types@V?$shared_ptr@V?$connection_body@U?$pair@W4slot_meta_group@detail@signals2@boost@@V?$optional@H@4@@std@@V?$slot0@XV?$function@$$A6AXXZ@boost@@@signals2@boost@@Vmutex@45@@detail@signals2@boost@@@boost@@@std@@@std@@@2@@std@@@std@@@std@@@1@AAU?$pair@$$CBU?$pair@W4slot_meta_group@detail@signals2@boost@@V?$optional@H@4@@std@@V?$_List_iterator@V?$_List_val@U?$_List_simple_types@V?$shared_ptr@V?$connection_body@U?$pair@W4slot_meta_group@detail@signals2@boost@@V?$optional@H@4@@std@@V?$slot0@XV?$function@$$A6AXXZ@boost@@@signals2@boost@@Vmutex@45@@detail@signals2@boost@@@boost@@@std@@@std@@@2@@1@PAU?$_Tree_node@U?$pair@$$CBU?$pair@W4slot_meta_group@detail@signals2@boost@@V?$optional@H@4@@std@@V?$_List_iterator@V?$_List_val@U?$_List_simple_types@V?$shared_ptr@V?$connection_body@U?$pair@W4slot_meta_group@detail@signals2@boost@@V?$optional@H@4@@std@@V?$slot0@XV?$function@$$A6AXXZ@boost@@@signals2@boost@@Vmutex@45@@detail@signals2@boost@@@boost@@@std@@@std@@@2@@std@@PAX@1@@Z 00409fe0 f i cinder:Window.obj
 0001:00009250       ??$_Insert_nohint@AAU?$pair@$$CBU?$pair@W4slot_meta_group@detail@signals2@boost@@V?$optional@H@4@@std@@V?$_List_iterator@V?$_List_val@U?$_List_simple_types@V?$shared_ptr@V?$connection_body@U?$pair@W4slot_meta_group@detail@signals2@boost@@V?$optional@H@4@@std@@V?$slot1@XAAVKeyEvent@app@cinder@@V?$function@$$A6AXAAVKeyEvent@app@cinder@@@Z@boost@@@signals2@boost@@Vmutex@45@@detail@signals2@boost@@@boost@@@std@@@std@@@2@@std@@PAU?$_Tree_node@U?$pair@$$CBU?$pair@W4slot_meta_group@detail@signals2@boost@@V?$optional@H@4@@std@@V?$_List_iterator@V?$_List_val@U?$_List_simple_types@V?$shared_ptr@V?$connection_body@U?$pair@W4slot_meta_group@detail@signals2@boost@@V?$optional@H@4@@std@@V?$slot1@XAAVKeyEvent@app@cinder@@V?$function@$$A6AXAAVKeyEvent@app@cinder@@@Z@boost@@@signals2@boost@@Vmutex@45@@detail@signals2@boost@@@boost@@@std@@@std@@@2@@std@@PAX@2@@?$_Tree@V?$_Tmap_traits@U?$pair@W4slot_meta_group@detail@signals2@boost@@V?$optional@H@4@@std@@V?$_List_iterator@V?$_List_val@U?$_List_simple_types@V?$shared_ptr@V?$connection_body@U?$pair@W4slot_meta_group@detail@signals2@boost@@V?$optional@H@4@@std@@V?$slot1@XAAVKeyEvent@app@cinder@@V?$function@$$A6AXAAVKeyEvent@app@cinder@@@Z@boost@@@signals2@boost@@Vmutex@45@@detail@signals2@boost@@@boost@@@std@@@std@@@2@V?$group_key_less@HU?$less@H@std@@@detail@signals2@boost@@V?$allocator@U?$pair@$$CBU?$pair@W4slot_meta_group@detail@signals2@boost@@V?$optional@H@4@@std@@V?$_List_iterator@V?$_List_val@U?$_List_simple_types@V?$shared_ptr@V?$connection_body@U?$pair@W4slot_meta_group@detail@signals2@boost@@V?$optional@H@4@@std@@V?$slot1@XAAVKeyEvent@app@cinder@@V?$function@$$A6AXAAVKeyEvent@app@cinder@@@Z@boost@@@signals2@boost@@Vmutex@45@@detail@signals2@boost@@@boost@@@std@@@std@@@2@@std@@@2@$0A@@std@@@std@@IAE?AU?$pair@V?$_Tree_iterator@V?$_Tree_val@U?$_Tree_simple_types@U?$pair@$$CBU?$pair@W4slot_meta_group@detail@signals2@boost@@V?$optional@H@4@@std@@V?$_List_iterator@V?$_List_val@U?$_List_simple_types@V?$shared_ptr@V?$connection_body@U?$pair@W4slot_meta_group@detail@signals2@boost@@V?$optional@H@4@@std@@V?$slot1@XAAVKeyEvent@app@cinder@@V?$function@$$A6AXAAVKeyEvent@app@cinder@@@Z@boost@@@signals2@boost@@Vmutex@45@@detail@signals2@boost@@@boost@@@std@@@std@@@2@@std@@@std@@@std@@@std@@_N@1@_NAAU?$pair@$$CBU?$pair@W4slot_meta_group@detail@signals2@boost@@V?$optional@H@4@@std@@V?$_List_iterator@V?$_List_val@U?$_List_simple_types@V?$shared_ptr@V?$connection_body@U?$pair@W4slot_meta_group@detail@signals2@boost@@V?$optional@H@4@@std@@V?$slot1@XAAVKeyEvent@app@cinder@@V?$function@$$A6AXAAVKeyEvent@app@cinder@@@Z@boost@@@signals2@boost@@Vmutex@45@@detail@signals2@boost@@@boost@@@std@@@std@@@2@@1@PAU?$_Tree_node@U?$pair@$$CBU?$pair@W4slot_meta_group@detail@signals2@boost@@V?$optional@H@4@@std@@V?$_List_iterator@V?$_List_val@U?$_List_simple_types@V?$shared_ptr@V?$connection_body@U?$pair@W4slot_meta_group@detail@signals2@boost@@V?$optional@H@4@@std@@V?$slot1@XAAVKeyEvent@app@cinder@@V?$function@$$A6AXAAVKeyEvent@app@cinder@@@Z@boost@@@signals2@boost@@Vmutex@45@@detail@signals2@boost@@@boost@@@std@@@std@@@2@@std@@PAX@1@@Z 0040a250 f i cinder:Window.obj
 0001:00009250       ??$_Insert_nohint@AAU?$pair@$$CBU?$pair@W4slot_meta_group@detail@signals2@boost@@V?$optional@H@4@@std@@V?$_List_iterator@V?$_List_val@U?$_List_simple_types@V?$shared_ptr@V?$connection_body@U?$pair@W4slot_meta_group@detail@signals2@boost@@V?$optional@H@4@@std@@V?$slot1@XAAVTouchEvent@app@cinder@@V?$function@$$A6AXAAVTouchEvent@app@cinder@@@Z@boost@@@signals2@boost@@Vmutex@45@@detail@signals2@boost@@@boost@@@std@@@std@@@2@@std@@PAU?$_Tree_node@U?$pair@$$CBU?$pair@W4slot_meta_group@detail@signals2@boost@@V?$optional@H@4@@std@@V?$_List_iterator@V?$_List_val@U?$_List_simple_types@V?$shared_ptr@V?$connection_body@U?$pair@W4slot_meta_group@detail@signals2@boost@@V?$optional@H@4@@std@@V?$slot1@XAAVTouchEvent@app@cinder@@V?$function@$$A6AXAAVTouchEvent@app@cinder@@@Z@boost@@@signals2@boost@@Vmutex@45@@detail@signals2@boost@@@boost@@@std@@@std@@@2@@std@@PAX@2@@?$_Tree@V?$_Tmap_traits@U?$pair@W4slot_meta_group@detail@signals2@boost@@V?$optional@H@4@@std@@V?$_List_iterator@V?$_List_val@U?$_List_simple_types@V?$shared_ptr@V?$connection_body@U?$pair@W4slot_meta_group@detail@signals2@boost@@V?$optional@H@4@@std@@V?$slot1@XAAVTouchEvent@app@cinder@@V?$function@$$A6AXAAVTouchEvent@app@cinder@@@Z@boost@@@signals2@boost@@Vmutex@45@@detail@signals2@boost@@@boost@@@std@@@std@@@2@V?$group_key_less@HU?$less@H@std@@@detail@signals2@boost@@V?$allocator@U?$pair@$$CBU?$pair@W4slot_meta_group@detail@signals2@boost@@V?$optional@H@4@@std@@V?$_List_iterator@V?$_List_val@U?$_List_simple_types@V?$shared_ptr@V?$connection_body@U?$pair@W4slot_meta_group@detail@signals2@boost@@V?$optional@H@4@@std@@V?$slot1@XAAVTouchEvent@app@cinder@@V?$function@$$A6AXAAVTouchEvent@app@cinder@@@Z@boost@@@signals2@boost@@Vmutex@45@@detail@signals2@boost@@@boost@@@std@@@std@@@2@@std@@@2@$0A@@std@@@std@@IAE?AU?$pair@V?$_Tree_iterator@V?$_Tree_val@U?$_Tree_simple_types@U?$pair@$$CBU?$pair@W4slot_meta_group@detail@signals2@boost@@V?$optional@H@4@@std@@V?$_List_iterator@V?$_List_val@U?$_List_simple_types@V?$shared_ptr@V?$connection_body@U?$pair@W4slot_meta_group@detail@signals2@boost@@V?$optional@H@4@@std@@V?$slot1@XAAVTouchEvent@app@cinder@@V?$function@$$A6AXAAVTouchEvent@app@cinder@@@Z@boost@@@signals2@boost@@Vmutex@45@@detail@signals2@boost@@@boost@@@std@@@std@@@2@@std@@@std@@@std@@@std@@_N@1@_NAAU?$pair@$$CBU?$pair@W4slot_meta_group@detail@signals2@boost@@V?$optional@H@4@@std@@V?$_List_iterator@V?$_List_val@U?$_List_simple_types@V?$shared_ptr@V?$connection_body@U?$pair@W4slot_meta_group@detail@signals2@boost@@V?$optional@H@4@@std@@V?$slot1@XAAVTouchEvent@app@cinder@@V?$function@$$A6AXAAVTouchEvent@app@cinder@@@Z@boost@@@signals2@boost@@Vmutex@45@@detail@signals2@boost@@@boost@@@std@@@std@@@2@@1@PAU?$_Tree_node@U?$pair@$$CBU?$pair@W4slot_meta_group@detail@signals2@boost@@V?$optional@H@4@@std@@V?$_List_iterator@V?$_List_val@U?$_List_simple_types@V?$shared_ptr@V?$connection_body@U?$pair@W4slot_meta_group@detail@signals2@boost@@V?$optional@H@4@@std@@V?$slot1@XAAVTouchEvent@app@cinder@@V?$function@$$A6AXAAVTouchEvent@app@cinder@@@Z@boost@@@signals2@boost@@Vmutex@45@@detail@signals2@boost@@@boost@@@std@@@std@@@2@@std@@PAX@1@@Z 0040a250 f i cinder:Window.obj
 0001:00009250       ??$_Insert_nohint@AAU?$pair@$$CBU?$pair@W4slot_meta_group@detail@signals2@boost@@V?$optional@H@4@@std@@V?$_List_iterator@V?$_List_val@U?$_List_simple_types@V?$shared_ptr@V?$connection_body@U?$pair@W4slot_meta_group@detail@signals2@boost@@V?$optional@H@4@@std@@V?$slot0@XV?$function@$$A6AXXZ@boost@@@signals2@boost@@Vmutex@45@@detail@signals2@boost@@@boost@@@std@@@std@@@2@@std@@PAU?$_Tree_node@U?$pair@$$CBU?$pair@W4slot_meta_group@detail@signals2@boost@@V?$optional@H@4@@std@@V?$_List_iterator@V?$_List_val@U?$_List_simple_types@V?$shared_ptr@V?$connection_body@U?$pair@W4slot_meta_group@detail@signals2@boost@@V?$optional@H@4@@std@@V?$slot0@XV?$function@$$A6AXXZ@boost@@@signals2@boost@@Vmutex@45@@detail@signals2@boost@@@boost@@@std@@@std@@@2@@std@@PAX@2@@?$_Tree@V?$_Tmap_traits@U?$pair@W4slot_meta_group@detail@signals2@boost@@V?$optional@H@4@@std@@V?$_List_iterator@V?$_List_val@U?$_List_simple_types@V?$shared_ptr@V?$connection_body@U?$pair@W4slot_meta_group@detail@signals2@boost@@V?$optional@H@4@@std@@V?$slot0@XV?$function@$$A6AXXZ@boost@@@signals2@boost@@Vmutex@45@@detail@signals2@boost@@@boost@@@std@@@std@@@2@V?$group_key_less@HU?$less@H@std@@@detail@signals2@boost@@V?$allocator@U?$pair@$$CBU?$pair@W4slot_meta_group@detail@signals2@boost@@V?$optional@H@4@@std@@V?$_List_iterator@V?$_List_val@U?$_List_simple_types@V?$shared_ptr@V?$connection_body@U?$pair@W4slot_meta_group@detail@signals2@boost@@V?$optional@H@4@@std@@V?$slot0@XV?$function@$$A6AXXZ@boost@@@signals2@boost@@Vmutex@45@@detail@signals2@boost@@@boost@@@std@@@std@@@2@@std@@@2@$0A@@std@@@std@@IAE?AU?$pair@V?$_Tree_iterator@V?$_Tree_val@U?$_Tree_simple_types@U?$pair@$$CBU?$pair@W4slot_meta_group@detail@signals2@boost@@V?$optional@H@4@@std@@V?$_List_iterator@V?$_List_val@U?$_List_simple_types@V?$shared_ptr@V?$connection_body@U?$pair@W4slot_meta_group@detail@signals2@boost@@V?$optional@H@4@@std@@V?$slot0@XV?$function@$$A6AXXZ@boost@@@signals2@boost@@Vmutex@45@@detail@signals2@boost@@@boost@@@std@@@std@@@2@@std@@@std@@@std@@@std@@_N@1@_NAAU?$pair@$$CBU?$pair@W4slot_meta_group@detail@signals2@boost@@V?$optional@H@4@@std@@V?$_List_iterator@V?$_List_val@U?$_List_simple_types@V?$shared_ptr@V?$connection_body@U?$pair@W4slot_meta_group@detail@signals2@boost@@V?$optional@H@4@@std@@V?$slot0@XV?$function@$$A6AXXZ@boost@@@signals2@boost@@Vmutex@45@@detail@signals2@boost@@@boost@@@std@@@std@@@2@@1@PAU?$_Tree_node@U?$pair@$$CBU?$pair@W4slot_meta_group@detail@signals2@boost@@V?$optional@H@4@@std@@V?$_List_iterator@V?$_List_val@U?$_List_simple_types@V?$shared_ptr@V?$connection_body@U?$pair@W4slot_meta_group@detail@signals2@boost@@V?$optional@H@4@@std@@V?$slot0@XV?$function@$$A6AXXZ@boost@@@signals2@boost@@Vmutex@45@@detail@signals2@boost@@@boost@@@std@@@std@@@2@@std@@PAX@1@@Z 0040a250 f i cinder:Window.obj
 0001:00009250       ??$_Insert_nohint@AAU?$pair@$$CBU?$pair@W4slot_meta_group@detail@signals2@boost@@V?$optional@H@4@@std@@V?$_List_iterator@V?$_List_val@U?$_List_simple_types@V?$shared_ptr@V?$connection_body@U?$pair@W4slot_meta_group@detail@signals2@boost@@V?$optional@H@4@@std@@V?$slot1@XAAVFileDropEvent@app@cinder@@V?$function@$$A6AXAAVFileDropEvent@app@cinder@@@Z@boost@@@signals2@boost@@Vmutex@45@@detail@signals2@boost@@@boost@@@std@@@std@@@2@@std@@PAU?$_Tree_node@U?$pair@$$CBU?$pair@W4slot_meta_group@detail@signals2@boost@@V?$optional@H@4@@std@@V?$_List_iterator@V?$_List_val@U?$_List_simple_types@V?$shared_ptr@V?$connection_body@U?$pair@W4slot_meta_group@detail@signals2@boost@@V?$optional@H@4@@std@@V?$slot1@XAAVFileDropEvent@app@cinder@@V?$function@$$A6AXAAVFileDropEvent@app@cinder@@@Z@boost@@@signals2@boost@@Vmutex@45@@detail@signals2@boost@@@boost@@@std@@@std@@@2@@std@@PAX@2@@?$_Tree@V?$_Tmap_traits@U?$pair@W4slot_meta_group@detail@signals2@boost@@V?$optional@H@4@@std@@V?$_List_iterator@V?$_List_val@U?$_List_simple_types@V?$shared_ptr@V?$connection_body@U?$pair@W4slot_meta_group@detail@signals2@boost@@V?$optional@H@4@@std@@V?$slot1@XAAVFileDropEvent@app@cinder@@V?$function@$$A6AXAAVFileDropEvent@app@cinder@@@Z@boost@@@signals2@boost@@Vmutex@45@@detail@signals2@boost@@@boost@@@std@@@std@@@2@V?$group_key_less@HU?$less@H@std@@@detail@signals2@boost@@V?$allocator@U?$pair@$$CBU?$pair@W4slot_meta_group@detail@signals2@boost@@V?$optional@H@4@@std@@V?$_List_iterator@V?$_List_val@U?$_List_simple_types@V?$shared_ptr@V?$connection_body@U?$pair@W4slot_meta_group@detail@signals2@boost@@V?$optional@H@4@@std@@V?$slot1@XAAVFileDropEvent@app@cinder@@V?$function@$$A6AXAAVFileDropEvent@app@cinder@@@Z@boost@@@signals2@boost@@Vmutex@45@@detail@signals2@boost@@@boost@@@std@@@std@@@2@@std@@@2@$0A@@std@@@std@@IAE?AU?$pair@V?$_Tree_iterator@V?$_Tree_val@U?$_Tree_simple_types@U?$pair@$$CBU?$pair@W4slot_meta_group@detail@signals2@boost@@V?$optional@H@4@@std@@V?$_List_iterator@V?$_List_val@U?$_List_simple_types@V?$shared_ptr@V?$connection_body@U?$pair@W4slot_meta_group@detail@signals2@boost@@V?$optional@H@4@@std@@V?$slot1@XAAVFileDropEvent@app@cinder@@V?$function@$$A6AXAAVFileDropEvent@app@cinder@@@Z@boost@@@signals2@boost@@Vmutex@45@@detail@signals2@boost@@@boost@@@std@@@std@@@2@@std@@@std@@@std@@@std@@_N@1@_NAAU?$pair@$$CBU?$pair@W4slot_meta_group@detail@signals2@boost@@V?$optional@H@4@@std@@V?$_List_iterator@V?$_List_val@U?$_List_simple_types@V?$shared_ptr@V?$connection_body@U?$pair@W4slot_meta_group@detail@signals2@boost@@V?$optional@H@4@@std@@V?$slot1@XAAVFileDropEvent@app@cinder@@V?$function@$$A6AXAAVFileDropEvent@app@cinder@@@Z@boost@@@signals2@boost@@Vmutex@45@@detail@signals2@boost@@@boost@@@std@@@std@@@2@@1@PAU?$_Tree_node@U?$pair@$$CBU?$pair@W4slot_meta_group@detail@signals2@boost@@V?$optional@H@4@@std@@V?$_List_iterator@V?$_List_val@U?$_List_simple_types@V?$shared_ptr@V?$connection_body@U?$pair@W4slot_meta_group@detail@signals2@boost@@V?$optional@H@4@@std@@V?$slot1@XAAVFileDropEvent@app@cinder@@V?$function@$$A6AXAAVFileDropEvent@app@cinder@@@Z@boost@@@signals2@boost@@Vmutex@45@@detail@signals2@boost@@@boost@@@std@@@std@@@2@@std@@PAX@1@@Z 0040a250 f i cinder:Window.obj
 0001:00009250       ??$_Insert_nohint@AAU?$pair@$$CBU?$pair@W4slot_meta_group@detail@signals2@boost@@V?$optional@H@4@@std@@V?$_List_iterator@V?$_List_val@U?$_List_simple_types@V?$shared_ptr@V?$connection_body@U?$pair@W4slot_meta_group@detail@signals2@boost@@V?$optional@H@4@@std@@V?$slot1@XAAVMouseEvent@app@cinder@@V?$function@$$A6AXAAVMouseEvent@app@cinder@@@Z@boost@@@signals2@boost@@Vmutex@45@@detail@signals2@boost@@@boost@@@std@@@std@@@2@@std@@PAU?$_Tree_node@U?$pair@$$CBU?$pair@W4slot_meta_group@detail@signals2@boost@@V?$optional@H@4@@std@@V?$_List_iterator@V?$_List_val@U?$_List_simple_types@V?$shared_ptr@V?$connection_body@U?$pair@W4slot_meta_group@detail@signals2@boost@@V?$optional@H@4@@std@@V?$slot1@XAAVMouseEvent@app@cinder@@V?$function@$$A6AXAAVMouseEvent@app@cinder@@@Z@boost@@@signals2@boost@@Vmutex@45@@detail@signals2@boost@@@boost@@@std@@@std@@@2@@std@@PAX@2@@?$_Tree@V?$_Tmap_traits@U?$pair@W4slot_meta_group@detail@signals2@boost@@V?$optional@H@4@@std@@V?$_List_iterator@V?$_List_val@U?$_List_simple_types@V?$shared_ptr@V?$connection_body@U?$pair@W4slot_meta_group@detail@signals2@boost@@V?$optional@H@4@@std@@V?$slot1@XAAVMouseEvent@app@cinder@@V?$function@$$A6AXAAVMouseEvent@app@cinder@@@Z@boost@@@signals2@boost@@Vmutex@45@@detail@signals2@boost@@@boost@@@std@@@std@@@2@V?$group_key_less@HU?$less@H@std@@@detail@signals2@boost@@V?$allocator@U?$pair@$$CBU?$pair@W4slot_meta_group@detail@signals2@boost@@V?$optional@H@4@@std@@V?$_List_iterator@V?$_List_val@U?$_List_simple_types@V?$shared_ptr@V?$connection_body@U?$pair@W4slot_meta_group@detail@signals2@boost@@V?$optional@H@4@@std@@V?$slot1@XAAVMouseEvent@app@cinder@@V?$function@$$A6AXAAVMouseEvent@app@cinder@@@Z@boost@@@signals2@boost@@Vmutex@45@@detail@signals2@boost@@@boost@@@std@@@std@@@2@@std@@@2@$0A@@std@@@std@@IAE?AU?$pair@V?$_Tree_iterator@V?$_Tree_val@U?$_Tree_simple_types@U?$pair@$$CBU?$pair@W4slot_meta_group@detail@signals2@boost@@V?$optional@H@4@@std@@V?$_List_iterator@V?$_List_val@U?$_List_simple_types@V?$shared_ptr@V?$connection_body@U?$pair@W4slot_meta_group@detail@signals2@boost@@V?$optional@H@4@@std@@V?$slot1@XAAVMouseEvent@app@cinder@@V?$function@$$A6AXAAVMouseEvent@app@cinder@@@Z@boost@@@signals2@boost@@Vmutex@45@@detail@signals2@boost@@@boost@@@std@@@std@@@2@@std@@@std@@@std@@@std@@_N@1@_NAAU?$pair@$$CBU?$pair@W4slot_meta_group@detail@signals2@boost@@V?$optional@H@4@@std@@V?$_List_iterator@V?$_List_val@U?$_List_simple_types@V?$shared_ptr@V?$connection_body@U?$pair@W4slot_meta_group@detail@signals2@boost@@V?$optional@H@4@@std@@V?$slot1@XAAVMouseEvent@app@cinder@@V?$function@$$A6AXAAVMouseEvent@app@cinder@@@Z@boost@@@signals2@boost@@Vmutex@45@@detail@signals2@boost@@@boost@@@std@@@std@@@2@@1@PAU?$_Tree_node@U?$pair@$$CBU?$pair@W4slot_meta_group@detail@signals2@boost@@V?$optional@H@4@@std@@V?$_List_iterator@V?$_List_val@U?$_List_simple_types@V?$shared_ptr@V?$connection_body@U?$pair@W4slot_meta_group@detail@signals2@boost@@V?$optional@H@4@@std@@V?$slot1@XAAVMouseEvent@app@cinder@@V?$function@$$A6AXAAVMouseEvent@app@cinder@@@Z@boost@@@signals2@boost@@Vmutex@45@@detail@signals2@boost@@@boost@@@std@@@std@@@2@@std@@PAX@1@@Z 0040a250 f i cinder:Window.obj
 0001:000093c0       ??$_Insert_range@V?$_List_const_iterator@V?$_List_val@U?$_List_simple_types@V?$shared_ptr@V?$connection_body@U?$pair@W4slot_meta_group@detail@signals2@boost@@V?$optional@H@4@@std@@V?$slot1@XAAVTouchEvent@app@cinder@@V?$function@$$A6AXAAVTouchEvent@app@cinder@@@Z@boost@@@signals2@boost@@Vmutex@45@@detail@signals2@boost@@@boost@@@std@@@std@@@std@@@?$list@V?$shared_ptr@V?$connection_body@U?$pair@W4slot_meta_group@detail@signals2@boost@@V?$optional@H@4@@std@@V?$slot1@XAAVTouchEvent@app@cinder@@V?$function@$$A6AXAAVTouchEvent@app@cinder@@@Z@boost@@@signals2@boost@@Vmutex@45@@detail@signals2@boost@@@boost@@V?$allocator@V?$shared_ptr@V?$connection_body@U?$pair@W4slot_meta_group@detail@signals2@boost@@V?$optional@H@4@@std@@V?$slot1@XAAVTouchEvent@app@cinder@@V?$function@$$A6AXAAVTouchEvent@app@cinder@@@Z@boost@@@signals2@boost@@Vmutex@45@@detail@signals2@boost@@@boost@@@std@@@std@@QAEXV?$_List_unchecked_const_iterator@V?$_List_val@U?$_List_simple_types@V?$shared_ptr@V?$connection_body@U?$pair@W4slot_meta_group@detail@signals2@boost@@V?$optional@H@4@@std@@V?$slot1@XAAVTouchEvent@app@cinder@@V?$function@$$A6AXAAVTouchEvent@app@cinder@@@Z@boost@@@signals2@boost@@Vmutex@45@@detail@signals2@boost@@@boost@@@std@@@std@@U_Iterator_base0@2@@1@V?$_List_const_iterator@V?$_List_val@U?$_List_simple_types@V?$shared_ptr@V?$connection_body@U?$pair@W4slot_meta_group@detail@signals2@boost@@V?$optional@H@4@@std@@V?$slot1@XAAVTouchEvent@app@cinder@@V?$function@$$A6AXAAVTouchEvent@app@cinder@@@Z@boost@@@signals2@boost@@Vmutex@45@@detail@signals2@boost@@@boost@@@std@@@std@@@1@1Uforward_iterator_tag@1@@Z 0040a3c0 f i cinder:Window.obj
 0001:000093c0       ??$_Insert_range@V?$_List_const_iterator@V?$_List_val@U?$_List_simple_types@V?$shared_ptr@V?$connection_body@U?$pair@W4slot_meta_group@detail@signals2@boost@@V?$optional@H@4@@std@@V?$slot0@XV?$function@$$A6AXXZ@boost@@@signals2@boost@@Vmutex@45@@detail@signals2@boost@@@boost@@@std@@@std@@@std@@@?$list@V?$shared_ptr@V?$connection_body@U?$pair@W4slot_meta_group@detail@signals2@boost@@V?$optional@H@4@@std@@V?$slot0@XV?$function@$$A6AXXZ@boost@@@signals2@boost@@Vmutex@45@@detail@signals2@boost@@@boost@@V?$allocator@V?$shared_ptr@V?$connection_body@U?$pair@W4slot_meta_group@detail@signals2@boost@@V?$optional@H@4@@std@@V?$slot0@XV?$function@$$A6AXXZ@boost@@@signals2@boost@@Vmutex@45@@detail@signals2@boost@@@boost@@@std@@@std@@QAEXV?$_List_unchecked_const_iterator@V?$_List_val@U?$_List_simple_types@V?$shared_ptr@V?$connection_body@U?$pair@W4slot_meta_group@detail@signals2@boost@@V?$optional@H@4@@std@@V?$slot0@XV?$function@$$A6AXXZ@boost@@@signals2@boost@@Vmutex@45@@detail@signals2@boost@@@boost@@@std@@@std@@U_Iterator_base0@2@@1@V?$_List_const_iterator@V?$_List_val@U?$_List_simple_types@V?$shared_ptr@V?$connection_body@U?$pair@W4slot_meta_group@detail@signals2@boost@@V?$optional@H@4@@std@@V?$slot0@XV?$function@$$A6AXXZ@boost@@@signals2@boost@@Vmutex@45@@detail@signals2@boost@@@boost@@@std@@@std@@@1@1Uforward_iterator_tag@1@@Z 0040a3c0 f i cinder:Window.obj
 0001:000093c0       ??$_Insert_range@V?$_List_const_iterator@V?$_List_val@U?$_List_simple_types@V?$shared_ptr@V?$connection_body@U?$pair@W4slot_meta_group@detail@signals2@boost@@V?$optional@H@4@@std@@V?$slot1@XAAVMouseEvent@app@cinder@@V?$function@$$A6AXAAVMouseEvent@app@cinder@@@Z@boost@@@signals2@boost@@Vmutex@45@@detail@signals2@boost@@@boost@@@std@@@std@@@std@@@?$list@V?$shared_ptr@V?$connection_body@U?$pair@W4slot_meta_group@detail@signals2@boost@@V?$optional@H@4@@std@@V?$slot1@XAAVMouseEvent@app@cinder@@V?$function@$$A6AXAAVMouseEvent@app@cinder@@@Z@boost@@@signals2@boost@@Vmutex@45@@detail@signals2@boost@@@boost@@V?$allocator@V?$shared_ptr@V?$connection_body@U?$pair@W4slot_meta_group@detail@signals2@boost@@V?$optional@H@4@@std@@V?$slot1@XAAVMouseEvent@app@cinder@@V?$function@$$A6AXAAVMouseEvent@app@cinder@@@Z@boost@@@signals2@boost@@Vmutex@45@@detail@signals2@boost@@@boost@@@std@@@std@@QAEXV?$_List_unchecked_const_iterator@V?$_List_val@U?$_List_simple_types@V?$shared_ptr@V?$connection_body@U?$pair@W4slot_meta_group@detail@signals2@boost@@V?$optional@H@4@@std@@V?$slot1@XAAVMouseEvent@app@cinder@@V?$function@$$A6AXAAVMouseEvent@app@cinder@@@Z@boost@@@signals2@boost@@Vmutex@45@@detail@signals2@boost@@@boost@@@std@@@std@@U_Iterator_base0@2@@1@V?$_List_const_iterator@V?$_List_val@U?$_List_simple_types@V?$shared_ptr@V?$connection_body@U?$pair@W4slot_meta_group@detail@signals2@boost@@V?$optional@H@4@@std@@V?$slot1@XAAVMouseEvent@app@cinder@@V?$function@$$A6AXAAVMouseEvent@app@cinder@@@Z@boost@@@signals2@boost@@Vmutex@45@@detail@signals2@boost@@@boost@@@std@@@std@@@1@1Uforward_iterator_tag@1@@Z 0040a3c0 f i cinder:Window.obj
 0001:000093c0       ??$_Insert_range@V?$_List_const_iterator@V?$_List_val@U?$_List_simple_types@V?$shared_ptr@V?$connection_body@U?$pair@W4slot_meta_group@detail@signals2@boost@@V?$optional@H@4@@std@@V?$slot1@XAAVKeyEvent@app@cinder@@V?$function@$$A6AXAAVKeyEvent@app@cinder@@@Z@boost@@@signals2@boost@@Vmutex@45@@detail@signals2@boost@@@boost@@@std@@@std@@@std@@@?$list@V?$shared_ptr@V?$connection_body@U?$pair@W4slot_meta_group@detail@signals2@boost@@V?$optional@H@4@@std@@V?$slot1@XAAVKeyEvent@app@cinder@@V?$function@$$A6AXAAVKeyEvent@app@cinder@@@Z@boost@@@signals2@boost@@Vmutex@45@@detail@signals2@boost@@@boost@@V?$allocator@V?$shared_ptr@V?$connection_body@U?$pair@W4slot_meta_group@detail@signals2@boost@@V?$optional@H@4@@std@@V?$slot1@XAAVKeyEvent@app@cinder@@V?$function@$$A6AXAAVKeyEvent@app@cinder@@@Z@boost@@@signals2@boost@@Vmutex@45@@detail@signals2@boost@@@boost@@@std@@@std@@QAEXV?$_List_unchecked_const_iterator@V?$_List_val@U?$_List_simple_types@V?$shared_ptr@V?$connection_body@U?$pair@W4slot_meta_group@detail@signals2@boost@@V?$optional@H@4@@std@@V?$slot1@XAAVKeyEvent@app@cinder@@V?$function@$$A6AXAAVKeyEvent@app@cinder@@@Z@boost@@@signals2@boost@@Vmutex@45@@detail@signals2@boost@@@boost@@@std@@@std@@U_Iterator_base0@2@@1@V?$_List_const_iterator@V?$_List_val@U?$_List_simple_types@V?$shared_ptr@V?$connection_body@U?$pair@W4slot_meta_group@detail@signals2@boost@@V?$optional@H@4@@std@@V?$slot1@XAAVKeyEvent@app@cinder@@V?$function@$$A6AXAAVKeyEvent@app@cinder@@@Z@boost@@@signals2@boost@@Vmutex@45@@detail@signals2@boost@@@boost@@@std@@@std@@@1@1Uforward_iterator_tag@1@@Z 0040a3c0 f i cinder:Window.obj
 0001:000093c0       ??$_Insert_range@V?$_List_const_iterator@V?$_List_val@U?$_List_simple_types@V?$shared_ptr@V?$connection_body@U?$pair@W4slot_meta_group@detail@signals2@boost@@V?$optional@H@4@@std@@V?$slot0@_NV?$function@$$A6A_NXZ@boost@@@signals2@boost@@Vmutex@45@@detail@signals2@boost@@@boost@@@std@@@std@@@std@@@?$list@V?$shared_ptr@V?$connection_body@U?$pair@W4slot_meta_group@detail@signals2@boost@@V?$optional@H@4@@std@@V?$slot0@_NV?$function@$$A6A_NXZ@boost@@@signals2@boost@@Vmutex@45@@detail@signals2@boost@@@boost@@V?$allocator@V?$shared_ptr@V?$connection_body@U?$pair@W4slot_meta_group@detail@signals2@boost@@V?$optional@H@4@@std@@V?$slot0@_NV?$function@$$A6A_NXZ@boost@@@signals2@boost@@Vmutex@45@@detail@signals2@boost@@@boost@@@std@@@std@@QAEXV?$_List_unchecked_const_iterator@V?$_List_val@U?$_List_simple_types@V?$shared_ptr@V?$connection_body@U?$pair@W4slot_meta_group@detail@signals2@boost@@V?$optional@H@4@@std@@V?$slot0@_NV?$function@$$A6A_NXZ@boost@@@signals2@boost@@Vmutex@45@@detail@signals2@boost@@@boost@@@std@@@std@@U_Iterator_base0@2@@1@V?$_List_const_iterator@V?$_List_val@U?$_List_simple_types@V?$shared_ptr@V?$connection_body@U?$pair@W4slot_meta_group@detail@signals2@boost@@V?$optional@H@4@@std@@V?$slot0@_NV?$function@$$A6A_NXZ@boost@@@signals2@boost@@Vmutex@45@@detail@signals2@boost@@@boost@@@std@@@std@@@1@1Uforward_iterator_tag@1@@Z 0040a3c0 f i cinder:AppBasic.obj
 0001:000093c0       ??$_Insert_range@V?$_List_const_iterator@V?$_List_val@U?$_List_simple_types@V?$shared_ptr@V?$connection_body@U?$pair@W4slot_meta_group@detail@signals2@boost@@V?$optional@H@4@@std@@V?$slot1@XAAVFileDropEvent@app@cinder@@V?$function@$$A6AXAAVFileDropEvent@app@cinder@@@Z@boost@@@signals2@boost@@Vmutex@45@@detail@signals2@boost@@@boost@@@std@@@std@@@std@@@?$list@V?$shared_ptr@V?$connection_body@U?$pair@W4slot_meta_group@detail@signals2@boost@@V?$optional@H@4@@std@@V?$slot1@XAAVFileDropEvent@app@cinder@@V?$function@$$A6AXAAVFileDropEvent@app@cinder@@@Z@boost@@@signals2@boost@@Vmutex@45@@detail@signals2@boost@@@boost@@V?$allocator@V?$shared_ptr@V?$connection_body@U?$pair@W4slot_meta_group@detail@signals2@boost@@V?$optional@H@4@@std@@V?$slot1@XAAVFileDropEvent@app@cinder@@V?$function@$$A6AXAAVFileDropEvent@app@cinder@@@Z@boost@@@signals2@boost@@Vmutex@45@@detail@signals2@boost@@@boost@@@std@@@std@@QAEXV?$_List_unchecked_const_iterator@V?$_List_val@U?$_List_simple_types@V?$shared_ptr@V?$connection_body@U?$pair@W4slot_meta_group@detail@signals2@boost@@V?$optional@H@4@@std@@V?$slot1@XAAVFileDropEvent@app@cinder@@V?$function@$$A6AXAAVFileDropEvent@app@cinder@@@Z@boost@@@signals2@boost@@Vmutex@45@@detail@signals2@boost@@@boost@@@std@@@std@@U_Iterator_base0@2@@1@V?$_List_const_iterator@V?$_List_val@U?$_List_simple_types@V?$shared_ptr@V?$connection_body@U?$pair@W4slot_meta_group@detail@signals2@boost@@V?$optional@H@4@@std@@V?$slot1@XAAVFileDropEvent@app@cinder@@V?$function@$$A6AXAAVFileDropEvent@app@cinder@@@Z@boost@@@signals2@boost@@Vmutex@45@@detail@signals2@boost@@@boost@@@std@@@std@@@1@1Uforward_iterator_tag@1@@Z 0040a3c0 f i cinder:Window.obj
 0001:00009490       ??$_Uninit_copy@V?$_Vector_const_iterator@V?$_Vector_val@U?$_Simple_types@VTouch@TouchEvent@app@cinder@@@std@@@std@@@std@@PAVTouch@TouchEvent@app@cinder@@V?$allocator@VTouch@TouchEvent@app@cinder@@@2@@std@@YAPAVTouch@TouchEvent@app@cinder@@V?$_Vector_const_iterator@V?$_Vector_val@U?$_Simple_types@VTouch@TouchEvent@app@cinder@@@std@@@std@@@0@0PAV1234@AAU?$_Wrap_alloc@V?$allocator@VTouch@TouchEvent@app@cinder@@@std@@@0@U_Nonscalar_ptr_iterator_tag@0@@Z 0040a490 f i cinder:Window.obj
 0001:000094f0       ??$_Uninit_copy@V?$_Vector_const_iterator@V?$_Vector_val@U?$_Simple_types@Vpath@filesystem@boost@@@std@@@std@@@std@@PAVpath@filesystem@boost@@V?$allocator@Vpath@filesystem@boost@@@2@@std@@YAPAVpath@filesystem@boost@@V?$_Vector_const_iterator@V?$_Vector_val@U?$_Simple_types@Vpath@filesystem@boost@@@std@@@std@@@0@0PAV123@AAU?$_Wrap_alloc@V?$allocator@Vpath@filesystem@boost@@@std@@@0@U_Nonscalar_ptr_iterator_tag@0@@Z 0040a4f0 f i cinder:Window.obj
 0001:000095b0       ??$_Uninitialized_copy0@PAV?$variant@V?$shared_ptr@X@boost@@Vforeign_void_shared_ptr@detail@signals2@2@Uvoid_@042@U6042@U6042@U6042@U6042@U6042@U6042@U6042@U6042@U6042@U6042@U6042@U6042@U6042@U6042@U6042@U6042@U6042@@boost@@PAV12@@std@@YAPAV?$variant@V?$shared_ptr@X@boost@@Vforeign_void_shared_ptr@detail@signals2@2@Uvoid_@042@U6042@U6042@U6042@U6042@U6042@U6042@U6042@U6042@U6042@U6042@U6042@U6042@U6042@U6042@U6042@U6042@U6042@@boost@@PAV12@00U_Nonscalar_ptr_iterator_tag@0@@Z 0040a5b0 f i cinder:Window.obj
 0001:000096b0       ??$apply_visitor@$$CBVlock_weak_ptr_visitor@detail@signals2@boost@@@?$variant@V?$weak_ptr@X@boost@@Vforeign_void_weak_ptr@detail@signals2@2@Uvoid_@042@U6042@U6042@U6042@U6042@U6042@U6042@U6042@U6042@U6042@U6042@U6042@U6042@U6042@U6042@U6042@U6042@U6042@@boost@@QBE?AV?$variant@V?$shared_ptr@X@boost@@Vforeign_void_shared_ptr@detail@signals2@2@Uvoid_@042@U6042@U6042@U6042@U6042@U6042@U6042@U6042@U6042@U6042@U6042@U6042@U6042@U6042@U6042@U6042@U6042@U6042@@1@ABVlock_weak_ptr_visitor@detail@signals2@1@@Z 0040a6b0 f i cinder:Window.obj
 0001:000096e0       ??$apply_visitor@Vlock_weak_ptr_visitor@detail@signals2@boost@@$$CBV?$variant@V?$weak_ptr@X@boost@@Vforeign_void_weak_ptr@detail@signals2@2@Uvoid_@042@U6042@U6042@U6042@U6042@U6042@U6042@U6042@U6042@U6042@U6042@U6042@U6042@U6042@U6042@U6042@U6042@U6042@@4@@boost@@YA?AV?$variant@V?$shared_ptr@X@boost@@Vforeign_void_shared_ptr@detail@signals2@2@Uvoid_@042@U6042@U6042@U6042@U6042@U6042@U6042@U6042@U6042@U6042@U6042@U6042@U6042@U6042@U6042@U6042@U6042@U6042@@0@ABVlock_weak_ptr_visitor@detail@signals2@0@ABV?$variant@V?$weak_ptr@X@boost@@Vforeign_void_weak_ptr@detail@signals2@2@Uvoid_@042@U6042@U6042@U6042@U6042@U6042@U6042@U6042@U6042@U6042@U6042@U6042@U6042@U6042@U6042@U6042@U6042@U6042@@0@@Z 0040a6e0 f i cinder:Window.obj
 0001:00009700       ??$enable_current_exception@U?$error_info_injector@Vbad_function_call@boost@@@exception_detail@boost@@@boost@@YA?AV?$clone_impl@U?$error_info_injector@Vbad_function_call@boost@@@exception_detail@boost@@@exception_detail@0@ABU?$error_info_injector@Vbad_function_call@boost@@@20@@Z 0040a700 f i cinder:Window.obj
 0001:000097b0       ??$enable_error_info@Vbad_function_call@boost@@@boost@@YA?AU?$error_info_injector@Vbad_function_call@boost@@@exception_detail@0@ABVbad_function_call@0@@Z 0040a7b0 f i cinder:Window.obj
 0001:00009800       ??$forced_return@X@variant@detail@boost@@YAXXZ 0040a800 f i cinder:Window.obj
 0001:00009810       ??$internal_apply_visitor@V?$invoke_visitor@$$CBVlock_weak_ptr_visitor@detail@signals2@boost@@@variant@detail@boost@@@?$variant@V?$weak_ptr@X@boost@@Vforeign_void_weak_ptr@detail@signals2@2@Uvoid_@042@U6042@U6042@U6042@U6042@U6042@U6042@U6042@U6042@U6042@U6042@U6042@U6042@U6042@U6042@U6042@U6042@U6042@@boost@@ABE?AV?$variant@V?$shared_ptr@X@boost@@Vforeign_void_shared_ptr@detail@signals2@2@Uvoid_@042@U6042@U6042@U6042@U6042@U6042@U6042@U6042@U6042@U6042@U6042@U6042@U6042@U6042@U6042@U6042@U6042@U6042@@1@AAV?$invoke_visitor@$$CBVlock_weak_ptr_visitor@detail@signals2@boost@@@variant@detail@1@@Z 0040a810 f i cinder:Window.obj
 0001:00009850       ??$internal_apply_visitor_impl@V?$invoke_visitor@$$CBVlock_weak_ptr_visitor@detail@signals2@boost@@@variant@detail@boost@@PBX@?$variant@V?$weak_ptr@X@boost@@Vforeign_void_weak_ptr@detail@signals2@2@Uvoid_@042@U6042@U6042@U6042@U6042@U6042@U6042@U6042@U6042@U6042@U6042@U6042@U6042@U6042@U6042@U6042@U6042@U6042@@boost@@CA?AV?$variant@V?$shared_ptr@X@boost@@Vforeign_void_shared_ptr@detail@signals2@2@Uvoid_@042@U6042@U6042@U6042@U6042@U6042@U6042@U6042@U6042@U6042@U6042@U6042@U6042@U6042@U6042@U6042@U6042@U6042@@1@HHAAV?$invoke_visitor@$$CBVlock_weak_ptr_visitor@detail@signals2@boost@@@variant@detail@1@PBX@Z 0040a850 f i cinder:Window.obj
 0001:00009890       ??$internal_visit@$$CBV?$weak_ptr@X@boost@@@?$invoke_visitor@$$CBVlock_weak_ptr_visitor@detail@signals2@boost@@@variant@detail@boost@@QAE?AV?$variant@V?$shared_ptr@X@boost@@Vforeign_void_shared_ptr@detail@signals2@2@Uvoid_@042@U6042@U6042@U6042@U6042@U6042@U6042@U6042@U6042@U6042@U6042@U6042@U6042@U6042@U6042@U6042@U6042@U6042@@3@ABV?$weak_ptr@X@3@H@Z 0040a890 f i cinder:Window.obj
 0001:000098c0       ??$internal_visit@$$CBVforeign_void_weak_ptr@detail@signals2@boost@@@?$invoke_visitor@$$CBVlock_weak_ptr_visitor@detail@signals2@boost@@@variant@detail@boost@@QAE?AV?$variant@V?$shared_ptr@X@boost@@Vforeign_void_shared_ptr@detail@signals2@2@Uvoid_@042@U6042@U6042@U6042@U6042@U6042@U6042@U6042@U6042@U6042@U6042@U6042@U6042@U6042@U6042@U6042@U6042@U6042@@3@ABVforeign_void_weak_ptr@2signals2@3@H@Z 0040a8c0 f i cinder:Window.obj
 0001:000098f0       ??$internal_visit@V?$weak_ptr@X@boost@@@?$invoke_visitor@$$CBVlock_weak_ptr_visitor@detail@signals2@boost@@@variant@detail@boost@@QAE?AV?$variant@V?$shared_ptr@X@boost@@Vforeign_void_shared_ptr@detail@signals2@2@Uvoid_@042@U6042@U6042@U6042@U6042@U6042@U6042@U6042@U6042@U6042@U6042@U6042@U6042@U6042@U6042@U6042@U6042@U6042@@3@ABV?$backup_holder@V?$weak_ptr@X@boost@@@123@J@Z 0040a8f0 f i cinder:Window.obj
 0001:00009920       ??$internal_visit@Vforeign_void_weak_ptr@detail@signals2@boost@@@?$invoke_visitor@$$CBVlock_weak_ptr_visitor@detail@signals2@boost@@@variant@detail@boost@@QAE?AV?$variant@V?$shared_ptr@X@boost@@Vforeign_void_shared_ptr@detail@signals2@2@Uvoid_@042@U6042@U6042@U6042@U6042@U6042@U6042@U6042@U6042@U6042@U6042@U6042@U6042@U6042@U6042@U6042@U6042@U6042@@3@ABV?$backup_holder@Vforeign_void_weak_ptr@detail@signals2@boost@@@123@J@Z 0040a920 f i cinder:Window.obj
 0001:00009950       ??$make_obj_guard@V?$auto_buffer@V?$variant@V?$shared_ptr@X@boost@@Vforeign_void_shared_ptr@detail@signals2@2@Uvoid_@042@U6042@U6042@U6042@U6042@U6042@U6042@U6042@U6042@U6042@U6042@U6042@U6042@U6042@U6042@U6042@U6042@U6042@@boost@@U?$store_n_objects@$09@detail@signals2@2@Udefault_grow_policy@452@V?$allocator@V?$variant@V?$shared_ptr@X@boost@@Vforeign_void_shared_ptr@detail@signals2@2@Uvoid_@042@U6042@U6042@U6042@U6042@U6042@U6042@U6042@U6042@U6042@U6042@U6042@U6042@U6042@U6042@U6042@U6042@U6042@@boost@@@std@@@detail@signals2@boost@@P81234@AEXPAV?$variant@V?$shared_ptr@X@boost@@Vforeign_void_shared_ptr@detail@signals2@2@Uvoid_@042@U6042@U6042@U6042@U6042@U6042@U6042@U6042@U6042@U6042@U6042@U6042@U6042@U6042@U6042@U6042@U6042@U6042@@4@I@ZPAV54@I@detail@multi_index@boost@@YA?AV?$obj_scope_guard_impl2@V?$auto_buffer@V?$variant@V?$shared_ptr@X@boost@@Vforeign_void_shared_ptr@detail@signals2@2@Uvoid_@042@U6042@U6042@U6042@U6042@U6042@U6042@U6042@U6042@U6042@U6042@U6042@U6042@U6042@U6042@U6042@U6042@U6042@@boost@@U?$store_n_objects@$09@detail@signals2@2@Udefault_grow_policy@452@V?$allocator@V?$variant@V?$shared_ptr@X@boost@@Vforeign_void_shared_ptr@detail@signals2@2@Uvoid_@042@U6042@U6042@U6042@U6042@U6042@U6042@U6042@U6042@U6042@U6042@U6042@U6042@U6042@U6042@U6042@U6042@U6042@@boost@@@std@@@detail@signals2@boost@@P81234@AEXPAV?$variant@V?$shared_ptr@X@boost@@Vforeign_void_shared_ptr@detail@signals2@2@Uvoid_@042@U6042@U6042@U6042@U6042@U6042@U6042@U6042@U6042@U6042@U6042@U6042@U6042@U6042@U6042@U6042@U6042@U6042@@4@I@ZPAV54@I@012@AAV?$auto_buffer@V?$variant@V?$shared_ptr@X@boost@@Vforeign_void_shared_ptr@detail@signals2@2@Uvoid_@042@U6042@U6042@U6042@U6042@U6042@U6042@U6042@U6042@U6042@U6042@U6042@U6042@U6042@U6042@U6042@U6042@U6042@@boost@@U?$store_n_objects@$09@detail@signals2@2@Udefault_grow_policy@452@V?$allocator@V?$variant@V?$shared_ptr@X@boost@@Vforeign_void_shared_ptr@detail@signals2@2@Uvoid_@042@U6042@U6042@U6042@U6042@U6042@U6042@U6042@U6042@U6042@U6042@U6042@U6042@U6042@U6042@U6042@U6042@U6042@@boost@@@std@@@0signals2@2@P84052@AEXPAV?$variant@V?$shared_ptr@X@boost@@Vforeign_void_shared_ptr@detail@signals2@2@Uvoid_@042@U6042@U6042@U6042@U6042@U6042@U6042@U6042@U6042@U6042@U6042@U6042@U6042@U6042@U6042@U6042@U6042@U6042@@2@I@Z1I@Z 0040a950 f i cinder:Window.obj
 0001:00009980       ??$nolock_grab_tracked_objects@V?$back_insert_iterator@V?$auto_buffer@V?$variant@V?$shared_ptr@X@boost@@Vforeign_void_shared_ptr@detail@signals2@2@Uvoid_@042@U6042@U6042@U6042@U6042@U6042@U6042@U6042@U6042@U6042@U6042@U6042@U6042@U6042@U6042@U6042@U6042@U6042@@boost@@U?$store_n_objects@$09@detail@signals2@2@Udefault_grow_policy@452@V?$allocator@V?$variant@V?$shared_ptr@X@boost@@Vforeign_void_shared_ptr@detail@signals2@2@Uvoid_@042@U6042@U6042@U6042@U6042@U6042@U6042@U6042@U6042@U6042@U6042@U6042@U6042@U6042@U6042@U6042@U6042@U6042@@boost@@@std@@@detail@signals2@boost@@@std@@@?$connection_body@U?$pair@W4slot_meta_group@detail@signals2@boost@@V?$optional@H@4@@std@@V?$slot0@XV?$function@$$A6AXXZ@boost@@@signals2@boost@@Vmutex@45@@detail@signals2@boost@@QBEXV?$back_insert_iterator@V?$auto_buffer@V?$variant@V?$shared_ptr@X@boost@@Vforeign_void_shared_ptr@detail@signals2@2@Uvoid_@042@U6042@U6042@U6042@U6042@U6042@U6042@U6042@U6042@U6042@U6042@U6042@U6042@U6042@U6042@U6042@U6042@U6042@@boost@@U?$store_n_objects@$09@detail@signals2@2@Udefault_grow_policy@452@V?$allocator@V?$variant@V?$shared_ptr@X@boost@@Vforeign_void_shared_ptr@detail@signals2@2@Uvoid_@042@U6042@U6042@U6042@U6042@U6042@U6042@U6042@U6042@U6042@U6042@U6042@U6042@U6042@U6042@U6042@U6042@U6042@@boost@@@std@@@detail@signals2@boost@@@std@@@Z 0040a980 f i cinder:Window.obj
 0001:00009980       ??$nolock_grab_tracked_objects@V?$back_insert_iterator@V?$auto_buffer@V?$variant@V?$shared_ptr@X@boost@@Vforeign_void_shared_ptr@detail@signals2@2@Uvoid_@042@U6042@U6042@U6042@U6042@U6042@U6042@U6042@U6042@U6042@U6042@U6042@U6042@U6042@U6042@U6042@U6042@U6042@@boost@@U?$store_n_objects@$09@detail@signals2@2@Udefault_grow_policy@452@V?$allocator@V?$variant@V?$shared_ptr@X@boost@@Vforeign_void_shared_ptr@detail@signals2@2@Uvoid_@042@U6042@U6042@U6042@U6042@U6042@U6042@U6042@U6042@U6042@U6042@U6042@U6042@U6042@U6042@U6042@U6042@U6042@@boost@@@std@@@detail@signals2@boost@@@std@@@?$connection_body@U?$pair@W4slot_meta_group@detail@signals2@boost@@V?$optional@H@4@@std@@V?$slot1@XAAVFileDropEvent@app@cinder@@V?$function@$$A6AXAAVFileDropEvent@app@cinder@@@Z@boost@@@signals2@boost@@Vmutex@45@@detail@signals2@boost@@QBEXV?$back_insert_iterator@V?$auto_buffer@V?$variant@V?$shared_ptr@X@boost@@Vforeign_void_shared_ptr@detail@signals2@2@Uvoid_@042@U6042@U6042@U6042@U6042@U6042@U6042@U6042@U6042@U6042@U6042@U6042@U6042@U6042@U6042@U6042@U6042@U6042@@boost@@U?$store_n_objects@$09@detail@signals2@2@Udefault_grow_policy@452@V?$allocator@V?$variant@V?$shared_ptr@X@boost@@Vforeign_void_shared_ptr@detail@signals2@2@Uvoid_@042@U6042@U6042@U6042@U6042@U6042@U6042@U6042@U6042@U6042@U6042@U6042@U6042@U6042@U6042@U6042@U6042@U6042@@boost@@@std@@@detail@signals2@boost@@@std@@@Z 0040a980 f i cinder:Window.obj
 0001:00009980       ??$nolock_grab_tracked_objects@V?$back_insert_iterator@V?$auto_buffer@V?$variant@V?$shared_ptr@X@boost@@Vforeign_void_shared_ptr@detail@signals2@2@Uvoid_@042@U6042@U6042@U6042@U6042@U6042@U6042@U6042@U6042@U6042@U6042@U6042@U6042@U6042@U6042@U6042@U6042@U6042@@boost@@U?$store_n_objects@$09@detail@signals2@2@Udefault_grow_policy@452@V?$allocator@V?$variant@V?$shared_ptr@X@boost@@Vforeign_void_shared_ptr@detail@signals2@2@Uvoid_@042@U6042@U6042@U6042@U6042@U6042@U6042@U6042@U6042@U6042@U6042@U6042@U6042@U6042@U6042@U6042@U6042@U6042@@boost@@@std@@@detail@signals2@boost@@@std@@@?$connection_body@U?$pair@W4slot_meta_group@detail@signals2@boost@@V?$optional@H@4@@std@@V?$slot1@XAAVKeyEvent@app@cinder@@V?$function@$$A6AXAAVKeyEvent@app@cinder@@@Z@boost@@@signals2@boost@@Vmutex@45@@detail@signals2@boost@@QBEXV?$back_insert_iterator@V?$auto_buffer@V?$variant@V?$shared_ptr@X@boost@@Vforeign_void_shared_ptr@detail@signals2@2@Uvoid_@042@U6042@U6042@U6042@U6042@U6042@U6042@U6042@U6042@U6042@U6042@U6042@U6042@U6042@U6042@U6042@U6042@U6042@@boost@@U?$store_n_objects@$09@detail@signals2@2@Udefault_grow_policy@452@V?$allocator@V?$variant@V?$shared_ptr@X@boost@@Vforeign_void_shared_ptr@detail@signals2@2@Uvoid_@042@U6042@U6042@U6042@U6042@U6042@U6042@U6042@U6042@U6042@U6042@U6042@U6042@U6042@U6042@U6042@U6042@U6042@@boost@@@std@@@detail@signals2@boost@@@std@@@Z 0040a980 f i cinder:Window.obj
 0001:00009980       ??$nolock_grab_tracked_objects@V?$back_insert_iterator@V?$auto_buffer@V?$variant@V?$shared_ptr@X@boost@@Vforeign_void_shared_ptr@detail@signals2@2@Uvoid_@042@U6042@U6042@U6042@U6042@U6042@U6042@U6042@U6042@U6042@U6042@U6042@U6042@U6042@U6042@U6042@U6042@U6042@@boost@@U?$store_n_objects@$09@detail@signals2@2@Udefault_grow_policy@452@V?$allocator@V?$variant@V?$shared_ptr@X@boost@@Vforeign_void_shared_ptr@detail@signals2@2@Uvoid_@042@U6042@U6042@U6042@U6042@U6042@U6042@U6042@U6042@U6042@U6042@U6042@U6042@U6042@U6042@U6042@U6042@U6042@@boost@@@std@@@detail@signals2@boost@@@std@@@?$connection_body@U?$pair@W4slot_meta_group@detail@signals2@boost@@V?$optional@H@4@@std@@V?$slot1@XAAVTouchEvent@app@cinder@@V?$function@$$A6AXAAVTouchEvent@app@cinder@@@Z@boost@@@signals2@boost@@Vmutex@45@@detail@signals2@boost@@QBEXV?$back_insert_iterator@V?$auto_buffer@V?$variant@V?$shared_ptr@X@boost@@Vforeign_void_shared_ptr@detail@signals2@2@Uvoid_@042@U6042@U6042@U6042@U6042@U6042@U6042@U6042@U6042@U6042@U6042@U6042@U6042@U6042@U6042@U6042@U6042@U6042@@boost@@U?$store_n_objects@$09@detail@signals2@2@Udefault_grow_policy@452@V?$allocator@V?$variant@V?$shared_ptr@X@boost@@Vforeign_void_shared_ptr@detail@signals2@2@Uvoid_@042@U6042@U6042@U6042@U6042@U6042@U6042@U6042@U6042@U6042@U6042@U6042@U6042@U6042@U6042@U6042@U6042@U6042@@boost@@@std@@@detail@signals2@boost@@@std@@@Z 0040a980 f i cinder:Window.obj
 0001:00009980       ??$nolock_grab_tracked_objects@V?$back_insert_iterator@V?$auto_buffer@V?$variant@V?$shared_ptr@X@boost@@Vforeign_void_shared_ptr@detail@signals2@2@Uvoid_@042@U6042@U6042@U6042@U6042@U6042@U6042@U6042@U6042@U6042@U6042@U6042@U6042@U6042@U6042@U6042@U6042@U6042@@boost@@U?$store_n_objects@$09@detail@signals2@2@Udefault_grow_policy@452@V?$allocator@V?$variant@V?$shared_ptr@X@boost@@Vforeign_void_shared_ptr@detail@signals2@2@Uvoid_@042@U6042@U6042@U6042@U6042@U6042@U6042@U6042@U6042@U6042@U6042@U6042@U6042@U6042@U6042@U6042@U6042@U6042@@boost@@@std@@@detail@signals2@boost@@@std@@@?$connection_body@U?$pair@W4slot_meta_group@detail@signals2@boost@@V?$optional@H@4@@std@@V?$slot1@XAAVMouseEvent@app@cinder@@V?$function@$$A6AXAAVMouseEvent@app@cinder@@@Z@boost@@@signals2@boost@@Vmutex@45@@detail@signals2@boost@@QBEXV?$back_insert_iterator@V?$auto_buffer@V?$variant@V?$shared_ptr@X@boost@@Vforeign_void_shared_ptr@detail@signals2@2@Uvoid_@042@U6042@U6042@U6042@U6042@U6042@U6042@U6042@U6042@U6042@U6042@U6042@U6042@U6042@U6042@U6042@U6042@U6042@@boost@@U?$store_n_objects@$09@detail@signals2@2@Udefault_grow_policy@452@V?$allocator@V?$variant@V?$shared_ptr@X@boost@@Vforeign_void_shared_ptr@detail@signals2@2@Uvoid_@042@U6042@U6042@U6042@U6042@U6042@U6042@U6042@U6042@U6042@U6042@U6042@U6042@U6042@U6042@U6042@U6042@U6042@@boost@@@std@@@detail@signals2@boost@@@std@@@Z 0040a980 f i cinder:Window.obj
 0001:00009b40       ??$reset@Vinvocation_state@?$signal0_impl@XV?$optional_last_value@X@signals2@boost@@HU?$less@H@std@@V?$function@$$A6AXXZ@3@V?$function@$$A6AXABVconnection@signals2@boost@@@Z@3@Vmutex@23@@detail@signals2@boost@@@?$shared_ptr@Vinvocation_state@?$signal0_impl@XV?$optional_last_value@X@signals2@boost@@HU?$less@H@std@@V?$function@$$A6AXXZ@3@V?$function@$$A6AXABVconnection@signals2@boost@@@Z@3@Vmutex@23@@detail@signals2@boost@@@boost@@QAEXPAVinvocation_state@?$signal0_impl@XV?$optional_last_value@X@signals2@boost@@HU?$less@H@std@@V?$function@$$A6AXXZ@3@V?$function@$$A6AXABVconnection@signals2@boost@@@Z@3@Vmutex@23@@detail@signals2@1@@Z 0040ab40 f i cinder:Window.obj
 0001:00009ba0       ??$reset@Vinvocation_state@?$signal1_impl@XAAVFileDropEvent@app@cinder@@U?$EventCombiner@VFileDropEvent@app@cinder@@@23@HU?$less@H@std@@V?$function@$$A6AXAAVFileDropEvent@app@cinder@@@Z@boost@@V?$function@$$A6AXABVconnection@signals2@boost@@AAVFileDropEvent@app@cinder@@@Z@8@Vmutex@signals2@8@@detail@signals2@boost@@@?$shared_ptr@Vinvocation_state@?$signal1_impl@XAAVFileDropEvent@app@cinder@@U?$EventCombiner@VFileDropEvent@app@cinder@@@23@HU?$less@H@std@@V?$function@$$A6AXAAVFileDropEvent@app@cinder@@@Z@boost@@V?$function@$$A6AXABVconnection@signals2@boost@@AAVFileDropEvent@app@cinder@@@Z@8@Vmutex@signals2@8@@detail@signals2@boost@@@boost@@QAEXPAVinvocation_state@?$signal1_impl@XAAVFileDropEvent@app@cinder@@U?$EventCombiner@VFileDropEvent@app@cinder@@@23@HU?$less@H@std@@V?$function@$$A6AXAAVFileDropEvent@app@cinder@@@Z@boost@@V?$function@$$A6AXABVconnection@signals2@boost@@AAVFileDropEvent@app@cinder@@@Z@8@Vmutex@signals2@8@@detail@signals2@1@@Z 0040aba0 f i cinder:Window.obj
 0001:00009c00       ??$reset@Vinvocation_state@?$signal1_impl@XAAVKeyEvent@app@cinder@@U?$EventCombiner@VKeyEvent@app@cinder@@@23@HU?$less@H@std@@V?$function@$$A6AXAAVKeyEvent@app@cinder@@@Z@boost@@V?$function@$$A6AXABVconnection@signals2@boost@@AAVKeyEvent@app@cinder@@@Z@8@Vmutex@signals2@8@@detail@signals2@boost@@@?$shared_ptr@Vinvocation_state@?$signal1_impl@XAAVKeyEvent@app@cinder@@U?$EventCombiner@VKeyEvent@app@cinder@@@23@HU?$less@H@std@@V?$function@$$A6AXAAVKeyEvent@app@cinder@@@Z@boost@@V?$function@$$A6AXABVconnection@signals2@boost@@AAVKeyEvent@app@cinder@@@Z@8@Vmutex@signals2@8@@detail@signals2@boost@@@boost@@QAEXPAVinvocation_state@?$signal1_impl@XAAVKeyEvent@app@cinder@@U?$EventCombiner@VKeyEvent@app@cinder@@@23@HU?$less@H@std@@V?$function@$$A6AXAAVKeyEvent@app@cinder@@@Z@boost@@V?$function@$$A6AXABVconnection@signals2@boost@@AAVKeyEvent@app@cinder@@@Z@8@Vmutex@signals2@8@@detail@signals2@1@@Z 0040ac00 f i cinder:Window.obj
 0001:00009c60       ??$reset@Vinvocation_state@?$signal1_impl@XAAVMouseEvent@app@cinder@@U?$EventCombiner@VMouseEvent@app@cinder@@@23@HU?$less@H@std@@V?$function@$$A6AXAAVMouseEvent@app@cinder@@@Z@boost@@V?$function@$$A6AXABVconnection@signals2@boost@@AAVMouseEvent@app@cinder@@@Z@8@Vmutex@signals2@8@@detail@signals2@boost@@@?$shared_ptr@Vinvocation_state@?$signal1_impl@XAAVMouseEvent@app@cinder@@U?$EventCombiner@VMouseEvent@app@cinder@@@23@HU?$less@H@std@@V?$function@$$A6AXAAVMouseEvent@app@cinder@@@Z@boost@@V?$function@$$A6AXABVconnection@signals2@boost@@AAVMouseEvent@app@cinder@@@Z@8@Vmutex@signals2@8@@detail@signals2@boost@@@boost@@QAEXPAVinvocation_state@?$signal1_impl@XAAVMouseEvent@app@cinder@@U?$EventCombiner@VMouseEvent@app@cinder@@@23@HU?$less@H@std@@V?$function@$$A6AXAAVMouseEvent@app@cinder@@@Z@boost@@V?$function@$$A6AXABVconnection@signals2@boost@@AAVMouseEvent@app@cinder@@@Z@8@Vmutex@signals2@8@@detail@signals2@1@@Z 0040ac60 f i cinder:Window.obj
 0001:00009cc0       ??$reset@Vinvocation_state@?$signal1_impl@XAAVTouchEvent@app@cinder@@U?$EventCombiner@VTouchEvent@app@cinder@@@23@HU?$less@H@std@@V?$function@$$A6AXAAVTouchEvent@app@cinder@@@Z@boost@@V?$function@$$A6AXABVconnection@signals2@boost@@AAVTouchEvent@app@cinder@@@Z@8@Vmutex@signals2@8@@detail@signals2@boost@@@?$shared_ptr@Vinvocation_state@?$signal1_impl@XAAVTouchEvent@app@cinder@@U?$EventCombiner@VTouchEvent@app@cinder@@@23@HU?$less@H@std@@V?$function@$$A6AXAAVTouchEvent@app@cinder@@@Z@boost@@V?$function@$$A6AXABVconnection@signals2@boost@@AAVTouchEvent@app@cinder@@@Z@8@Vmutex@signals2@8@@detail@signals2@boost@@@boost@@QAEXPAVinvocation_state@?$signal1_impl@XAAVTouchEvent@app@cinder@@U?$EventCombiner@VTouchEvent@app@cinder@@@23@HU?$less@H@std@@V?$function@$$A6AXAAVTouchEvent@app@cinder@@@Z@boost@@V?$function@$$A6AXABVconnection@signals2@boost@@AAVTouchEvent@app@cinder@@@Z@8@Vmutex@signals2@8@@detail@signals2@1@@Z 0040acc0 f i cinder:Window.obj
 0001:00009d20       ??$safe_execute@V?$obj_scope_guard_impl2@V?$auto_buffer@V?$variant@V?$shared_ptr@X@boost@@Vforeign_void_shared_ptr@detail@signals2@2@Uvoid_@042@U6042@U6042@U6042@U6042@U6042@U6042@U6042@U6042@U6042@U6042@U6042@U6042@U6042@U6042@U6042@U6042@U6042@@boost@@U?$store_n_objects@$09@detail@signals2@2@Udefault_grow_policy@452@V?$allocator@V?$variant@V?$shared_ptr@X@boost@@Vforeign_void_shared_ptr@detail@signals2@2@Uvoid_@042@U6042@U6042@U6042@U6042@U6042@U6042@U6042@U6042@U6042@U6042@U6042@U6042@U6042@U6042@U6042@U6042@U6042@@boost@@@std@@@detail@signals2@boost@@P81234@AEXPAV?$variant@V?$shared_ptr@X@boost@@Vforeign_void_shared_ptr@detail@signals2@2@Uvoid_@042@U6042@U6042@U6042@U6042@U6042@U6042@U6042@U6042@U6042@U6042@U6042@U6042@U6042@U6042@U6042@U6042@U6042@@4@I@ZPAV54@I@detail@multi_index@boost@@@scope_guard_impl_base@detail@multi_index@boost@@KAXAAV?$obj_scope_guard_impl2@V?$auto_buffer@V?$variant@V?$shared_ptr@X@boost@@Vforeign_void_shared_ptr@detail@signals2@2@Uvoid_@042@U6042@U6042@U6042@U6042@U6042@U6042@U6042@U6042@U6042@U6042@U6042@U6042@U6042@U6042@U6042@U6042@U6042@@boost@@U?$store_n_objects@$09@detail@signals2@2@Udefault_grow_policy@452@V?$allocator@V?$variant@V?$shared_ptr@X@boost@@Vforeign_void_shared_ptr@detail@signals2@2@Uvoid_@042@U6042@U6042@U6042@U6042@U6042@U6042@U6042@U6042@U6042@U6042@U6042@U6042@U6042@U6042@U6042@U6042@U6042@@boost@@@std@@@detail@signals2@boost@@P81234@AEXPAV?$variant@V?$shared_ptr@X@boost@@Vforeign_void_shared_ptr@detail@signals2@2@Uvoid_@042@U6042@U6042@U6042@U6042@U6042@U6042@U6042@U6042@U6042@U6042@U6042@U6042@U6042@U6042@U6042@U6042@U6042@@4@I@ZPAV54@I@123@@Z 0040ad20 f i cinder:Window.obj
 0001:00009d80       ??$throw_exception@Vbad_function_call@boost@@@boost@@YAXABVbad_function_call@0@@Z 0040ad80 f i cinder:Window.obj
 0001:00009de0       ??$visitation_impl@U?$int_@$0A@@mpl@boost@@U?$visitation_impl_step@U?$l_iter@U?$l_item@U?$long_@$01@mpl@boost@@V?$shared_ptr@X@3@U?$l_item@U?$long_@$00@mpl@boost@@Vforeign_void_shared_ptr@detail@signals2@3@Ul_end@23@@23@@mpl@boost@@@mpl@boost@@U?$l_iter@Ul_end@mpl@boost@@@23@@variant@detail@3@Udestroyer@563@PAXUhas_fallback_type_@?$variant@V?$shared_ptr@X@boost@@Vforeign_void_shared_ptr@detail@signals2@2@Uvoid_@042@U6042@U6042@U6042@U6042@U6042@U6042@U6042@U6042@U6042@U6042@U6042@U6042@U6042@U6042@U6042@U6042@U6042@@3@@variant@detail@boost@@YAXHHAAUdestroyer@012@PAXU?$bool_@$0A@@mpl@2@Uhas_fallback_type_@?$variant@V?$shared_ptr@X@boost@@Vforeign_void_shared_ptr@detail@signals2@2@Uvoid_@042@U6042@U6042@U6042@U6042@U6042@U6042@U6042@U6042@U6042@U6042@U6042@U6042@U6042@U6042@U6042@U6042@U6042@@2@PAU?$int_@$0A@@52@PAU?$visitation_impl_step@U?$l_iter@U?$l_item@U?$long_@$01@mpl@boost@@V?$shared_ptr@X@3@U?$l_item@U?$long_@$00@mpl@boost@@Vforeign_void_shared_ptr@detail@signals2@3@Ul_end@23@@23@@mpl@boost@@@mpl@boost@@U?$l_iter@Ul_end@mpl@boost@@@23@@012@@Z 0040ade0 f i cinder:Window.obj
 0001:00009eb0       ??$visitation_impl@U?$int_@$0A@@mpl@boost@@U?$visitation_impl_step@U?$l_iter@U?$l_item@U?$long_@$01@mpl@boost@@V?$shared_ptr@X@3@U?$l_item@U?$long_@$00@mpl@boost@@Vforeign_void_shared_ptr@detail@signals2@3@Ul_end@23@@23@@mpl@boost@@@mpl@boost@@U?$l_iter@Ul_end@mpl@boost@@@23@@variant@detail@3@Vcopy_into@563@PBXUhas_fallback_type_@?$variant@V?$shared_ptr@X@boost@@Vforeign_void_shared_ptr@detail@signals2@2@Uvoid_@042@U6042@U6042@U6042@U6042@U6042@U6042@U6042@U6042@U6042@U6042@U6042@U6042@U6042@U6042@U6042@U6042@U6042@@3@@variant@detail@boost@@YAXHHAAVcopy_into@012@PBXU?$bool_@$0A@@mpl@2@Uhas_fallback_type_@?$variant@V?$shared_ptr@X@boost@@Vforeign_void_shared_ptr@detail@signals2@2@Uvoid_@042@U6042@U6042@U6042@U6042@U6042@U6042@U6042@U6042@U6042@U6042@U6042@U6042@U6042@U6042@U6042@U6042@U6042@@2@PAU?$int_@$0A@@52@PAU?$visitation_impl_step@U?$l_iter@U?$l_item@U?$long_@$01@mpl@boost@@V?$shared_ptr@X@3@U?$l_item@U?$long_@$00@mpl@boost@@Vforeign_void_shared_ptr@detail@signals2@3@Ul_end@23@@23@@mpl@boost@@@mpl@boost@@U?$l_iter@Ul_end@mpl@boost@@@23@@012@@Z 0040aeb0 f i cinder:Window.obj
 0001:00009f80       ??$visitation_impl@U?$int_@$0A@@mpl@boost@@U?$visitation_impl_step@U?$l_iter@U?$l_item@U?$long_@$01@mpl@boost@@V?$weak_ptr@X@3@U?$l_item@U?$long_@$00@mpl@boost@@Vforeign_void_weak_ptr@detail@signals2@3@Ul_end@23@@23@@mpl@boost@@@mpl@boost@@U?$l_iter@Ul_end@mpl@boost@@@23@@variant@detail@3@V?$invoke_visitor@$$CBVlock_weak_ptr_visitor@detail@signals2@boost@@@563@PBXUhas_fallback_type_@?$variant@V?$weak_ptr@X@boost@@Vforeign_void_weak_ptr@detail@signals2@2@Uvoid_@042@U6042@U6042@U6042@U6042@U6042@U6042@U6042@U6042@U6042@U6042@U6042@U6042@U6042@U6042@U6042@U6042@U6042@@3@@variant@detail@boost@@YA?AV?$variant@V?$shared_ptr@X@boost@@Vforeign_void_shared_ptr@detail@signals2@2@Uvoid_@042@U6042@U6042@U6042@U6042@U6042@U6042@U6042@U6042@U6042@U6042@U6042@U6042@U6042@U6042@U6042@U6042@U6042@@2@HHAAV?$invoke_visitor@$$CBVlock_weak_ptr_visitor@detail@signals2@boost@@@012@PBXU?$bool_@$0A@@mpl@2@Uhas_fallback_type_@?$variant@V?$weak_ptr@X@boost@@Vforeign_void_weak_ptr@detail@signals2@2@Uvoid_@042@U6042@U6042@U6042@U6042@U6042@U6042@U6042@U6042@U6042@U6042@U6042@U6042@U6042@U6042@U6042@U6042@U6042@@2@PAU?$int_@$0A@@62@PAU?$visitation_impl_step@U?$l_iter@U?$l_item@U?$long_@$01@mpl@boost@@V?$weak_ptr@X@3@U?$l_item@U?$long_@$00@mpl@boost@@Vforeign_void_weak_ptr@detail@signals2@3@Ul_end@23@@23@@mpl@boost@@@mpl@boost@@U?$l_iter@Ul_end@mpl@boost@@@23@@012@@Z 0040af80 f i cinder:Window.obj
 0001:0000a070       ??$visitation_impl@U?$int_@$0BE@@mpl@boost@@U?$visitation_impl_step@U?$l_iter@Ul_end@mpl@boost@@@mpl@boost@@U123@@variant@detail@3@Vcopy_into@563@PBXUhas_fallback_type_@?$variant@V?$shared_ptr@X@boost@@Vforeign_void_shared_ptr@detail@signals2@2@Uvoid_@042@U6042@U6042@U6042@U6042@U6042@U6042@U6042@U6042@U6042@U6042@U6042@U6042@U6042@U6042@U6042@U6042@U6042@@3@@variant@detail@boost@@YAXHHAAVcopy_into@012@PBXU?$bool_@$00@mpl@2@Uhas_fallback_type_@?$variant@V?$shared_ptr@X@boost@@Vforeign_void_shared_ptr@detail@signals2@2@Uvoid_@042@U6042@U6042@U6042@U6042@U6042@U6042@U6042@U6042@U6042@U6042@U6042@U6042@U6042@U6042@U6042@U6042@U6042@@2@PAU?$int_@$0BE@@52@PAU?$visitation_impl_step@U?$l_iter@Ul_end@mpl@boost@@@mpl@boost@@U123@@012@@Z 0040b070 f i cinder:Window.obj
 0001:0000a070       ??$visitation_impl_invoke@Udestroyer@variant@detail@boost@@PAXUhas_fallback_type_@?$variant@V?$shared_ptr@X@boost@@Vforeign_void_shared_ptr@detail@signals2@2@Uvoid_@042@U6042@U6042@U6042@U6042@U6042@U6042@U6042@U6042@U6042@U6042@U6042@U6042@U6042@U6042@U6042@U6042@U6042@@4@@variant@detail@boost@@YAXHAAUdestroyer@012@PAXPAUapply_visitor_unrolled@012@Uhas_fallback_type_@?$variant@V?$shared_ptr@X@boost@@Vforeign_void_shared_ptr@detail@signals2@2@Uvoid_@042@U6042@U6042@U6042@U6042@U6042@U6042@U6042@U6042@U6042@U6042@U6042@U6042@U6042@U6042@U6042@U6042@U6042@@2@J@Z 0040b070 f i cinder:Window.obj
 0001:0000a070       ??$visitation_impl_invoke@Vcopy_into@variant@detail@boost@@PBXUhas_fallback_type_@?$variant@V?$shared_ptr@X@boost@@Vforeign_void_shared_ptr@detail@signals2@2@Uvoid_@042@U6042@U6042@U6042@U6042@U6042@U6042@U6042@U6042@U6042@U6042@U6042@U6042@U6042@U6042@U6042@U6042@U6042@@4@@variant@detail@boost@@YAXHAAVcopy_into@012@PBXPAUapply_visitor_unrolled@012@Uhas_fallback_type_@?$variant@V?$shared_ptr@X@boost@@Vforeign_void_shared_ptr@detail@signals2@2@Uvoid_@042@U6042@U6042@U6042@U6042@U6042@U6042@U6042@U6042@U6042@U6042@U6042@U6042@U6042@U6042@U6042@U6042@U6042@@2@J@Z 0040b070 f i cinder:Window.obj
 0001:0000a070       ??$visitation_impl@U?$int_@$0BE@@mpl@boost@@U?$visitation_impl_step@U?$l_iter@Ul_end@mpl@boost@@@mpl@boost@@U123@@variant@detail@3@Udestroyer@563@PAXUhas_fallback_type_@?$variant@V?$shared_ptr@X@boost@@Vforeign_void_shared_ptr@detail@signals2@2@Uvoid_@042@U6042@U6042@U6042@U6042@U6042@U6042@U6042@U6042@U6042@U6042@U6042@U6042@U6042@U6042@U6042@U6042@U6042@@3@@variant@detail@boost@@YAXHHAAUdestroyer@012@PAXU?$bool_@$00@mpl@2@Uhas_fallback_type_@?$variant@V?$shared_ptr@X@boost@@Vforeign_void_shared_ptr@detail@signals2@2@Uvoid_@042@U6042@U6042@U6042@U6042@U6042@U6042@U6042@U6042@U6042@U6042@U6042@U6042@U6042@U6042@U6042@U6042@U6042@@2@PAU?$int_@$0BE@@52@PAU?$visitation_impl_step@U?$l_iter@Ul_end@mpl@boost@@@mpl@boost@@U123@@012@@Z 0040b070 f i cinder:Window.obj
 0001:0000a080       ??$visitation_impl_invoke@V?$invoke_visitor@$$CBVlock_weak_ptr_visitor@detail@signals2@boost@@@variant@detail@boost@@PBXUhas_fallback_type_@?$variant@V?$weak_ptr@X@boost@@Vforeign_void_weak_ptr@detail@signals2@2@Uvoid_@042@U6042@U6042@U6042@U6042@U6042@U6042@U6042@U6042@U6042@U6042@U6042@U6042@U6042@U6042@U6042@U6042@U6042@@4@@variant@detail@boost@@YA?AV?$variant@V?$shared_ptr@X@boost@@Vforeign_void_shared_ptr@detail@signals2@2@Uvoid_@042@U6042@U6042@U6042@U6042@U6042@U6042@U6042@U6042@U6042@U6042@U6042@U6042@U6042@U6042@U6042@U6042@U6042@@2@HAAV?$invoke_visitor@$$CBVlock_weak_ptr_visitor@detail@signals2@boost@@@012@PBXPAUapply_visitor_unrolled@012@Uhas_fallback_type_@?$variant@V?$weak_ptr@X@boost@@Vforeign_void_weak_ptr@detail@signals2@2@Uvoid_@042@U6042@U6042@U6042@U6042@U6042@U6042@U6042@U6042@U6042@U6042@U6042@U6042@U6042@U6042@U6042@U6042@U6042@@2@J@Z 0040b080 f i cinder:Window.obj
 0001:0000a080       ??$visitation_impl@U?$int_@$0BE@@mpl@boost@@U?$visitation_impl_step@U?$l_iter@Ul_end@mpl@boost@@@mpl@boost@@U123@@variant@detail@3@V?$invoke_visitor@$$CBVlock_weak_ptr_visitor@detail@signals2@boost@@@563@PBXUhas_fallback_type_@?$variant@V?$weak_ptr@X@boost@@Vforeign_void_weak_ptr@detail@signals2@2@Uvoid_@042@U6042@U6042@U6042@U6042@U6042@U6042@U6042@U6042@U6042@U6042@U6042@U6042@U6042@U6042@U6042@U6042@U6042@@3@@variant@detail@boost@@YA?AV?$variant@V?$shared_ptr@X@boost@@Vforeign_void_shared_ptr@detail@signals2@2@Uvoid_@042@U6042@U6042@U6042@U6042@U6042@U6042@U6042@U6042@U6042@U6042@U6042@U6042@U6042@U6042@U6042@U6042@U6042@@2@HHAAV?$invoke_visitor@$$CBVlock_weak_ptr_visitor@detail@signals2@boost@@@012@PBXU?$bool_@$00@mpl@2@Uhas_fallback_type_@?$variant@V?$weak_ptr@X@boost@@Vforeign_void_weak_ptr@detail@signals2@2@Uvoid_@042@U6042@U6042@U6042@U6042@U6042@U6042@U6042@U6042@U6042@U6042@U6042@U6042@U6042@U6042@U6042@U6042@U6042@@2@PAU?$int_@$0BE@@62@PAU?$visitation_impl_step@U?$l_iter@Ul_end@mpl@boost@@@mpl@boost@@U123@@012@@Z 0040b080 f i cinder:Window.obj
 0001:0000a090       ??$visitation_impl_invoke@Udestroyer@variant@detail@boost@@PAXVforeign_void_shared_ptr@3signals2@4@Uhas_fallback_type_@?$variant@V?$shared_ptr@X@boost@@Vforeign_void_shared_ptr@detail@signals2@2@Uvoid_@042@U6042@U6042@U6042@U6042@U6042@U6042@U6042@U6042@U6042@U6042@U6042@U6042@U6042@U6042@U6042@U6042@U6042@@4@@variant@detail@boost@@YAXHAAUdestroyer@012@PAXPAVforeign_void_shared_ptr@1signals2@2@Uhas_fallback_type_@?$variant@V?$shared_ptr@X@boost@@Vforeign_void_shared_ptr@detail@signals2@2@Uvoid_@042@U6042@U6042@U6042@U6042@U6042@U6042@U6042@U6042@U6042@U6042@U6042@U6042@U6042@U6042@U6042@U6042@U6042@@2@H@Z 0040b090 f i cinder:Window.obj
 0001:0000a0d0       ??$visitation_impl_invoke@V?$invoke_visitor@$$CBVlock_weak_ptr_visitor@detail@signals2@boost@@@variant@detail@boost@@PBXV?$weak_ptr@X@4@Uhas_fallback_type_@?$variant@V?$weak_ptr@X@boost@@Vforeign_void_weak_ptr@detail@signals2@2@Uvoid_@042@U6042@U6042@U6042@U6042@U6042@U6042@U6042@U6042@U6042@U6042@U6042@U6042@U6042@U6042@U6042@U6042@U6042@@4@@variant@detail@boost@@YA?AV?$variant@V?$shared_ptr@X@boost@@Vforeign_void_shared_ptr@detail@signals2@2@Uvoid_@042@U6042@U6042@U6042@U6042@U6042@U6042@U6042@U6042@U6042@U6042@U6042@U6042@U6042@U6042@U6042@U6042@U6042@@2@HAAV?$invoke_visitor@$$CBVlock_weak_ptr_visitor@detail@signals2@boost@@@012@PBXPAV?$weak_ptr@X@2@Uhas_fallback_type_@?$variant@V?$weak_ptr@X@boost@@Vforeign_void_weak_ptr@detail@signals2@2@Uvoid_@042@U6042@U6042@U6042@U6042@U6042@U6042@U6042@U6042@U6042@U6042@U6042@U6042@U6042@U6042@U6042@U6042@U6042@@2@H@Z 0040b0d0 f i cinder:Window.obj
 0001:0000a110       ??$visitation_impl_invoke@V?$invoke_visitor@$$CBVlock_weak_ptr_visitor@detail@signals2@boost@@@variant@detail@boost@@PBXVforeign_void_weak_ptr@3signals2@4@Uhas_fallback_type_@?$variant@V?$weak_ptr@X@boost@@Vforeign_void_weak_ptr@detail@signals2@2@Uvoid_@042@U6042@U6042@U6042@U6042@U6042@U6042@U6042@U6042@U6042@U6042@U6042@U6042@U6042@U6042@U6042@U6042@U6042@@4@@variant@detail@boost@@YA?AV?$variant@V?$shared_ptr@X@boost@@Vforeign_void_shared_ptr@detail@signals2@2@Uvoid_@042@U6042@U6042@U6042@U6042@U6042@U6042@U6042@U6042@U6042@U6042@U6042@U6042@U6042@U6042@U6042@U6042@U6042@@2@HAAV?$invoke_visitor@$$CBVlock_weak_ptr_visitor@detail@signals2@boost@@@012@PBXPAVforeign_void_weak_ptr@1signals2@2@Uhas_fallback_type_@?$variant@V?$weak_ptr@X@boost@@Vforeign_void_weak_ptr@detail@signals2@2@Uvoid_@042@U6042@U6042@U6042@U6042@U6042@U6042@U6042@U6042@U6042@U6042@U6042@U6042@U6042@U6042@U6042@U6042@U6042@@2@H@Z 0040b110 f i cinder:Window.obj
 0001:0000a150       ??$visitation_impl_invoke@Vconvert_copy_into@?$variant@V?$shared_ptr@X@boost@@Vforeign_void_shared_ptr@detail@signals2@2@Uvoid_@042@U6042@U6042@U6042@U6042@U6042@U6042@U6042@U6042@U6042@U6042@U6042@U6042@U6042@U6042@U6042@U6042@U6042@@boost@@PAXV?$shared_ptr@X@3@Uhas_fallback_type_@23@@variant@detail@boost@@YAHHAAVconvert_copy_into@?$variant@V?$shared_ptr@X@boost@@Vforeign_void_shared_ptr@detail@signals2@2@Uvoid_@042@U6042@U6042@U6042@U6042@U6042@U6042@U6042@U6042@U6042@U6042@U6042@U6042@U6042@U6042@U6042@U6042@U6042@@2@PAXPAV?$shared_ptr@X@2@Uhas_fallback_type_@42@H@Z 0040b150 f i cinder:Window.obj
 0001:0000a1a0       ??$visitation_impl_invoke@Vconvert_copy_into@?$variant@V?$shared_ptr@X@boost@@Vforeign_void_shared_ptr@detail@signals2@2@Uvoid_@042@U6042@U6042@U6042@U6042@U6042@U6042@U6042@U6042@U6042@U6042@U6042@U6042@U6042@U6042@U6042@U6042@U6042@@boost@@PAXVforeign_void_shared_ptr@detail@signals2@3@Uhas_fallback_type_@23@@variant@detail@boost@@YAHHAAVconvert_copy_into@?$variant@V?$shared_ptr@X@boost@@Vforeign_void_shared_ptr@detail@signals2@2@Uvoid_@042@U6042@U6042@U6042@U6042@U6042@U6042@U6042@U6042@U6042@U6042@U6042@U6042@U6042@U6042@U6042@U6042@U6042@@2@PAXPAVforeign_void_shared_ptr@1signals2@2@Uhas_fallback_type_@42@H@Z 0040b1a0 f i cinder:Window.obj
 0001:0000a220       ??$visitation_impl_invoke@Vcopy_into@variant@detail@boost@@PBXV?$shared_ptr@X@4@Uhas_fallback_type_@?$variant@V?$shared_ptr@X@boost@@Vforeign_void_shared_ptr@detail@signals2@2@Uvoid_@042@U6042@U6042@U6042@U6042@U6042@U6042@U6042@U6042@U6042@U6042@U6042@U6042@U6042@U6042@U6042@U6042@U6042@@4@@variant@detail@boost@@YAXHAAVcopy_into@012@PBXPAV?$shared_ptr@X@2@Uhas_fallback_type_@?$variant@V?$shared_ptr@X@boost@@Vforeign_void_shared_ptr@detail@signals2@2@Uvoid_@042@U6042@U6042@U6042@U6042@U6042@U6042@U6042@U6042@U6042@U6042@U6042@U6042@U6042@U6042@U6042@U6042@U6042@@2@H@Z 0040b220 f i cinder:Window.obj
 0001:0000a260       ??$visitation_impl_invoke@Vcopy_into@variant@detail@boost@@PBXVforeign_void_shared_ptr@3signals2@4@Uhas_fallback_type_@?$variant@V?$shared_ptr@X@boost@@Vforeign_void_shared_ptr@detail@signals2@2@Uvoid_@042@U6042@U6042@U6042@U6042@U6042@U6042@U6042@U6042@U6042@U6042@U6042@U6042@U6042@U6042@U6042@U6042@U6042@@4@@variant@detail@boost@@YAXHAAVcopy_into@012@PBXPAVforeign_void_shared_ptr@1signals2@2@Uhas_fallback_type_@?$variant@V?$shared_ptr@X@boost@@Vforeign_void_shared_ptr@detail@signals2@2@Uvoid_@042@U6042@U6042@U6042@U6042@U6042@U6042@U6042@U6042@U6042@U6042@U6042@U6042@U6042@U6042@U6042@U6042@U6042@@2@H@Z 0040b260 f i cinder:Window.obj
 0001:0000a2d0       ??$visitation_impl_invoke_impl@Udestroyer@variant@detail@boost@@PAXV?$shared_ptr@X@4@@variant@detail@boost@@YAXHAAUdestroyer@012@PAXPAV?$shared_ptr@X@2@U?$bool_@$0A@@mpl@2@@Z 0040b2d0 f i cinder:Window.obj
 0001:0000a350       ??$visitation_impl_invoke_impl@V?$invoke_visitor@$$CBVlock_weak_ptr_visitor@detail@signals2@boost@@@variant@detail@boost@@PBXV?$weak_ptr@X@4@@variant@detail@boost@@YA?AV?$variant@V?$shared_ptr@X@boost@@Vforeign_void_shared_ptr@detail@signals2@2@Uvoid_@042@U6042@U6042@U6042@U6042@U6042@U6042@U6042@U6042@U6042@U6042@U6042@U6042@U6042@U6042@U6042@U6042@U6042@@2@HAAV?$invoke_visitor@$$CBVlock_weak_ptr_visitor@detail@signals2@boost@@@012@PBXPAV?$weak_ptr@X@2@U?$bool_@$0A@@mpl@2@@Z 0040b350 f i cinder:Window.obj
 0001:0000a390       ??$visitation_impl_invoke_impl@V?$invoke_visitor@$$CBVlock_weak_ptr_visitor@detail@signals2@boost@@@variant@detail@boost@@PBXVforeign_void_weak_ptr@3signals2@4@@variant@detail@boost@@YA?AV?$variant@V?$shared_ptr@X@boost@@Vforeign_void_shared_ptr@detail@signals2@2@Uvoid_@042@U6042@U6042@U6042@U6042@U6042@U6042@U6042@U6042@U6042@U6042@U6042@U6042@U6042@U6042@U6042@U6042@U6042@@2@HAAV?$invoke_visitor@$$CBVlock_weak_ptr_visitor@detail@signals2@boost@@@012@PBXPAVforeign_void_weak_ptr@1signals2@2@U?$bool_@$0A@@mpl@2@@Z 0040b390 f i cinder:Window.obj
 0001:0000a3d0       ??0?$_Tree@V?$_Tmap_traits@U?$pair@W4slot_meta_group@detail@signals2@boost@@V?$optional@H@4@@std@@V?$_List_iterator@V?$_List_val@U?$_List_simple_types@V?$shared_ptr@V?$connection_body@U?$pair@W4slot_meta_group@detail@signals2@boost@@V?$optional@H@4@@std@@V?$slot1@XAAVTouchEvent@app@cinder@@V?$function@$$A6AXAAVTouchEvent@app@cinder@@@Z@boost@@@signals2@boost@@Vmutex@45@@detail@signals2@boost@@@boost@@@std@@@std@@@2@V?$group_key_less@HU?$less@H@std@@@detail@signals2@boost@@V?$allocator@U?$pair@$$CBU?$pair@W4slot_meta_group@detail@signals2@boost@@V?$optional@H@4@@std@@V?$_List_iterator@V?$_List_val@U?$_List_simple_types@V?$shared_ptr@V?$connection_body@U?$pair@W4slot_meta_group@detail@signals2@boost@@V?$optional@H@4@@std@@V?$slot1@XAAVTouchEvent@app@cinder@@V?$function@$$A6AXAAVTouchEvent@app@cinder@@@Z@boost@@@signals2@boost@@Vmutex@45@@detail@signals2@boost@@@boost@@@std@@@std@@@2@@std@@@2@$0A@@std@@@std@@QAE@ABV01@ABV?$allocator@U?$pair@$$CBU?$pair@W4slot_meta_group@detail@signals2@boost@@V?$optional@H@4@@std@@V?$_List_iterator@V?$_List_val@U?$_List_simple_types@V?$shared_ptr@V?$connection_body@U?$pair@W4slot_meta_group@detail@signals2@boost@@V?$optional@H@4@@std@@V?$slot1@XAAVTouchEvent@app@cinder@@V?$function@$$A6AXAAVTouchEvent@app@cinder@@@Z@boost@@@signals2@boost@@Vmutex@45@@detail@signals2@boost@@@boost@@@std@@@std@@@2@@std@@@1@@Z 0040b3d0 f i cinder:Window.obj
 0001:0000a3d0       ??0?$_Tree@V?$_Tmap_traits@U?$pair@W4slot_meta_group@detail@signals2@boost@@V?$optional@H@4@@std@@V?$_List_iterator@V?$_List_val@U?$_List_simple_types@V?$shared_ptr@V?$connection_body@U?$pair@W4slot_meta_group@detail@signals2@boost@@V?$optional@H@4@@std@@V?$slot1@XAAVKeyEvent@app@cinder@@V?$function@$$A6AXAAVKeyEvent@app@cinder@@@Z@boost@@@signals2@boost@@Vmutex@45@@detail@signals2@boost@@@boost@@@std@@@std@@@2@V?$group_key_less@HU?$less@H@std@@@detail@signals2@boost@@V?$allocator@U?$pair@$$CBU?$pair@W4slot_meta_group@detail@signals2@boost@@V?$optional@H@4@@std@@V?$_List_iterator@V?$_List_val@U?$_List_simple_types@V?$shared_ptr@V?$connection_body@U?$pair@W4slot_meta_group@detail@signals2@boost@@V?$optional@H@4@@std@@V?$slot1@XAAVKeyEvent@app@cinder@@V?$function@$$A6AXAAVKeyEvent@app@cinder@@@Z@boost@@@signals2@boost@@Vmutex@45@@detail@signals2@boost@@@boost@@@std@@@std@@@2@@std@@@2@$0A@@std@@@std@@QAE@ABV01@ABV?$allocator@U?$pair@$$CBU?$pair@W4slot_meta_group@detail@signals2@boost@@V?$optional@H@4@@std@@V?$_List_iterator@V?$_List_val@U?$_List_simple_types@V?$shared_ptr@V?$connection_body@U?$pair@W4slot_meta_group@detail@signals2@boost@@V?$optional@H@4@@std@@V?$slot1@XAAVKeyEvent@app@cinder@@V?$function@$$A6AXAAVKeyEvent@app@cinder@@@Z@boost@@@signals2@boost@@Vmutex@45@@detail@signals2@boost@@@boost@@@std@@@std@@@2@@std@@@1@@Z 0040b3d0 f i cinder:Window.obj
 0001:0000a3d0       ??0?$_Tree@V?$_Tmap_traits@U?$pair@W4slot_meta_group@detail@signals2@boost@@V?$optional@H@4@@std@@V?$_List_iterator@V?$_List_val@U?$_List_simple_types@V?$shared_ptr@V?$connection_body@U?$pair@W4slot_meta_group@detail@signals2@boost@@V?$optional@H@4@@std@@V?$slot1@XAAVMouseEvent@app@cinder@@V?$function@$$A6AXAAVMouseEvent@app@cinder@@@Z@boost@@@signals2@boost@@Vmutex@45@@detail@signals2@boost@@@boost@@@std@@@std@@@2@V?$group_key_less@HU?$less@H@std@@@detail@signals2@boost@@V?$allocator@U?$pair@$$CBU?$pair@W4slot_meta_group@detail@signals2@boost@@V?$optional@H@4@@std@@V?$_List_iterator@V?$_List_val@U?$_List_simple_types@V?$shared_ptr@V?$connection_body@U?$pair@W4slot_meta_group@detail@signals2@boost@@V?$optional@H@4@@std@@V?$slot1@XAAVMouseEvent@app@cinder@@V?$function@$$A6AXAAVMouseEvent@app@cinder@@@Z@boost@@@signals2@boost@@Vmutex@45@@detail@signals2@boost@@@boost@@@std@@@std@@@2@@std@@@2@$0A@@std@@@std@@QAE@ABV01@ABV?$allocator@U?$pair@$$CBU?$pair@W4slot_meta_group@detail@signals2@boost@@V?$optional@H@4@@std@@V?$_List_iterator@V?$_List_val@U?$_List_simple_types@V?$shared_ptr@V?$connection_body@U?$pair@W4slot_meta_group@detail@signals2@boost@@V?$optional@H@4@@std@@V?$slot1@XAAVMouseEvent@app@cinder@@V?$function@$$A6AXAAVMouseEvent@app@cinder@@@Z@boost@@@signals2@boost@@Vmutex@45@@detail@signals2@boost@@@boost@@@std@@@std@@@2@@std@@@1@@Z 0040b3d0 f i cinder:Window.obj
 0001:0000a3d0       ??0?$_Tree@V?$_Tmap_traits@U?$pair@W4slot_meta_group@detail@signals2@boost@@V?$optional@H@4@@std@@V?$_List_iterator@V?$_List_val@U?$_List_simple_types@V?$shared_ptr@V?$connection_body@U?$pair@W4slot_meta_group@detail@signals2@boost@@V?$optional@H@4@@std@@V?$slot0@XV?$function@$$A6AXXZ@boost@@@signals2@boost@@Vmutex@45@@detail@signals2@boost@@@boost@@@std@@@std@@@2@V?$group_key_less@HU?$less@H@std@@@detail@signals2@boost@@V?$allocator@U?$pair@$$CBU?$pair@W4slot_meta_group@detail@signals2@boost@@V?$optional@H@4@@std@@V?$_List_iterator@V?$_List_val@U?$_List_simple_types@V?$shared_ptr@V?$connection_body@U?$pair@W4slot_meta_group@detail@signals2@boost@@V?$optional@H@4@@std@@V?$slot0@XV?$function@$$A6AXXZ@boost@@@signals2@boost@@Vmutex@45@@detail@signals2@boost@@@boost@@@std@@@std@@@2@@std@@@2@$0A@@std@@@std@@QAE@ABV01@ABV?$allocator@U?$pair@$$CBU?$pair@W4slot_meta_group@detail@signals2@boost@@V?$optional@H@4@@std@@V?$_List_iterator@V?$_List_val@U?$_List_simple_types@V?$shared_ptr@V?$connection_body@U?$pair@W4slot_meta_group@detail@signals2@boost@@V?$optional@H@4@@std@@V?$slot0@XV?$function@$$A6AXXZ@boost@@@signals2@boost@@Vmutex@45@@detail@signals2@boost@@@boost@@@std@@@std@@@2@@std@@@1@@Z 0040b3d0 f i cinder:Window.obj
 0001:0000a3d0       ??0?$_Tree@V?$_Tmap_traits@U?$pair@W4slot_meta_group@detail@signals2@boost@@V?$optional@H@4@@std@@V?$_List_iterator@V?$_List_val@U?$_List_simple_types@V?$shared_ptr@V?$connection_body@U?$pair@W4slot_meta_group@detail@signals2@boost@@V?$optional@H@4@@std@@V?$slot1@XAAVFileDropEvent@app@cinder@@V?$function@$$A6AXAAVFileDropEvent@app@cinder@@@Z@boost@@@signals2@boost@@Vmutex@45@@detail@signals2@boost@@@boost@@@std@@@std@@@2@V?$group_key_less@HU?$less@H@std@@@detail@signals2@boost@@V?$allocator@U?$pair@$$CBU?$pair@W4slot_meta_group@detail@signals2@boost@@V?$optional@H@4@@std@@V?$_List_iterator@V?$_List_val@U?$_List_simple_types@V?$shared_ptr@V?$connection_body@U?$pair@W4slot_meta_group@detail@signals2@boost@@V?$optional@H@4@@std@@V?$slot1@XAAVFileDropEvent@app@cinder@@V?$function@$$A6AXAAVFileDropEvent@app@cinder@@@Z@boost@@@signals2@boost@@Vmutex@45@@detail@signals2@boost@@@boost@@@std@@@std@@@2@@std@@@2@$0A@@std@@@std@@QAE@ABV01@ABV?$allocator@U?$pair@$$CBU?$pair@W4slot_meta_group@detail@signals2@boost@@V?$optional@H@4@@std@@V?$_List_iterator@V?$_List_val@U?$_List_simple_types@V?$shared_ptr@V?$connection_body@U?$pair@W4slot_meta_group@detail@signals2@boost@@V?$optional@H@4@@std@@V?$slot1@XAAVFileDropEvent@app@cinder@@V?$function@$$A6AXAAVFileDropEvent@app@cinder@@@Z@boost@@@signals2@boost@@Vmutex@45@@detail@signals2@boost@@@boost@@@std@@@std@@@2@@std@@@1@@Z 0040b3d0 f i cinder:Window.obj
 0001:0000a3d0       ??0?$_Tree@V?$_Tmap_traits@U?$pair@W4slot_meta_group@detail@signals2@boost@@V?$optional@H@4@@std@@V?$_List_iterator@V?$_List_val@U?$_List_simple_types@V?$shared_ptr@V?$connection_body@U?$pair@W4slot_meta_group@detail@signals2@boost@@V?$optional@H@4@@std@@V?$slot0@_NV?$function@$$A6A_NXZ@boost@@@signals2@boost@@Vmutex@45@@detail@signals2@boost@@@boost@@@std@@@std@@@2@V?$group_key_less@HU?$less@H@std@@@detail@signals2@boost@@V?$allocator@U?$pair@$$CBU?$pair@W4slot_meta_group@detail@signals2@boost@@V?$optional@H@4@@std@@V?$_List_iterator@V?$_List_val@U?$_List_simple_types@V?$shared_ptr@V?$connection_body@U?$pair@W4slot_meta_group@detail@signals2@boost@@V?$optional@H@4@@std@@V?$slot0@_NV?$function@$$A6A_NXZ@boost@@@signals2@boost@@Vmutex@45@@detail@signals2@boost@@@boost@@@std@@@std@@@2@@std@@@2@$0A@@std@@@std@@QAE@ABV01@ABV?$allocator@U?$pair@$$CBU?$pair@W4slot_meta_group@detail@signals2@boost@@V?$optional@H@4@@std@@V?$_List_iterator@V?$_List_val@U?$_List_simple_types@V?$shared_ptr@V?$connection_body@U?$pair@W4slot_meta_group@detail@signals2@boost@@V?$optional@H@4@@std@@V?$slot0@_NV?$function@$$A6A_NXZ@boost@@@signals2@boost@@Vmutex@45@@detail@signals2@boost@@@boost@@@std@@@std@@@2@@std@@@1@@Z 0040b3d0 f i cinder:AppBasic.obj
 0001:0000a470       ??0?$clone_impl@U?$error_info_injector@Vbad_function_call@boost@@@exception_detail@boost@@@exception_detail@boost@@AAE@ABV012@Uclone_tag@012@@Z 0040b470 f i cinder:Window.obj
 0001:0000a530       ??0?$clone_impl@U?$error_info_injector@Vbad_function_call@boost@@@exception_detail@boost@@@exception_detail@boost@@QAE@ABV012@@Z 0040b530 f i cinder:Window.obj
 0001:0000a5d0       ??0?$error_info_injector@Vbad_function_call@boost@@@exception_detail@boost@@QAE@ABU012@@Z 0040b5d0 f i cinder:Window.obj
 0001:0000a670       ??0?$grouped_list@HU?$less@H@std@@V?$shared_ptr@V?$connection_body@U?$pair@W4slot_meta_group@detail@signals2@boost@@V?$optional@H@4@@std@@V?$slot1@XAAVTouchEvent@app@cinder@@V?$function@$$A6AXAAVTouchEvent@app@cinder@@@Z@boost@@@signals2@boost@@Vmutex@45@@detail@signals2@boost@@@boost@@@detail@signals2@boost@@QAE@ABV0123@@Z 0040b670 f i cinder:Window.obj
 0001:0000a670       ??0?$grouped_list@HU?$less@H@std@@V?$shared_ptr@V?$connection_body@U?$pair@W4slot_meta_group@detail@signals2@boost@@V?$optional@H@4@@std@@V?$slot0@_NV?$function@$$A6A_NXZ@boost@@@signals2@boost@@Vmutex@45@@detail@signals2@boost@@@boost@@@detail@signals2@boost@@QAE@ABV0123@@Z 0040b670 f i cinder:AppBasic.obj
 0001:0000a670       ??0?$grouped_list@HU?$less@H@std@@V?$shared_ptr@V?$connection_body@U?$pair@W4slot_meta_group@detail@signals2@boost@@V?$optional@H@4@@std@@V?$slot1@XAAVFileDropEvent@app@cinder@@V?$function@$$A6AXAAVFileDropEvent@app@cinder@@@Z@boost@@@signals2@boost@@Vmutex@45@@detail@signals2@boost@@@boost@@@detail@signals2@boost@@QAE@ABV0123@@Z 0040b670 f i cinder:Window.obj
 0001:0000a670       ??0?$grouped_list@HU?$less@H@std@@V?$shared_ptr@V?$connection_body@U?$pair@W4slot_meta_group@detail@signals2@boost@@V?$optional@H@4@@std@@V?$slot1@XAAVMouseEvent@app@cinder@@V?$function@$$A6AXAAVMouseEvent@app@cinder@@@Z@boost@@@signals2@boost@@Vmutex@45@@detail@signals2@boost@@@boost@@@detail@signals2@boost@@QAE@ABV0123@@Z 0040b670 f i cinder:Window.obj
 0001:0000a670       ??0?$grouped_list@HU?$less@H@std@@V?$shared_ptr@V?$connection_body@U?$pair@W4slot_meta_group@detail@signals2@boost@@V?$optional@H@4@@std@@V?$slot0@XV?$function@$$A6AXXZ@boost@@@signals2@boost@@Vmutex@45@@detail@signals2@boost@@@boost@@@detail@signals2@boost@@QAE@ABV0123@@Z 0040b670 f i cinder:Window.obj
 0001:0000a670       ??0?$grouped_list@HU?$less@H@std@@V?$shared_ptr@V?$connection_body@U?$pair@W4slot_meta_group@detail@signals2@boost@@V?$optional@H@4@@std@@V?$slot1@XAAVKeyEvent@app@cinder@@V?$function@$$A6AXAAVKeyEvent@app@cinder@@@Z@boost@@@signals2@boost@@Vmutex@45@@detail@signals2@boost@@@boost@@@detail@signals2@boost@@QAE@ABV0123@@Z 0040b670 f i cinder:Window.obj
 0001:0000a800       ??0?$list@V?$shared_ptr@V?$connection_body@U?$pair@W4slot_meta_group@detail@signals2@boost@@V?$optional@H@4@@std@@V?$slot0@_NV?$function@$$A6A_NXZ@boost@@@signals2@boost@@Vmutex@45@@detail@signals2@boost@@@boost@@V?$allocator@V?$shared_ptr@V?$connection_body@U?$pair@W4slot_meta_group@detail@signals2@boost@@V?$optional@H@4@@std@@V?$slot0@_NV?$function@$$A6A_NXZ@boost@@@signals2@boost@@Vmutex@45@@detail@signals2@boost@@@boost@@@std@@@std@@QAE@ABV01@@Z 0040b800 f i cinder:AppBasic.obj
 0001:0000a800       ??0?$list@V?$shared_ptr@V?$connection_body@U?$pair@W4slot_meta_group@detail@signals2@boost@@V?$optional@H@4@@std@@V?$slot1@XAAVFileDropEvent@app@cinder@@V?$function@$$A6AXAAVFileDropEvent@app@cinder@@@Z@boost@@@signals2@boost@@Vmutex@45@@detail@signals2@boost@@@boost@@V?$allocator@V?$shared_ptr@V?$connection_body@U?$pair@W4slot_meta_group@detail@signals2@boost@@V?$optional@H@4@@std@@V?$slot1@XAAVFileDropEvent@app@cinder@@V?$function@$$A6AXAAVFileDropEvent@app@cinder@@@Z@boost@@@signals2@boost@@Vmutex@45@@detail@signals2@boost@@@boost@@@std@@@std@@QAE@ABV01@@Z 0040b800 f i cinder:Window.obj
 0001:0000a800       ??0?$list@V?$shared_ptr@V?$connection_body@U?$pair@W4slot_meta_group@detail@signals2@boost@@V?$optional@H@4@@std@@V?$slot0@XV?$function@$$A6AXXZ@boost@@@signals2@boost@@Vmutex@45@@detail@signals2@boost@@@boost@@V?$allocator@V?$shared_ptr@V?$connection_body@U?$pair@W4slot_meta_group@detail@signals2@boost@@V?$optional@H@4@@std@@V?$slot0@XV?$function@$$A6AXXZ@boost@@@signals2@boost@@Vmutex@45@@detail@signals2@boost@@@boost@@@std@@@std@@QAE@ABV01@@Z 0040b800 f i cinder:Window.obj
 0001:0000a800       ??0?$list@V?$shared_ptr@V?$connection_body@U?$pair@W4slot_meta_group@detail@signals2@boost@@V?$optional@H@4@@std@@V?$slot1@XAAVTouchEvent@app@cinder@@V?$function@$$A6AXAAVTouchEvent@app@cinder@@@Z@boost@@@signals2@boost@@Vmutex@45@@detail@signals2@boost@@@boost@@V?$allocator@V?$shared_ptr@V?$connection_body@U?$pair@W4slot_meta_group@detail@signals2@boost@@V?$optional@H@4@@std@@V?$slot1@XAAVTouchEvent@app@cinder@@V?$function@$$A6AXAAVTouchEvent@app@cinder@@@Z@boost@@@signals2@boost@@Vmutex@45@@detail@signals2@boost@@@boost@@@std@@@std@@QAE@ABV01@@Z 0040b800 f i cinder:Window.obj
 0001:0000a800       ??0?$list@V?$shared_ptr@V?$connection_body@U?$pair@W4slot_meta_group@detail@signals2@boost@@V?$optional@H@4@@std@@V?$slot1@XAAVMouseEvent@app@cinder@@V?$function@$$A6AXAAVMouseEvent@app@cinder@@@Z@boost@@@signals2@boost@@Vmutex@45@@detail@signals2@boost@@@boost@@V?$allocator@V?$shared_ptr@V?$connection_body@U?$pair@W4slot_meta_group@detail@signals2@boost@@V?$optional@H@4@@std@@V?$slot1@XAAVMouseEvent@app@cinder@@V?$function@$$A6AXAAVMouseEvent@app@cinder@@@Z@boost@@@signals2@boost@@Vmutex@45@@detail@signals2@boost@@@boost@@@std@@@std@@QAE@ABV01@@Z 0040b800 f i cinder:Window.obj
 0001:0000a800       ??0?$list@V?$shared_ptr@V?$connection_body@U?$pair@W4slot_meta_group@detail@signals2@boost@@V?$optional@H@4@@std@@V?$slot1@XAAVKeyEvent@app@cinder@@V?$function@$$A6AXAAVKeyEvent@app@cinder@@@Z@boost@@@signals2@boost@@Vmutex@45@@detail@signals2@boost@@@boost@@V?$allocator@V?$shared_ptr@V?$connection_body@U?$pair@W4slot_meta_group@detail@signals2@boost@@V?$optional@H@4@@std@@V?$slot1@XAAVKeyEvent@app@cinder@@V?$function@$$A6AXAAVKeyEvent@app@cinder@@@Z@boost@@@signals2@boost@@Vmutex@45@@detail@signals2@boost@@@boost@@@std@@@std@@QAE@ABV01@@Z 0040b800 f i cinder:Window.obj
 0001:0000a8a0       ??0?$variant@V?$shared_ptr@X@boost@@Vforeign_void_shared_ptr@detail@signals2@2@Uvoid_@042@U6042@U6042@U6042@U6042@U6042@U6042@U6042@U6042@U6042@U6042@U6042@U6042@U6042@U6042@U6042@U6042@U6042@@boost@@QAE@ABV01@@Z 0040b8a0 f i cinder:Window.obj
 0001:0000a910       ??0?$vector@VTouch@TouchEvent@app@cinder@@V?$allocator@VTouch@TouchEvent@app@cinder@@@std@@@std@@QAE@ABV01@@Z 0040b910 f i cinder:Window.obj
 0001:0000a9c0       ??0?$vector@Vpath@filesystem@boost@@V?$allocator@Vpath@filesystem@boost@@@std@@@std@@QAE@ABV01@@Z 0040b9c0 f i cinder:Window.obj
 0001:0000aa70       ??0ExcInvalidWindow@app@cinder@@QAE@ABV012@@Z 0040ba70 f i cinder:Window.obj
 0001:0000aa90       ??0FileDropEvent@app@cinder@@QAE@ABV012@@Z 0040ba90 f i cinder:Window.obj
 0001:0000ab20       ??0KeyEvent@app@cinder@@QAE@ABV012@@Z 0040bb20 f i cinder:Window.obj
 0001:0000aba0       ??0MouseEvent@app@cinder@@QAE@ABV012@@Z 0040bba0 f i cinder:Window.obj
 0001:0000ac10       ??0bad_function_call@boost@@QAE@ABV01@@Z 0040bc10 f i cinder:Window.obj
 0001:0000ac30       ??0clone_base@exception_detail@boost@@QAE@ABV012@@Z 0040bc30 f i cinder:Window.obj
 0001:0000ac40       ??0exception@boost@@QAE@ABV01@@Z 0040bc40 f i cinder:Window.obj
 0001:0000ac80       ??0invocation_state@?$signal0_impl@XV?$optional_last_value@X@signals2@boost@@HU?$less@H@std@@V?$function@$$A6AXXZ@3@V?$function@$$A6AXABVconnection@signals2@boost@@@Z@3@Vmutex@23@@detail@signals2@boost@@QAE@ABV01234@ABV?$grouped_list@HU?$less@H@std@@V?$shared_ptr@V?$connection_body@U?$pair@W4slot_meta_group@detail@signals2@boost@@V?$optional@H@4@@std@@V?$slot0@XV?$function@$$A6AXXZ@boost@@@signals2@boost@@Vmutex@45@@detail@signals2@boost@@@boost@@@234@@Z 0040bc80 f i cinder:Window.obj
 0001:0000ad10       ??0invocation_state@?$signal1_impl@XAAVFileDropEvent@app@cinder@@U?$EventCombiner@VFileDropEvent@app@cinder@@@23@HU?$less@H@std@@V?$function@$$A6AXAAVFileDropEvent@app@cinder@@@Z@boost@@V?$function@$$A6AXABVconnection@signals2@boost@@AAVFileDropEvent@app@cinder@@@Z@8@Vmutex@signals2@8@@detail@signals2@boost@@QAE@ABV01234@ABU?$EventCombiner@VFileDropEvent@app@cinder@@@app@cinder@@@Z 0040bd10 f i cinder:Window.obj
 0001:0000ada0       ??0invocation_state@?$signal1_impl@XAAVFileDropEvent@app@cinder@@U?$EventCombiner@VFileDropEvent@app@cinder@@@23@HU?$less@H@std@@V?$function@$$A6AXAAVFileDropEvent@app@cinder@@@Z@boost@@V?$function@$$A6AXABVconnection@signals2@boost@@AAVFileDropEvent@app@cinder@@@Z@8@Vmutex@signals2@8@@detail@signals2@boost@@QAE@ABV01234@ABV?$grouped_list@HU?$less@H@std@@V?$shared_ptr@V?$connection_body@U?$pair@W4slot_meta_group@detail@signals2@boost@@V?$optional@H@4@@std@@V?$slot1@XAAVFileDropEvent@app@cinder@@V?$function@$$A6AXAAVFileDropEvent@app@cinder@@@Z@boost@@@signals2@boost@@Vmutex@45@@detail@signals2@boost@@@boost@@@234@@Z 0040bda0 f i cinder:Window.obj
 0001:0000ae30       ??0invocation_state@?$signal1_impl@XAAVKeyEvent@app@cinder@@U?$EventCombiner@VKeyEvent@app@cinder@@@23@HU?$less@H@std@@V?$function@$$A6AXAAVKeyEvent@app@cinder@@@Z@boost@@V?$function@$$A6AXABVconnection@signals2@boost@@AAVKeyEvent@app@cinder@@@Z@8@Vmutex@signals2@8@@detail@signals2@boost@@QAE@ABV01234@ABU?$EventCombiner@VKeyEvent@app@cinder@@@app@cinder@@@Z 0040be30 f i cinder:Window.obj
 0001:0000aec0       ??0invocation_state@?$signal1_impl@XAAVKeyEvent@app@cinder@@U?$EventCombiner@VKeyEvent@app@cinder@@@23@HU?$less@H@std@@V?$function@$$A6AXAAVKeyEvent@app@cinder@@@Z@boost@@V?$function@$$A6AXABVconnection@signals2@boost@@AAVKeyEvent@app@cinder@@@Z@8@Vmutex@signals2@8@@detail@signals2@boost@@QAE@ABV01234@ABV?$grouped_list@HU?$less@H@std@@V?$shared_ptr@V?$connection_body@U?$pair@W4slot_meta_group@detail@signals2@boost@@V?$optional@H@4@@std@@V?$slot1@XAAVKeyEvent@app@cinder@@V?$function@$$A6AXAAVKeyEvent@app@cinder@@@Z@boost@@@signals2@boost@@Vmutex@45@@detail@signals2@boost@@@boost@@@234@@Z 0040bec0 f i cinder:Window.obj
 0001:0000af50       ??0invocation_state@?$signal1_impl@XAAVMouseEvent@app@cinder@@U?$EventCombiner@VMouseEvent@app@cinder@@@23@HU?$less@H@std@@V?$function@$$A6AXAAVMouseEvent@app@cinder@@@Z@boost@@V?$function@$$A6AXABVconnection@signals2@boost@@AAVMouseEvent@app@cinder@@@Z@8@Vmutex@signals2@8@@detail@signals2@boost@@QAE@ABV01234@ABU?$EventCombiner@VMouseEvent@app@cinder@@@app@cinder@@@Z 0040bf50 f i cinder:Window.obj
 0001:0000afe0       ??0invocation_state@?$signal1_impl@XAAVMouseEvent@app@cinder@@U?$EventCombiner@VMouseEvent@app@cinder@@@23@HU?$less@H@std@@V?$function@$$A6AXAAVMouseEvent@app@cinder@@@Z@boost@@V?$function@$$A6AXABVconnection@signals2@boost@@AAVMouseEvent@app@cinder@@@Z@8@Vmutex@signals2@8@@detail@signals2@boost@@QAE@ABV01234@ABV?$grouped_list@HU?$less@H@std@@V?$shared_ptr@V?$connection_body@U?$pair@W4slot_meta_group@detail@signals2@boost@@V?$optional@H@4@@std@@V?$slot1@XAAVMouseEvent@app@cinder@@V?$function@$$A6AXAAVMouseEvent@app@cinder@@@Z@boost@@@signals2@boost@@Vmutex@45@@detail@signals2@boost@@@boost@@@234@@Z 0040bfe0 f i cinder:Window.obj
 0001:0000b070       ??0invocation_state@?$signal1_impl@XAAVTouchEvent@app@cinder@@U?$EventCombiner@VTouchEvent@app@cinder@@@23@HU?$less@H@std@@V?$function@$$A6AXAAVTouchEvent@app@cinder@@@Z@boost@@V?$function@$$A6AXABVconnection@signals2@boost@@AAVTouchEvent@app@cinder@@@Z@8@Vmutex@signals2@8@@detail@signals2@boost@@QAE@ABV01234@ABU?$EventCombiner@VTouchEvent@app@cinder@@@app@cinder@@@Z 0040c070 f i cinder:Window.obj
 0001:0000b100       ??0invocation_state@?$signal1_impl@XAAVTouchEvent@app@cinder@@U?$EventCombiner@VTouchEvent@app@cinder@@@23@HU?$less@H@std@@V?$function@$$A6AXAAVTouchEvent@app@cinder@@@Z@boost@@V?$function@$$A6AXABVconnection@signals2@boost@@AAVTouchEvent@app@cinder@@@Z@8@Vmutex@signals2@8@@detail@signals2@boost@@QAE@ABV01234@ABV?$grouped_list@HU?$less@H@std@@V?$shared_ptr@V?$connection_body@U?$pair@W4slot_meta_group@detail@signals2@boost@@V?$optional@H@4@@std@@V?$slot1@XAAVTouchEvent@app@cinder@@V?$function@$$A6AXAAVTouchEvent@app@cinder@@@Z@boost@@@signals2@boost@@Vmutex@45@@detail@signals2@boost@@@boost@@@234@@Z 0040c100 f i cinder:Window.obj
 0001:0000b190       ??1?$_Tree_comp@$0A@V?$_Tmap_traits@HU?$pair@P6A?AV?$shared_ptr@VImageTarget@cinder@@@std@@V?$shared_ptr@VDataTarget@cinder@@@2@V?$shared_ptr@VImageSource@cinder@@@2@VOptions@ImageTarget@cinder@@ABV?$basic_string@DU?$char_traits@D@std@@V?$allocator@D@2@@2@@ZV82@@std@@U?$less@H@2@V?$allocator@U?$pair@$$CBHU?$pair@P6A?AV?$shared_ptr@VImageTarget@cinder@@@std@@V?$shared_ptr@VDataTarget@cinder@@@2@V?$shared_ptr@VImageSource@cinder@@@2@VOptions@ImageTarget@cinder@@ABV?$basic_string@DU?$char_traits@D@std@@V?$allocator@D@2@@2@@ZV82@@std@@@std@@@2@$00@std@@@std@@QAE@XZ 0040c190 f i cinder:ImageIo.obj
 0001:0000b190       ??1?$_Tree_comp@$00V?$_Tmap_traits@U?$pair@W4slot_meta_group@detail@signals2@boost@@V?$optional@H@4@@std@@V?$_List_iterator@V?$_List_val@U?$_List_simple_types@V?$shared_ptr@V?$connection_body@U?$pair@W4slot_meta_group@detail@signals2@boost@@V?$optional@H@4@@std@@V?$slot1@XAAVMouseEvent@app@cinder@@V?$function@$$A6AXAAVMouseEvent@app@cinder@@@Z@boost@@@signals2@boost@@Vmutex@45@@detail@signals2@boost@@@boost@@@std@@@std@@@2@V?$group_key_less@HU?$less@H@std@@@detail@signals2@boost@@V?$allocator@U?$pair@$$CBU?$pair@W4slot_meta_group@detail@signals2@boost@@V?$optional@H@4@@std@@V?$_List_iterator@V?$_List_val@U?$_List_simple_types@V?$shared_ptr@V?$connection_body@U?$pair@W4slot_meta_group@detail@signals2@boost@@V?$optional@H@4@@std@@V?$slot1@XAAVMouseEvent@app@cinder@@V?$function@$$A6AXAAVMouseEvent@app@cinder@@@Z@boost@@@signals2@boost@@Vmutex@45@@detail@signals2@boost@@@boost@@@std@@@std@@@2@@std@@@2@$0A@@std@@@std@@QAE@XZ 0040c190 f i cinder:Window.obj
 0001:0000b190       ??1?$_Tree_comp@$00V?$_Tmap_traits@U?$pair@W4slot_meta_group@detail@signals2@boost@@V?$optional@H@4@@std@@V?$_List_iterator@V?$_List_val@U?$_List_simple_types@V?$shared_ptr@V?$connection_body@U?$pair@W4slot_meta_group@detail@signals2@boost@@V?$optional@H@4@@std@@V?$slot0@_NV?$function@$$A6A_NXZ@boost@@@signals2@boost@@Vmutex@45@@detail@signals2@boost@@@boost@@@std@@@std@@@2@V?$group_key_less@HU?$less@H@std@@@detail@signals2@boost@@V?$allocator@U?$pair@$$CBU?$pair@W4slot_meta_group@detail@signals2@boost@@V?$optional@H@4@@std@@V?$_List_iterator@V?$_List_val@U?$_List_simple_types@V?$shared_ptr@V?$connection_body@U?$pair@W4slot_meta_group@detail@signals2@boost@@V?$optional@H@4@@std@@V?$slot0@_NV?$function@$$A6A_NXZ@boost@@@signals2@boost@@Vmutex@45@@detail@signals2@boost@@@boost@@@std@@@std@@@2@@std@@@2@$0A@@std@@@std@@QAE@XZ 0040c190 f i cinder:AppBasic.obj
 0001:0000b190       ??1?$_Tree_comp@$00V?$_Tmap_traits@U?$pair@W4slot_meta_group@detail@signals2@boost@@V?$optional@H@4@@std@@V?$_List_iterator@V?$_List_val@U?$_List_simple_types@V?$shared_ptr@V?$connection_body@U?$pair@W4slot_meta_group@detail@signals2@boost@@V?$optional@H@4@@std@@V?$slot1@XAAVFileDropEvent@app@cinder@@V?$function@$$A6AXAAVFileDropEvent@app@cinder@@@Z@boost@@@signals2@boost@@Vmutex@45@@detail@signals2@boost@@@boost@@@std@@@std@@@2@V?$group_key_less@HU?$less@H@std@@@detail@signals2@boost@@V?$allocator@U?$pair@$$CBU?$pair@W4slot_meta_group@detail@signals2@boost@@V?$optional@H@4@@std@@V?$_List_iterator@V?$_List_val@U?$_List_simple_types@V?$shared_ptr@V?$connection_body@U?$pair@W4slot_meta_group@detail@signals2@boost@@V?$optional@H@4@@std@@V?$slot1@XAAVFileDropEvent@app@cinder@@V?$function@$$A6AXAAVFileDropEvent@app@cinder@@@Z@boost@@@signals2@boost@@Vmutex@45@@detail@signals2@boost@@@boost@@@std@@@std@@@2@@std@@@2@$0A@@std@@@std@@QAE@XZ 0040c190 f i cinder:Window.obj
 0001:0000b190       ??1?$_Tree_comp@$00V?$_Tmap_traits@U?$pair@W4slot_meta_group@detail@signals2@boost@@V?$optional@H@4@@std@@V?$_List_iterator@V?$_List_val@U?$_List_simple_types@V?$shared_ptr@V?$connection_body@U?$pair@W4slot_meta_group@detail@signals2@boost@@V?$optional@H@4@@std@@V?$slot1@XAAVKeyEvent@app@cinder@@V?$function@$$A6AXAAVKeyEvent@app@cinder@@@Z@boost@@@signals2@boost@@Vmutex@45@@detail@signals2@boost@@@boost@@@std@@@std@@@2@V?$group_key_less@HU?$less@H@std@@@detail@signals2@boost@@V?$allocator@U?$pair@$$CBU?$pair@W4slot_meta_group@detail@signals2@boost@@V?$optional@H@4@@std@@V?$_List_iterator@V?$_List_val@U?$_List_simple_types@V?$shared_ptr@V?$connection_body@U?$pair@W4slot_meta_group@detail@signals2@boost@@V?$optional@H@4@@std@@V?$slot1@XAAVKeyEvent@app@cinder@@V?$function@$$A6AXAAVKeyEvent@app@cinder@@@Z@boost@@@signals2@boost@@Vmutex@45@@detail@signals2@boost@@@boost@@@std@@@std@@@2@@std@@@2@$0A@@std@@@std@@QAE@XZ 0040c190 f i cinder:Window.obj
 0001:0000b190       ??1?$_List_buy@V?$shared_ptr@V?$connection_body@U?$pair@W4slot_meta_group@detail@signals2@boost@@V?$optional@H@4@@std@@V?$slot1@XAAVFileDropEvent@app@cinder@@V?$function@$$A6AXAAVFileDropEvent@app@cinder@@@Z@boost@@@signals2@boost@@Vmutex@45@@detail@signals2@boost@@@boost@@V?$allocator@V?$shared_ptr@V?$connection_body@U?$pair@W4slot_meta_group@detail@signals2@boost@@V?$optional@H@4@@std@@V?$slot1@XAAVFileDropEvent@app@cinder@@V?$function@$$A6AXAAVFileDropEvent@app@cinder@@@Z@boost@@@signals2@boost@@Vmutex@45@@detail@signals2@boost@@@boost@@@std@@@std@@QAE@XZ 0040c190 f i cinder:Window.obj
 0001:0000b190       ??1?$_List_buy@V?$shared_ptr@V?$connection_body@U?$pair@W4slot_meta_group@detail@signals2@boost@@V?$optional@H@4@@std@@V?$slot1@XAAVKeyEvent@app@cinder@@V?$function@$$A6AXAAVKeyEvent@app@cinder@@@Z@boost@@@signals2@boost@@Vmutex@45@@detail@signals2@boost@@@boost@@V?$allocator@V?$shared_ptr@V?$connection_body@U?$pair@W4slot_meta_group@detail@signals2@boost@@V?$optional@H@4@@std@@V?$slot1@XAAVKeyEvent@app@cinder@@V?$function@$$A6AXAAVKeyEvent@app@cinder@@@Z@boost@@@signals2@boost@@Vmutex@45@@detail@signals2@boost@@@boost@@@std@@@std@@QAE@XZ 0040c190 f i cinder:Window.obj
 0001:0000b190       ??1?$_List_buy@V?$shared_ptr@V?$connection_body@U?$pair@W4slot_meta_group@detail@signals2@boost@@V?$optional@H@4@@std@@V?$slot1@XAAVMouseEvent@app@cinder@@V?$function@$$A6AXAAVMouseEvent@app@cinder@@@Z@boost@@@signals2@boost@@Vmutex@45@@detail@signals2@boost@@@boost@@V?$allocator@V?$shared_ptr@V?$connection_body@U?$pair@W4slot_meta_group@detail@signals2@boost@@V?$optional@H@4@@std@@V?$slot1@XAAVMouseEvent@app@cinder@@V?$function@$$A6AXAAVMouseEvent@app@cinder@@@Z@boost@@@signals2@boost@@Vmutex@45@@detail@signals2@boost@@@boost@@@std@@@std@@QAE@XZ 0040c190 f i cinder:Window.obj
 0001:0000b190       ??1?$_Tree_comp@$00V?$_Tmap_traits@U?$pair@W4slot_meta_group@detail@signals2@boost@@V?$optional@H@4@@std@@V?$_List_iterator@V?$_List_val@U?$_List_simple_types@V?$shared_ptr@V?$connection_body@U?$pair@W4slot_meta_group@detail@signals2@boost@@V?$optional@H@4@@std@@V?$slot0@XV?$function@$$A6AXXZ@boost@@@signals2@boost@@Vmutex@45@@detail@signals2@boost@@@boost@@@std@@@std@@@2@V?$group_key_less@HU?$less@H@std@@@detail@signals2@boost@@V?$allocator@U?$pair@$$CBU?$pair@W4slot_meta_group@detail@signals2@boost@@V?$optional@H@4@@std@@V?$_List_iterator@V?$_List_val@U?$_List_simple_types@V?$shared_ptr@V?$connection_body@U?$pair@W4slot_meta_group@detail@signals2@boost@@V?$optional@H@4@@std@@V?$slot0@XV?$function@$$A6AXXZ@boost@@@signals2@boost@@Vmutex@45@@detail@signals2@boost@@@boost@@@std@@@std@@@2@@std@@@2@$0A@@std@@@std@@QAE@XZ 0040c190 f i cinder:Window.obj
 0001:0000b190       ??1?$_Tree_comp@$00V?$_Tmap_traits@U?$pair@W4slot_meta_group@detail@signals2@boost@@V?$optional@H@4@@std@@V?$_List_iterator@V?$_List_val@U?$_List_simple_types@V?$shared_ptr@V?$connection_body@U?$pair@W4slot_meta_group@detail@signals2@boost@@V?$optional@H@4@@std@@V?$slot1@XAAVTouchEvent@app@cinder@@V?$function@$$A6AXAAVTouchEvent@app@cinder@@@Z@boost@@@signals2@boost@@Vmutex@45@@detail@signals2@boost@@@boost@@@std@@@std@@@2@V?$group_key_less@HU?$less@H@std@@@detail@signals2@boost@@V?$allocator@U?$pair@$$CBU?$pair@W4slot_meta_group@detail@signals2@boost@@V?$optional@H@4@@std@@V?$_List_iterator@V?$_List_val@U?$_List_simple_types@V?$shared_ptr@V?$connection_body@U?$pair@W4slot_meta_group@detail@signals2@boost@@V?$optional@H@4@@std@@V?$slot1@XAAVTouchEvent@app@cinder@@V?$function@$$A6AXAAVTouchEvent@app@cinder@@@Z@boost@@@signals2@boost@@Vmutex@45@@detail@signals2@boost@@@boost@@@std@@@std@@@2@@std@@@2@$0A@@std@@@std@@QAE@XZ 0040c190 f i cinder:Window.obj
 0001:0000b190       ??1?$_List_buy@V?$shared_ptr@V?$connection_body@U?$pair@W4slot_meta_group@detail@signals2@boost@@V?$optional@H@4@@std@@V?$slot0@XV?$function@$$A6AXXZ@boost@@@signals2@boost@@Vmutex@45@@detail@signals2@boost@@@boost@@V?$allocator@V?$shared_ptr@V?$connection_body@U?$pair@W4slot_meta_group@detail@signals2@boost@@V?$optional@H@4@@std@@V?$slot0@XV?$function@$$A6AXXZ@boost@@@signals2@boost@@Vmutex@45@@detail@signals2@boost@@@boost@@@std@@@std@@QAE@XZ 0040c190 f i cinder:Window.obj
 0001:0000b190       ??1?$_List_buy@V?$shared_ptr@V?$connection_body@U?$pair@W4slot_meta_group@detail@signals2@boost@@V?$optional@H@4@@std@@V?$slot0@_NV?$function@$$A6A_NXZ@boost@@@signals2@boost@@Vmutex@45@@detail@signals2@boost@@@boost@@V?$allocator@V?$shared_ptr@V?$connection_body@U?$pair@W4slot_meta_group@detail@signals2@boost@@V?$optional@H@4@@std@@V?$slot0@_NV?$function@$$A6A_NXZ@boost@@@signals2@boost@@Vmutex@45@@detail@signals2@boost@@@boost@@@std@@@std@@QAE@XZ 0040c190 f i cinder:AppBasic.obj
 0001:0000b190       ??1?$_List_buy@V?$shared_ptr@V?$connection_body@U?$pair@W4slot_meta_group@detail@signals2@boost@@V?$optional@H@4@@std@@V?$slot1@XAAVTouchEvent@app@cinder@@V?$function@$$A6AXAAVTouchEvent@app@cinder@@@Z@boost@@@signals2@boost@@Vmutex@45@@detail@signals2@boost@@@boost@@V?$allocator@V?$shared_ptr@V?$connection_body@U?$pair@W4slot_meta_group@detail@signals2@boost@@V?$optional@H@4@@std@@V?$slot1@XAAVTouchEvent@app@cinder@@V?$function@$$A6AXAAVTouchEvent@app@cinder@@@Z@boost@@@signals2@boost@@Vmutex@45@@detail@signals2@boost@@@boost@@@std@@@std@@QAE@XZ 0040c190 f i cinder:Window.obj
 0001:0000b1a0       ??1?$clone_impl@U?$error_info_injector@Vbad_function_call@boost@@@exception_detail@boost@@@exception_detail@boost@@UAE@XZ 0040c1a0 f i cinder:Window.obj
 0001:0000b200       ??1?$error_info_injector@Vbad_function_call@boost@@@exception_detail@boost@@UAE@XZ 0040c200 f i cinder:Window.obj
 0001:0000b240       ??1?$grouped_list@HU?$less@H@std@@V?$shared_ptr@V?$connection_body@U?$pair@W4slot_meta_group@detail@signals2@boost@@V?$optional@H@4@@std@@V?$slot0@_NV?$function@$$A6A_NXZ@boost@@@signals2@boost@@Vmutex@45@@detail@signals2@boost@@@boost@@@detail@signals2@boost@@QAE@XZ 0040c240 f i cinder:AppBasic.obj
 0001:0000b240       ??1?$grouped_list@HU?$less@H@std@@V?$shared_ptr@V?$connection_body@U?$pair@W4slot_meta_group@detail@signals2@boost@@V?$optional@H@4@@std@@V?$slot1@XAAVKeyEvent@app@cinder@@V?$function@$$A6AXAAVKeyEvent@app@cinder@@@Z@boost@@@signals2@boost@@Vmutex@45@@detail@signals2@boost@@@boost@@@detail@signals2@boost@@QAE@XZ 0040c240 f i cinder:Window.obj
 0001:0000b240       ??1?$grouped_list@HU?$less@H@std@@V?$shared_ptr@V?$connection_body@U?$pair@W4slot_meta_group@detail@signals2@boost@@V?$optional@H@4@@std@@V?$slot1@XAAVFileDropEvent@app@cinder@@V?$function@$$A6AXAAVFileDropEvent@app@cinder@@@Z@boost@@@signals2@boost@@Vmutex@45@@detail@signals2@boost@@@boost@@@detail@signals2@boost@@QAE@XZ 0040c240 f i cinder:Window.obj
 0001:0000b240       ??1?$grouped_list@HU?$less@H@std@@V?$shared_ptr@V?$connection_body@U?$pair@W4slot_meta_group@detail@signals2@boost@@V?$optional@H@4@@std@@V?$slot1@XAAVTouchEvent@app@cinder@@V?$function@$$A6AXAAVTouchEvent@app@cinder@@@Z@boost@@@signals2@boost@@Vmutex@45@@detail@signals2@boost@@@boost@@@detail@signals2@boost@@QAE@XZ 0040c240 f i cinder:Window.obj
 0001:0000b240       ??1?$grouped_list@HU?$less@H@std@@V?$shared_ptr@V?$connection_body@U?$pair@W4slot_meta_group@detail@signals2@boost@@V?$optional@H@4@@std@@V?$slot0@XV?$function@$$A6AXXZ@boost@@@signals2@boost@@Vmutex@45@@detail@signals2@boost@@@boost@@@detail@signals2@boost@@QAE@XZ 0040c240 f i cinder:Window.obj
 0001:0000b240       ??1?$grouped_list@HU?$less@H@std@@V?$shared_ptr@V?$connection_body@U?$pair@W4slot_meta_group@detail@signals2@boost@@V?$optional@H@4@@std@@V?$slot1@XAAVMouseEvent@app@cinder@@V?$function@$$A6AXAAVMouseEvent@app@cinder@@@Z@boost@@@signals2@boost@@Vmutex@45@@detail@signals2@boost@@@boost@@@detail@signals2@boost@@QAE@XZ 0040c240 f i cinder:Window.obj
 0001:0000b280       ??1?$list@V?$shared_ptr@V?$connection_body@U?$pair@W4slot_meta_group@detail@signals2@boost@@V?$optional@H@4@@std@@V?$slot1@XAAVKeyEvent@app@cinder@@V?$function@$$A6AXAAVKeyEvent@app@cinder@@@Z@boost@@@signals2@boost@@Vmutex@45@@detail@signals2@boost@@@boost@@V?$allocator@V?$shared_ptr@V?$connection_body@U?$pair@W4slot_meta_group@detail@signals2@boost@@V?$optional@H@4@@std@@V?$slot1@XAAVKeyEvent@app@cinder@@V?$function@$$A6AXAAVKeyEvent@app@cinder@@@Z@boost@@@signals2@boost@@Vmutex@45@@detail@signals2@boost@@@boost@@@std@@@std@@QAE@XZ 0040c280 f i cinder:Window.obj
 0001:0000b280       ??1?$list@V?$shared_ptr@V?$connection_body@U?$pair@W4slot_meta_group@detail@signals2@boost@@V?$optional@H@4@@std@@V?$slot0@XV?$function@$$A6AXXZ@boost@@@signals2@boost@@Vmutex@45@@detail@signals2@boost@@@boost@@V?$allocator@V?$shared_ptr@V?$connection_body@U?$pair@W4slot_meta_group@detail@signals2@boost@@V?$optional@H@4@@std@@V?$slot0@XV?$function@$$A6AXXZ@boost@@@signals2@boost@@Vmutex@45@@detail@signals2@boost@@@boost@@@std@@@std@@QAE@XZ 0040c280 f i cinder:Window.obj
 0001:0000b280       ??1?$list@V?$shared_ptr@V?$connection_body@U?$pair@W4slot_meta_group@detail@signals2@boost@@V?$optional@H@4@@std@@V?$slot1@XAAVFileDropEvent@app@cinder@@V?$function@$$A6AXAAVFileDropEvent@app@cinder@@@Z@boost@@@signals2@boost@@Vmutex@45@@detail@signals2@boost@@@boost@@V?$allocator@V?$shared_ptr@V?$connection_body@U?$pair@W4slot_meta_group@detail@signals2@boost@@V?$optional@H@4@@std@@V?$slot1@XAAVFileDropEvent@app@cinder@@V?$function@$$A6AXAAVFileDropEvent@app@cinder@@@Z@boost@@@signals2@boost@@Vmutex@45@@detail@signals2@boost@@@boost@@@std@@@std@@QAE@XZ 0040c280 f i cinder:Window.obj
 0001:0000b280       ??1?$list@V?$shared_ptr@V?$connection_body@U?$pair@W4slot_meta_group@detail@signals2@boost@@V?$optional@H@4@@std@@V?$slot1@XAAVMouseEvent@app@cinder@@V?$function@$$A6AXAAVMouseEvent@app@cinder@@@Z@boost@@@signals2@boost@@Vmutex@45@@detail@signals2@boost@@@boost@@V?$allocator@V?$shared_ptr@V?$connection_body@U?$pair@W4slot_meta_group@detail@signals2@boost@@V?$optional@H@4@@std@@V?$slot1@XAAVMouseEvent@app@cinder@@V?$function@$$A6AXAAVMouseEvent@app@cinder@@@Z@boost@@@signals2@boost@@Vmutex@45@@detail@signals2@boost@@@boost@@@std@@@std@@QAE@XZ 0040c280 f i cinder:Window.obj
 0001:0000b280       ??1?$list@V?$shared_ptr@V?$connection_body@U?$pair@W4slot_meta_group@detail@signals2@boost@@V?$optional@H@4@@std@@V?$slot0@_NV?$function@$$A6A_NXZ@boost@@@signals2@boost@@Vmutex@45@@detail@signals2@boost@@@boost@@V?$allocator@V?$shared_ptr@V?$connection_body@U?$pair@W4slot_meta_group@detail@signals2@boost@@V?$optional@H@4@@std@@V?$slot0@_NV?$function@$$A6A_NXZ@boost@@@signals2@boost@@Vmutex@45@@detail@signals2@boost@@@boost@@@std@@@std@@QAE@XZ 0040c280 f i cinder:AppBasic.obj
 0001:0000b280       ??1?$list@V?$shared_ptr@V?$connection_body@U?$pair@W4slot_meta_group@detail@signals2@boost@@V?$optional@H@4@@std@@V?$slot1@XAAVTouchEvent@app@cinder@@V?$function@$$A6AXAAVTouchEvent@app@cinder@@@Z@boost@@@signals2@boost@@Vmutex@45@@detail@signals2@boost@@@boost@@V?$allocator@V?$shared_ptr@V?$connection_body@U?$pair@W4slot_meta_group@detail@signals2@boost@@V?$optional@H@4@@std@@V?$slot1@XAAVTouchEvent@app@cinder@@V?$function@$$A6AXAAVTouchEvent@app@cinder@@@Z@boost@@@signals2@boost@@Vmutex@45@@detail@signals2@boost@@@boost@@@std@@@std@@QAE@XZ 0040c280 f i cinder:Window.obj
 0001:0000b2a0       ??1?$obj_scope_guard_impl2@V?$auto_buffer@V?$variant@V?$shared_ptr@X@boost@@Vforeign_void_shared_ptr@detail@signals2@2@Uvoid_@042@U6042@U6042@U6042@U6042@U6042@U6042@U6042@U6042@U6042@U6042@U6042@U6042@U6042@U6042@U6042@U6042@U6042@@boost@@U?$store_n_objects@$09@detail@signals2@2@Udefault_grow_policy@452@V?$allocator@V?$variant@V?$shared_ptr@X@boost@@Vforeign_void_shared_ptr@detail@signals2@2@Uvoid_@042@U6042@U6042@U6042@U6042@U6042@U6042@U6042@U6042@U6042@U6042@U6042@U6042@U6042@U6042@U6042@U6042@U6042@@boost@@@std@@@detail@signals2@boost@@P81234@AEXPAV?$variant@V?$shared_ptr@X@boost@@Vforeign_void_shared_ptr@detail@signals2@2@Uvoid_@042@U6042@U6042@U6042@U6042@U6042@U6042@U6042@U6042@U6042@U6042@U6042@U6042@U6042@U6042@U6042@U6042@U6042@@4@I@ZPAV54@I@detail@multi_index@boost@@QAE@XZ 0040c2a0 f i cinder:Window.obj
 0001:0000b2b0       ??1?$optional@Uvoid_type@detail@signals2@boost@@@boost@@QAE@XZ 0040c2b0 f i cinder:Window.obj
 0001:0000b2c0       ??1?$pair@U?$pair@W4slot_meta_group@detail@signals2@boost@@V?$optional@H@4@@std@@V?$_List_iterator@V?$_List_val@U?$_List_simple_types@V?$shared_ptr@V?$connection_body@U?$pair@W4slot_meta_group@detail@signals2@boost@@V?$optional@H@4@@std@@V?$slot1@XAAVMouseEvent@app@cinder@@V?$function@$$A6AXAAVMouseEvent@app@cinder@@@Z@boost@@@signals2@boost@@Vmutex@45@@detail@signals2@boost@@@boost@@@std@@@std@@@2@@std@@QAE@XZ 0040c2c0 f i cinder:Window.obj
 0001:0000b2c0       ??1?$pair@U?$pair@W4slot_meta_group@detail@signals2@boost@@V?$optional@H@4@@std@@V?$_List_iterator@V?$_List_val@U?$_List_simple_types@V?$shared_ptr@V?$connection_body@U?$pair@W4slot_meta_group@detail@signals2@boost@@V?$optional@H@4@@std@@V?$slot1@XAAVTouchEvent@app@cinder@@V?$function@$$A6AXAAVTouchEvent@app@cinder@@@Z@boost@@@signals2@boost@@Vmutex@45@@detail@signals2@boost@@@boost@@@std@@@std@@@2@@std@@QAE@XZ 0040c2c0 f i cinder:Window.obj
 0001:0000b2c0       ??1?$pair@U?$pair@W4slot_meta_group@detail@signals2@boost@@V?$optional@H@4@@std@@V?$_List_iterator@V?$_List_val@U?$_List_simple_types@V?$shared_ptr@V?$connection_body@U?$pair@W4slot_meta_group@detail@signals2@boost@@V?$optional@H@4@@std@@V?$slot0@XV?$function@$$A6AXXZ@boost@@@signals2@boost@@Vmutex@45@@detail@signals2@boost@@@boost@@@std@@@std@@@2@@std@@QAE@XZ 0040c2c0 f i cinder:Window.obj
 0001:0000b2c0       ??1?$pair@U?$pair@W4slot_meta_group@detail@signals2@boost@@V?$optional@H@4@@std@@V?$_List_iterator@V?$_List_val@U?$_List_simple_types@V?$shared_ptr@V?$connection_body@U?$pair@W4slot_meta_group@detail@signals2@boost@@V?$optional@H@4@@std@@V?$slot1@XAAVKeyEvent@app@cinder@@V?$function@$$A6AXAAVKeyEvent@app@cinder@@@Z@boost@@@signals2@boost@@Vmutex@45@@detail@signals2@boost@@@boost@@@std@@@std@@@2@@std@@QAE@XZ 0040c2c0 f i cinder:Window.obj
 0001:0000b2c0       ??1?$pair@U?$pair@W4slot_meta_group@detail@signals2@boost@@V?$optional@H@4@@std@@V?$_List_iterator@V?$_List_val@U?$_List_simple_types@V?$shared_ptr@V?$connection_body@U?$pair@W4slot_meta_group@detail@signals2@boost@@V?$optional@H@4@@std@@V?$slot1@XAAVFileDropEvent@app@cinder@@V?$function@$$A6AXAAVFileDropEvent@app@cinder@@@Z@boost@@@signals2@boost@@Vmutex@45@@detail@signals2@boost@@@boost@@@std@@@std@@@2@@std@@QAE@XZ 0040c2c0 f i cinder:Window.obj
 0001:0000b2d0       ??1?$refcount_ptr@Uerror_info_container@exception_detail@boost@@@exception_detail@boost@@QAE@XZ 0040c2d0 f i cinder:Window.obj
 0001:0000b2f0       ??1?$slot_call_iterator_cache@Uvoid_type@detail@signals2@boost@@Vslot_invoker@?$signal1_impl@XAAVFileDropEvent@app@cinder@@U?$EventCombiner@VFileDropEvent@app@cinder@@@23@HU?$less@H@std@@V?$function@$$A6AXAAVFileDropEvent@app@cinder@@@Z@boost@@V?$function@$$A6AXABVconnection@signals2@boost@@AAVFileDropEvent@app@cinder@@@Z@8@Vmutex@signals2@8@@234@@detail@signals2@boost@@QAE@XZ 0040c2f0 f i cinder:Window.obj
 0001:0000b2f0       ??1?$slot_call_iterator_cache@Uvoid_type@detail@signals2@boost@@Vslot_invoker@?$signal1_impl@XAAVKeyEvent@app@cinder@@U?$EventCombiner@VKeyEvent@app@cinder@@@23@HU?$less@H@std@@V?$function@$$A6AXAAVKeyEvent@app@cinder@@@Z@boost@@V?$function@$$A6AXABVconnection@signals2@boost@@AAVKeyEvent@app@cinder@@@Z@8@Vmutex@signals2@8@@234@@detail@signals2@boost@@QAE@XZ 0040c2f0 f i cinder:Window.obj
 0001:0000b2f0       ??1?$slot_call_iterator_cache@Uvoid_type@detail@signals2@boost@@Vslot_invoker@?$signal0_impl@XV?$optional_last_value@X@signals2@boost@@HU?$less@H@std@@V?$function@$$A6AXXZ@3@V?$function@$$A6AXABVconnection@signals2@boost@@@Z@3@Vmutex@23@@234@@detail@signals2@boost@@QAE@XZ 0040c2f0 f i cinder:Window.obj
 0001:0000b2f0       ??1?$slot_call_iterator_cache@Uvoid_type@detail@signals2@boost@@Vslot_invoker@?$signal1_impl@XAAVTouchEvent@app@cinder@@U?$EventCombiner@VTouchEvent@app@cinder@@@23@HU?$less@H@std@@V?$function@$$A6AXAAVTouchEvent@app@cinder@@@Z@boost@@V?$function@$$A6AXABVconnection@signals2@boost@@AAVTouchEvent@app@cinder@@@Z@8@Vmutex@signals2@8@@234@@detail@signals2@boost@@QAE@XZ 0040c2f0 f i cinder:Window.obj
 0001:0000b2f0       ??1?$slot_call_iterator_cache@Uvoid_type@detail@signals2@boost@@Vslot_invoker@?$signal1_impl@XAAVMouseEvent@app@cinder@@U?$EventCombiner@VMouseEvent@app@cinder@@@23@HU?$less@H@std@@V?$function@$$A6AXAAVMouseEvent@app@cinder@@@Z@boost@@V?$function@$$A6AXABVconnection@signals2@boost@@AAVMouseEvent@app@cinder@@@Z@8@Vmutex@signals2@8@@234@@detail@signals2@boost@@QAE@XZ 0040c2f0 f i cinder:Window.obj
 0001:0000b370       ??1?$unique_lock@Vconnection_body_base@detail@signals2@boost@@@detail@signals2@boost@@QAE@XZ 0040c370 f i cinder:Window.obj
 0001:0000b380       ??1?$unique_lock@Vmutex@signals2@boost@@@detail@signals2@boost@@QAE@XZ 0040c380 f i cinder:Window.obj
 0001:0000b390       ??1?$variant@V?$shared_ptr@X@boost@@Vforeign_void_shared_ptr@detail@signals2@2@Uvoid_@042@U6042@U6042@U6042@U6042@U6042@U6042@U6042@U6042@U6042@U6042@U6042@U6042@U6042@U6042@U6042@U6042@U6042@@boost@@QAE@XZ 0040c390 f i cinder:Window.obj
 0001:0000b3d0       ??1clone_base@exception_detail@boost@@UAE@XZ 0040c3d0 f i cinder:Window.obj
 0001:0000b3e0       ??1exception@boost@@MAE@XZ 0040c3e0 f i cinder:Window.obj
 0001:0000b410       ??1foreign_void_shared_ptr@detail@signals2@boost@@QAE@XZ 0040c410 f i cinder:Window.obj
 0001:0000b420       ??1invocation_janitor@?$signal0_impl@XV?$optional_last_value@X@signals2@boost@@HU?$less@H@std@@V?$function@$$A6AXXZ@3@V?$function@$$A6AXABVconnection@signals2@boost@@@Z@3@Vmutex@23@@detail@signals2@boost@@QAE@XZ 0040c420 f i cinder:Window.obj
 0001:0000b440       ??1invocation_janitor@?$signal1_impl@XAAVFileDropEvent@app@cinder@@U?$EventCombiner@VFileDropEvent@app@cinder@@@23@HU?$less@H@std@@V?$function@$$A6AXAAVFileDropEvent@app@cinder@@@Z@boost@@V?$function@$$A6AXABVconnection@signals2@boost@@AAVFileDropEvent@app@cinder@@@Z@8@Vmutex@signals2@8@@detail@signals2@boost@@QAE@XZ 0040c440 f i cinder:Window.obj
 0001:0000b460       ??1invocation_janitor@?$signal1_impl@XAAVKeyEvent@app@cinder@@U?$EventCombiner@VKeyEvent@app@cinder@@@23@HU?$less@H@std@@V?$function@$$A6AXAAVKeyEvent@app@cinder@@@Z@boost@@V?$function@$$A6AXABVconnection@signals2@boost@@AAVKeyEvent@app@cinder@@@Z@8@Vmutex@signals2@8@@detail@signals2@boost@@QAE@XZ 0040c460 f i cinder:Window.obj
 0001:0000b480       ??1invocation_janitor@?$signal1_impl@XAAVMouseEvent@app@cinder@@U?$EventCombiner@VMouseEvent@app@cinder@@@23@HU?$less@H@std@@V?$function@$$A6AXAAVMouseEvent@app@cinder@@@Z@boost@@V?$function@$$A6AXABVconnection@signals2@boost@@AAVMouseEvent@app@cinder@@@Z@8@Vmutex@signals2@8@@detail@signals2@boost@@QAE@XZ 0040c480 f i cinder:Window.obj
 0001:0000b4a0       ??1invocation_janitor@?$signal1_impl@XAAVTouchEvent@app@cinder@@U?$EventCombiner@VTouchEvent@app@cinder@@@23@HU?$less@H@std@@V?$function@$$A6AXAAVTouchEvent@app@cinder@@@Z@boost@@V?$function@$$A6AXABVconnection@signals2@boost@@AAVTouchEvent@app@cinder@@@Z@8@Vmutex@signals2@8@@detail@signals2@boost@@QAE@XZ 0040c4a0 f i cinder:Window.obj
 0001:0000b4c0       ??1invocation_state@?$signal1_impl@XAAVTouchEvent@app@cinder@@U?$EventCombiner@VTouchEvent@app@cinder@@@23@HU?$less@H@std@@V?$function@$$A6AXAAVTouchEvent@app@cinder@@@Z@boost@@V?$function@$$A6AXABVconnection@signals2@boost@@AAVTouchEvent@app@cinder@@@Z@8@Vmutex@signals2@8@@detail@signals2@boost@@QAE@XZ 0040c4c0 f i cinder:Window.obj
 0001:0000b4c0       ??1invocation_state@?$signal1_impl@XAAVFileDropEvent@app@cinder@@U?$EventCombiner@VFileDropEvent@app@cinder@@@23@HU?$less@H@std@@V?$function@$$A6AXAAVFileDropEvent@app@cinder@@@Z@boost@@V?$function@$$A6AXABVconnection@signals2@boost@@AAVFileDropEvent@app@cinder@@@Z@8@Vmutex@signals2@8@@detail@signals2@boost@@QAE@XZ 0040c4c0 f i cinder:Window.obj
 0001:0000b4c0       ??1invocation_state@?$signal1_impl@XAAVMouseEvent@app@cinder@@U?$EventCombiner@VMouseEvent@app@cinder@@@23@HU?$less@H@std@@V?$function@$$A6AXAAVMouseEvent@app@cinder@@@Z@boost@@V?$function@$$A6AXABVconnection@signals2@boost@@AAVMouseEvent@app@cinder@@@Z@8@Vmutex@signals2@8@@detail@signals2@boost@@QAE@XZ 0040c4c0 f i cinder:Window.obj
 0001:0000b4c0       ??1invocation_state@?$signal1_impl@XAAVKeyEvent@app@cinder@@U?$EventCombiner@VKeyEvent@app@cinder@@@23@HU?$less@H@std@@V?$function@$$A6AXAAVKeyEvent@app@cinder@@@Z@boost@@V?$function@$$A6AXABVconnection@signals2@boost@@AAVKeyEvent@app@cinder@@@Z@8@Vmutex@signals2@8@@detail@signals2@boost@@QAE@XZ 0040c4c0 f i cinder:Window.obj
 0001:0000b4c0       ??1invocation_state@?$signal0_impl@XV?$optional_last_value@X@signals2@boost@@HU?$less@H@std@@V?$function@$$A6AXXZ@3@V?$function@$$A6AXABVconnection@signals2@boost@@@Z@3@Vmutex@23@@detail@signals2@boost@@QAE@XZ 0040c4c0 f i cinder:Window.obj
 0001:0000b4c0       ??1invocation_state@?$signal0_impl@_NUBooleanAndEventCombiner@app@cinder@@HU?$less@H@std@@V?$function@$$A6A_NXZ@boost@@V?$function@$$A6A_NABVconnection@signals2@boost@@@Z@7@Vmutex@signals2@7@@detail@signals2@boost@@QAE@XZ 0040c4c0 f i cinder:AppBasic.obj
 0001:0000b570       ??1shared_count@detail@boost@@QAE@XZ 0040c570 f i cinder:Window.obj
 0001:0000b5b0       ??A?$map@U?$pair@W4slot_meta_group@detail@signals2@boost@@V?$optional@H@4@@std@@V?$_List_iterator@V?$_List_val@U?$_List_simple_types@V?$shared_ptr@V?$connection_body@U?$pair@W4slot_meta_group@detail@signals2@boost@@V?$optional@H@4@@std@@V?$slot1@XAAVMouseEvent@app@cinder@@V?$function@$$A6AXAAVMouseEvent@app@cinder@@@Z@boost@@@signals2@boost@@Vmutex@45@@detail@signals2@boost@@@boost@@@std@@@std@@@2@V?$group_key_less@HU?$less@H@std@@@detail@signals2@boost@@V?$allocator@U?$pair@$$CBU?$pair@W4slot_meta_group@detail@signals2@boost@@V?$optional@H@4@@std@@V?$_List_iterator@V?$_List_val@U?$_List_simple_types@V?$shared_ptr@V?$connection_body@U?$pair@W4slot_meta_group@detail@signals2@boost@@V?$optional@H@4@@std@@V?$slot1@XAAVMouseEvent@app@cinder@@V?$function@$$A6AXAAVMouseEvent@app@cinder@@@Z@boost@@@signals2@boost@@Vmutex@45@@detail@signals2@boost@@@boost@@@std@@@std@@@2@@std@@@2@@std@@QAEAAV?$_List_iterator@V?$_List_val@U?$_List_simple_types@V?$shared_ptr@V?$connection_body@U?$pair@W4slot_meta_group@detail@signals2@boost@@V?$optional@H@4@@std@@V?$slot1@XAAVMouseEvent@app@cinder@@V?$function@$$A6AXAAVMouseEvent@app@cinder@@@Z@boost@@@signals2@boost@@Vmutex@45@@detail@signals2@boost@@@boost@@@std@@@std@@@1@ABU?$pair@W4slot_meta_group@detail@signals2@boost@@V?$optional@H@4@@1@@Z 0040c5b0 f i cinder:Window.obj
 0001:0000b5b0       ??A?$map@U?$pair@W4slot_meta_group@detail@signals2@boost@@V?$optional@H@4@@std@@V?$_List_iterator@V?$_List_val@U?$_List_simple_types@V?$shared_ptr@V?$connection_body@U?$pair@W4slot_meta_group@detail@signals2@boost@@V?$optional@H@4@@std@@V?$slot1@XAAVFileDropEvent@app@cinder@@V?$function@$$A6AXAAVFileDropEvent@app@cinder@@@Z@boost@@@signals2@boost@@Vmutex@45@@detail@signals2@boost@@@boost@@@std@@@std@@@2@V?$group_key_less@HU?$less@H@std@@@detail@signals2@boost@@V?$allocator@U?$pair@$$CBU?$pair@W4slot_meta_group@detail@signals2@boost@@V?$optional@H@4@@std@@V?$_List_iterator@V?$_List_val@U?$_List_simple_types@V?$shared_ptr@V?$connection_body@U?$pair@W4slot_meta_group@detail@signals2@boost@@V?$optional@H@4@@std@@V?$slot1@XAAVFileDropEvent@app@cinder@@V?$function@$$A6AXAAVFileDropEvent@app@cinder@@@Z@boost@@@signals2@boost@@Vmutex@45@@detail@signals2@boost@@@boost@@@std@@@std@@@2@@std@@@2@@std@@QAEAAV?$_List_iterator@V?$_List_val@U?$_List_simple_types@V?$shared_ptr@V?$connection_body@U?$pair@W4slot_meta_group@detail@signals2@boost@@V?$optional@H@4@@std@@V?$slot1@XAAVFileDropEvent@app@cinder@@V?$function@$$A6AXAAVFileDropEvent@app@cinder@@@Z@boost@@@signals2@boost@@Vmutex@45@@detail@signals2@boost@@@boost@@@std@@@std@@@1@ABU?$pair@W4slot_meta_group@detail@signals2@boost@@V?$optional@H@4@@1@@Z 0040c5b0 f i cinder:Window.obj
 0001:0000b5b0       ??A?$map@U?$pair@W4slot_meta_group@detail@signals2@boost@@V?$optional@H@4@@std@@V?$_List_iterator@V?$_List_val@U?$_List_simple_types@V?$shared_ptr@V?$connection_body@U?$pair@W4slot_meta_group@detail@signals2@boost@@V?$optional@H@4@@std@@V?$slot1@XAAVKeyEvent@app@cinder@@V?$function@$$A6AXAAVKeyEvent@app@cinder@@@Z@boost@@@signals2@boost@@Vmutex@45@@detail@signals2@boost@@@boost@@@std@@@std@@@2@V?$group_key_less@HU?$less@H@std@@@detail@signals2@boost@@V?$allocator@U?$pair@$$CBU?$pair@W4slot_meta_group@detail@signals2@boost@@V?$optional@H@4@@std@@V?$_List_iterator@V?$_List_val@U?$_List_simple_types@V?$shared_ptr@V?$connection_body@U?$pair@W4slot_meta_group@detail@signals2@boost@@V?$optional@H@4@@std@@V?$slot1@XAAVKeyEvent@app@cinder@@V?$function@$$A6AXAAVKeyEvent@app@cinder@@@Z@boost@@@signals2@boost@@Vmutex@45@@detail@signals2@boost@@@boost@@@std@@@std@@@2@@std@@@2@@std@@QAEAAV?$_List_iterator@V?$_List_val@U?$_List_simple_types@V?$shared_ptr@V?$connection_body@U?$pair@W4slot_meta_group@detail@signals2@boost@@V?$optional@H@4@@std@@V?$slot1@XAAVKeyEvent@app@cinder@@V?$function@$$A6AXAAVKeyEvent@app@cinder@@@Z@boost@@@signals2@boost@@Vmutex@45@@detail@signals2@boost@@@boost@@@std@@@std@@@1@ABU?$pair@W4slot_meta_group@detail@signals2@boost@@V?$optional@H@4@@1@@Z 0040c5b0 f i cinder:Window.obj
 0001:0000b5b0       ??A?$map@U?$pair@W4slot_meta_group@detail@signals2@boost@@V?$optional@H@4@@std@@V?$_List_iterator@V?$_List_val@U?$_List_simple_types@V?$shared_ptr@V?$connection_body@U?$pair@W4slot_meta_group@detail@signals2@boost@@V?$optional@H@4@@std@@V?$slot0@XV?$function@$$A6AXXZ@boost@@@signals2@boost@@Vmutex@45@@detail@signals2@boost@@@boost@@@std@@@std@@@2@V?$group_key_less@HU?$less@H@std@@@detail@signals2@boost@@V?$allocator@U?$pair@$$CBU?$pair@W4slot_meta_group@detail@signals2@boost@@V?$optional@H@4@@std@@V?$_List_iterator@V?$_List_val@U?$_List_simple_types@V?$shared_ptr@V?$connection_body@U?$pair@W4slot_meta_group@detail@signals2@boost@@V?$optional@H@4@@std@@V?$slot0@XV?$function@$$A6AXXZ@boost@@@signals2@boost@@Vmutex@45@@detail@signals2@boost@@@boost@@@std@@@std@@@2@@std@@@2@@std@@QAEAAV?$_List_iterator@V?$_List_val@U?$_List_simple_types@V?$shared_ptr@V?$connection_body@U?$pair@W4slot_meta_group@detail@signals2@boost@@V?$optional@H@4@@std@@V?$slot0@XV?$function@$$A6AXXZ@boost@@@signals2@boost@@Vmutex@45@@detail@signals2@boost@@@boost@@@std@@@std@@@1@ABU?$pair@W4slot_meta_group@detail@signals2@boost@@V?$optional@H@4@@1@@Z 0040c5b0 f i cinder:Window.obj
 0001:0000b5b0       ??A?$map@U?$pair@W4slot_meta_group@detail@signals2@boost@@V?$optional@H@4@@std@@V?$_List_iterator@V?$_List_val@U?$_List_simple_types@V?$shared_ptr@V?$connection_body@U?$pair@W4slot_meta_group@detail@signals2@boost@@V?$optional@H@4@@std@@V?$slot1@XAAVTouchEvent@app@cinder@@V?$function@$$A6AXAAVTouchEvent@app@cinder@@@Z@boost@@@signals2@boost@@Vmutex@45@@detail@signals2@boost@@@boost@@@std@@@std@@@2@V?$group_key_less@HU?$less@H@std@@@detail@signals2@boost@@V?$allocator@U?$pair@$$CBU?$pair@W4slot_meta_group@detail@signals2@boost@@V?$optional@H@4@@std@@V?$_List_iterator@V?$_List_val@U?$_List_simple_types@V?$shared_ptr@V?$connection_body@U?$pair@W4slot_meta_group@detail@signals2@boost@@V?$optional@H@4@@std@@V?$slot1@XAAVTouchEvent@app@cinder@@V?$function@$$A6AXAAVTouchEvent@app@cinder@@@Z@boost@@@signals2@boost@@Vmutex@45@@detail@signals2@boost@@@boost@@@std@@@std@@@2@@std@@@2@@std@@QAEAAV?$_List_iterator@V?$_List_val@U?$_List_simple_types@V?$shared_ptr@V?$connection_body@U?$pair@W4slot_meta_group@detail@signals2@boost@@V?$optional@H@4@@std@@V?$slot1@XAAVTouchEvent@app@cinder@@V?$function@$$A6AXAAVTouchEvent@app@cinder@@@Z@boost@@@signals2@boost@@Vmutex@45@@detail@signals2@boost@@@boost@@@std@@@std@@@1@ABU?$pair@W4slot_meta_group@detail@signals2@boost@@V?$optional@H@4@@1@@Z 0040c5b0 f i cinder:Window.obj
 0001:0000b680       ??F?$_Tree_unchecked_const_iterator@V?$_Tree_val@U?$_Tree_simple_types@U?$pair@$$CBV?$basic_string@DU?$char_traits@D@std@@V?$allocator@D@2@@std@@V?$multimap@HU?$pair@P6A?AV?$shared_ptr@VImageTarget@cinder@@@std@@V?$shared_ptr@VDataTarget@cinder@@@2@V?$shared_ptr@VImageSource@cinder@@@2@VOptions@ImageTarget@cinder@@ABV?$basic_string@DU?$char_traits@D@std@@V?$allocator@D@2@@2@@ZV82@@std@@U?$less@H@2@V?$allocator@U?$pair@$$CBHU?$pair@P6A?AV?$shared_ptr@VImageTarget@cinder@@@std@@V?$shared_ptr@VDataTarget@cinder@@@2@V?$shared_ptr@VImageSource@cinder@@@2@VOptions@ImageTarget@cinder@@ABV?$basic_string@DU?$char_traits@D@std@@V?$allocator@D@2@@2@@ZV82@@std@@@std@@@2@@2@@std@@@std@@@std@@U_Iterator_base0@2@@std@@QAEAAV01@XZ 0040c680 f i cinder:ImageIo.obj
 0001:0000b680       ??F?$_Tree_unchecked_const_iterator@V?$_Tree_val@U?$_Tree_simple_types@U?$pair@$$CBU?$pair@W4slot_meta_group@detail@signals2@boost@@V?$optional@H@4@@std@@V?$_List_iterator@V?$_List_val@U?$_List_simple_types@V?$shared_ptr@V?$connection_body@U?$pair@W4slot_meta_group@detail@signals2@boost@@V?$optional@H@4@@std@@V?$slot1@XAAVKeyEvent@app@cinder@@V?$function@$$A6AXAAVKeyEvent@app@cinder@@@Z@boost@@@signals2@boost@@Vmutex@45@@detail@signals2@boost@@@boost@@@std@@@std@@@2@@std@@@std@@@std@@U_Iterator_base0@2@@std@@QAEAAV01@XZ 0040c680 f i cinder:Window.obj
 0001:0000b680       ??F?$_Tree_unchecked_const_iterator@V?$_Tree_val@U?$_Tree_simple_types@U?$pair@$$CBV?$basic_string@DU?$char_traits@D@std@@V?$allocator@D@2@@std@@_N@std@@@std@@@std@@U_Iterator_base0@2@@std@@QAEAAV01@XZ 0040c680 f i cinder:gl.obj
 0001:0000b680       ??F?$_Tree_unchecked_const_iterator@V?$_Tree_val@U?$_Tree_simple_types@U?$pair@QBXUtss_data_node@detail@boost@@@std@@@std@@@std@@U_Iterator_base0@2@@std@@QAEAAV01@XZ 0040c680 f i libboost_thread-vc110-mt-s-1_53:thread.obj
 0001:0000b680       ??F?$_Tree_unchecked_const_iterator@V?$_Tree_val@U?$_Tree_simple_types@U?$pair@$$CBU?$pair@W4slot_meta_group@detail@signals2@boost@@V?$optional@H@4@@std@@V?$_List_iterator@V?$_List_val@U?$_List_simple_types@V?$shared_ptr@V?$connection_body@U?$pair@W4slot_meta_group@detail@signals2@boost@@V?$optional@H@4@@std@@V?$slot1@XAAVMouseEvent@app@cinder@@V?$function@$$A6AXAAVMouseEvent@app@cinder@@@Z@boost@@@signals2@boost@@Vmutex@45@@detail@signals2@boost@@@boost@@@std@@@std@@@2@@std@@@std@@@std@@U_Iterator_base0@2@@std@@QAEAAV01@XZ 0040c680 f i cinder:Window.obj
 0001:0000b680       ??F?$_Tree_unchecked_const_iterator@V?$_Tree_val@U?$_Tree_simple_types@U?$pair@$$CBU?$pair@W4slot_meta_group@detail@signals2@boost@@V?$optional@H@4@@std@@V?$_List_iterator@V?$_List_val@U?$_List_simple_types@V?$shared_ptr@V?$connection_body@U?$pair@W4slot_meta_group@detail@signals2@boost@@V?$optional@H@4@@std@@V?$slot1@XAAVTouchEvent@app@cinder@@V?$function@$$A6AXAAVTouchEvent@app@cinder@@@Z@boost@@@signals2@boost@@Vmutex@45@@detail@signals2@boost@@@boost@@@std@@@std@@@2@@std@@@std@@@std@@U_Iterator_base0@2@@std@@QAEAAV01@XZ 0040c680 f i cinder:Window.obj
 0001:0000b680       ??F?$_Tree_unchecked_const_iterator@V?$_Tree_val@U?$_Tree_simple_types@U?$pair@$$CBKV?$Vec2@M@cinder@@@std@@@std@@@std@@U_Iterator_base0@2@@std@@QAEAAV01@XZ 0040c680 f i cinder:AppImplMsw.obj
 0001:0000b680       ??F?$_Tree_unchecked_const_iterator@V?$_Tree_val@U?$_Tree_simple_types@U?$pair@$$CBHP6A?AV?$shared_ptr@VImageSource@cinder@@@std@@V?$shared_ptr@VDataSource@cinder@@@2@VOptions@ImageSource@cinder@@@Z@std@@@std@@@std@@U_Iterator_base0@2@@std@@QAEAAV01@XZ 0040c680 f i cinder:ImageIo.obj
 0001:0000b680       ??F?$_Tree_unchecked_const_iterator@V?$_Tree_val@U?$_Tree_simple_types@U?$pair@$$CBU?$pair@W4slot_meta_group@detail@signals2@boost@@V?$optional@H@4@@std@@V?$_List_iterator@V?$_List_val@U?$_List_simple_types@V?$shared_ptr@V?$connection_body@U?$pair@W4slot_meta_group@detail@signals2@boost@@V?$optional@H@4@@std@@V?$slot0@XV?$function@$$A6AXXZ@boost@@@signals2@boost@@Vmutex@45@@detail@signals2@boost@@@boost@@@std@@@std@@@2@@std@@@std@@@std@@U_Iterator_base0@2@@std@@QAEAAV01@XZ 0040c680 f i cinder:Window.obj
 0001:0000b680       ??F?$_Tree_unchecked_const_iterator@V?$_Tree_val@U?$_Tree_simple_types@U?$pair@$$CBV?$basic_string@DU?$char_traits@D@std@@V?$allocator@D@2@@std@@PBU_GUID@@@std@@@std@@@std@@U_Iterator_base0@2@@std@@QAEAAV01@XZ 0040c680 f i cinder:ImageTargetFileWic.obj
 0001:0000b680       ??F?$_Tree_unchecked_const_iterator@V?$_Tree_val@U?$_Tree_simple_types@U?$pair@$$CBU?$pair@W4slot_meta_group@detail@signals2@boost@@V?$optional@H@4@@std@@V?$_List_iterator@V?$_List_val@U?$_List_simple_types@V?$shared_ptr@V?$connection_body@U?$pair@W4slot_meta_group@detail@signals2@boost@@V?$optional@H@4@@std@@V?$slot1@XAAVFileDropEvent@app@cinder@@V?$function@$$A6AXAAVFileDropEvent@app@cinder@@@Z@boost@@@signals2@boost@@Vmutex@45@@detail@signals2@boost@@@boost@@@std@@@std@@@2@@std@@@std@@@std@@U_Iterator_base0@2@@std@@QAEAAV01@XZ 0040c680 f i cinder:Window.obj
 0001:0000b6e0       ??R?$group_key_less@HU?$less@H@std@@@detail@signals2@boost@@QBE_NABU?$pair@W4slot_meta_group@detail@signals2@boost@@V?$optional@H@4@@std@@0@Z 0040c6e0 f i cinder:Window.obj
 0001:0000b720       ??R?$signal0_impl@XV?$optional_last_value@X@signals2@boost@@HU?$less@H@std@@V?$function@$$A6AXXZ@3@V?$function@$$A6AXABVconnection@signals2@boost@@@Z@3@Vmutex@23@@detail@signals2@boost@@QAEXXZ 0040c720 f i cinder:Window.obj
 0001:0000b990       ??R?$signal1_impl@XAAVFileDropEvent@app@cinder@@U?$EventCombiner@VFileDropEvent@app@cinder@@@23@HU?$less@H@std@@V?$function@$$A6AXAAVFileDropEvent@app@cinder@@@Z@boost@@V?$function@$$A6AXABVconnection@signals2@boost@@AAVFileDropEvent@app@cinder@@@Z@8@Vmutex@signals2@8@@detail@signals2@boost@@QAEXAAVFileDropEvent@app@cinder@@@Z 0040c990 f i cinder:Window.obj
 0001:0000bc10       ??R?$signal1_impl@XAAVKeyEvent@app@cinder@@U?$EventCombiner@VKeyEvent@app@cinder@@@23@HU?$less@H@std@@V?$function@$$A6AXAAVKeyEvent@app@cinder@@@Z@boost@@V?$function@$$A6AXABVconnection@signals2@boost@@AAVKeyEvent@app@cinder@@@Z@8@Vmutex@signals2@8@@detail@signals2@boost@@QAEXAAVKeyEvent@app@cinder@@@Z 0040cc10 f i cinder:Window.obj
 0001:0000be90       ??R?$signal1_impl@XAAVMouseEvent@app@cinder@@U?$EventCombiner@VMouseEvent@app@cinder@@@23@HU?$less@H@std@@V?$function@$$A6AXAAVMouseEvent@app@cinder@@@Z@boost@@V?$function@$$A6AXABVconnection@signals2@boost@@AAVMouseEvent@app@cinder@@@Z@8@Vmutex@signals2@8@@detail@signals2@boost@@QAEXAAVMouseEvent@app@cinder@@@Z 0040ce90 f i cinder:Window.obj
 0001:0000c110       ??R?$signal1_impl@XAAVTouchEvent@app@cinder@@U?$EventCombiner@VTouchEvent@app@cinder@@@23@HU?$less@H@std@@V?$function@$$A6AXAAVTouchEvent@app@cinder@@@Z@boost@@V?$function@$$A6AXABVconnection@signals2@boost@@AAVTouchEvent@app@cinder@@@Z@8@Vmutex@signals2@8@@detail@signals2@boost@@QAEXAAVTouchEvent@app@cinder@@@Z 0040d110 f i cinder:Window.obj
 0001:0000c390       ??Rslot_invoker@?$signal0_impl@XV?$optional_last_value@X@signals2@boost@@HU?$less@H@std@@V?$function@$$A6AXXZ@3@V?$function@$$A6AXABVconnection@signals2@boost@@@Z@3@Vmutex@23@@detail@signals2@boost@@QBE?AUvoid_type@234@ABV?$shared_ptr@V?$connection_body@U?$pair@W4slot_meta_group@detail@signals2@boost@@V?$optional@H@4@@std@@V?$slot0@XV?$function@$$A6AXXZ@boost@@@signals2@boost@@Vmutex@45@@detail@signals2@boost@@@4@@Z 0040d390 f i cinder:Window.obj
 0001:0000c410       ??_D?$clone_impl@U?$error_info_injector@Vbad_function_call@boost@@@exception_detail@boost@@@exception_detail@boost@@QAEXXZ 0040d410 f i cinder:Window.obj
 0001:0000c421       ??_E?$clone_impl@U?$error_info_injector@Vbad_function_call@boost@@@exception_detail@boost@@@exception_detail@boost@@$4PPPPPPPM@CI@AEPAXI@Z 0040d421 f i cinder:Window.obj
 0001:0000c42c       ??_E?$clone_impl@U?$error_info_injector@Vbad_function_call@boost@@@exception_detail@boost@@@exception_detail@boost@@WM@AEPAXI@Z 0040d42c f i cinder:Window.obj
 0001:0000c434       ??_E?$error_info_injector@Vbad_function_call@boost@@@exception_detail@boost@@WM@AEPAXI@Z 0040d434 f i cinder:Window.obj
 0001:0000c440       ??_E?$clone_impl@U?$error_info_injector@Vbad_function_call@boost@@@exception_detail@boost@@@exception_detail@boost@@UAEPAXI@Z 0040d440 f i cinder:Window.obj
 0001:0000c440       ??_G?$clone_impl@U?$error_info_injector@Vbad_function_call@boost@@@exception_detail@boost@@@exception_detail@boost@@UAEPAXI@Z 0040d440 f i cinder:Window.obj
 0001:0000c470       ??_E?$error_info_injector@Vbad_function_call@boost@@@exception_detail@boost@@UAEPAXI@Z 0040d470 f i cinder:Window.obj
 0001:0000c470       ??_G?$error_info_injector@Vbad_function_call@boost@@@exception_detail@boost@@UAEPAXI@Z 0040d470 f i cinder:Window.obj
 0001:0000c4c0       ??_GFileDropEvent@app@cinder@@UAEPAXI@Z 0040d4c0 f i cinder:Window.obj
 0001:0000c4c0       ??_EFileDropEvent@app@cinder@@UAEPAXI@Z 0040d4c0 f i cinder:Window.obj
 0001:0000c4f0       ??_EKeyEvent@app@cinder@@UAEPAXI@Z 0040d4f0 f i cinder:Window.obj
 0001:0000c4f0       ??_GKeyEvent@app@cinder@@UAEPAXI@Z 0040d4f0 f i cinder:Window.obj
 0001:0000c520       ??_ETouchEvent@app@cinder@@UAEPAXI@Z 0040d520 f i cinder:Window.obj
 0001:0000c520       ??_GTouchEvent@app@cinder@@UAEPAXI@Z 0040d520 f i cinder:Window.obj
 0001:0000c550       ??_Gclone_base@exception_detail@boost@@UAEPAXI@Z 0040d550 f i cinder:Window.obj
 0001:0000c550       ??_Eclone_base@exception_detail@boost@@UAEPAXI@Z 0040d550 f i cinder:Window.obj
 0001:0000c580       ?_Buy@?$vector@VTouch@TouchEvent@app@cinder@@V?$allocator@VTouch@TouchEvent@app@cinder@@@std@@@std@@IAE_NI@Z 0040d580 f i cinder:Window.obj
 0001:0000c5f0       ?_Buy@?$vector@Vpath@filesystem@boost@@V?$allocator@Vpath@filesystem@boost@@@std@@@std@@IAE_NI@Z 0040d5f0 f i cinder:Window.obj
 0001:0000c660       ?_Destroy_if_not_nil@?$_Tree@V?$_Tmap_traits@U?$pair@W4slot_meta_group@detail@signals2@boost@@V?$optional@H@4@@std@@V?$_List_iterator@V?$_List_val@U?$_List_simple_types@V?$shared_ptr@V?$connection_body@U?$pair@W4slot_meta_group@detail@signals2@boost@@V?$optional@H@4@@std@@V?$slot1@XAAVMouseEvent@app@cinder@@V?$function@$$A6AXAAVMouseEvent@app@cinder@@@Z@boost@@@signals2@boost@@Vmutex@45@@detail@signals2@boost@@@boost@@@std@@@std@@@2@V?$group_key_less@HU?$less@H@std@@@detail@signals2@boost@@V?$allocator@U?$pair@$$CBU?$pair@W4slot_meta_group@detail@signals2@boost@@V?$optional@H@4@@std@@V?$_List_iterator@V?$_List_val@U?$_List_simple_types@V?$shared_ptr@V?$connection_body@U?$pair@W4slot_meta_group@detail@signals2@boost@@V?$optional@H@4@@std@@V?$slot1@XAAVMouseEvent@app@cinder@@V?$function@$$A6AXAAVMouseEvent@app@cinder@@@Z@boost@@@signals2@boost@@Vmutex@45@@detail@signals2@boost@@@boost@@@std@@@std@@@2@@std@@@2@$0A@@std@@@std@@IAEXPAU?$_Tree_node@U?$pair@$$CBU?$pair@W4slot_meta_group@detail@signals2@boost@@V?$optional@H@4@@std@@V?$_List_iterator@V?$_List_val@U?$_List_simple_types@V?$shared_ptr@V?$connection_body@U?$pair@W4slot_meta_group@detail@signals2@boost@@V?$optional@H@4@@std@@V?$slot1@XAAVMouseEvent@app@cinder@@V?$function@$$A6AXAAVMouseEvent@app@cinder@@@Z@boost@@@signals2@boost@@Vmutex@45@@detail@signals2@boost@@@boost@@@std@@@std@@@2@@std@@PAX@2@@Z 0040d660 f i cinder:Window.obj
 0001:0000c660       ?_Destroy_if_not_nil@?$_Tree@V?$_Tmap_traits@U?$pair@W4slot_meta_group@detail@signals2@boost@@V?$optional@H@4@@std@@V?$_List_iterator@V?$_List_val@U?$_List_simple_types@V?$shared_ptr@V?$connection_body@U?$pair@W4slot_meta_group@detail@signals2@boost@@V?$optional@H@4@@std@@V?$slot1@XAAVFileDropEvent@app@cinder@@V?$function@$$A6AXAAVFileDropEvent@app@cinder@@@Z@boost@@@signals2@boost@@Vmutex@45@@detail@signals2@boost@@@boost@@@std@@@std@@@2@V?$group_key_less@HU?$less@H@std@@@detail@signals2@boost@@V?$allocator@U?$pair@$$CBU?$pair@W4slot_meta_group@detail@signals2@boost@@V?$optional@H@4@@std@@V?$_List_iterator@V?$_List_val@U?$_List_simple_types@V?$shared_ptr@V?$connection_body@U?$pair@W4slot_meta_group@detail@signals2@boost@@V?$optional@H@4@@std@@V?$slot1@XAAVFileDropEvent@app@cinder@@V?$function@$$A6AXAAVFileDropEvent@app@cinder@@@Z@boost@@@signals2@boost@@Vmutex@45@@detail@signals2@boost@@@boost@@@std@@@std@@@2@@std@@@2@$0A@@std@@@std@@IAEXPAU?$_Tree_node@U?$pair@$$CBU?$pair@W4slot_meta_group@detail@signals2@boost@@V?$optional@H@4@@std@@V?$_List_iterator@V?$_List_val@U?$_List_simple_types@V?$shared_ptr@V?$connection_body@U?$pair@W4slot_meta_group@detail@signals2@boost@@V?$optional@H@4@@std@@V?$slot1@XAAVFileDropEvent@app@cinder@@V?$function@$$A6AXAAVFileDropEvent@app@cinder@@@Z@boost@@@signals2@boost@@Vmutex@45@@detail@signals2@boost@@@boost@@@std@@@std@@@2@@std@@PAX@2@@Z 0040d660 f i cinder:Window.obj
 0001:0000c660       ?_Destroy_if_not_nil@?$_Tree@V?$_Tmap_traits@U?$pair@W4slot_meta_group@detail@signals2@boost@@V?$optional@H@4@@std@@V?$_List_iterator@V?$_List_val@U?$_List_simple_types@V?$shared_ptr@V?$connection_body@U?$pair@W4slot_meta_group@detail@signals2@boost@@V?$optional@H@4@@std@@V?$slot0@XV?$function@$$A6AXXZ@boost@@@signals2@boost@@Vmutex@45@@detail@signals2@boost@@@boost@@@std@@@std@@@2@V?$group_key_less@HU?$less@H@std@@@detail@signals2@boost@@V?$allocator@U?$pair@$$CBU?$pair@W4slot_meta_group@detail@signals2@boost@@V?$optional@H@4@@std@@V?$_List_iterator@V?$_List_val@U?$_List_simple_types@V?$shared_ptr@V?$connection_body@U?$pair@W4slot_meta_group@detail@signals2@boost@@V?$optional@H@4@@std@@V?$slot0@XV?$function@$$A6AXXZ@boost@@@signals2@boost@@Vmutex@45@@detail@signals2@boost@@@boost@@@std@@@std@@@2@@std@@@2@$0A@@std@@@std@@IAEXPAU?$_Tree_node@U?$pair@$$CBU?$pair@W4slot_meta_group@detail@signals2@boost@@V?$optional@H@4@@std@@V?$_List_iterator@V?$_List_val@U?$_List_simple_types@V?$shared_ptr@V?$connection_body@U?$pair@W4slot_meta_group@detail@signals2@boost@@V?$optional@H@4@@std@@V?$slot0@XV?$function@$$A6AXXZ@boost@@@signals2@boost@@Vmutex@45@@detail@signals2@boost@@@boost@@@std@@@std@@@2@@std@@PAX@2@@Z 0040d660 f i cinder:Window.obj
 0001:0000c660       ?_Destroy_if_not_nil@?$_Tree@V?$_Tmap_traits@U?$pair@W4slot_meta_group@detail@signals2@boost@@V?$optional@H@4@@std@@V?$_List_iterator@V?$_List_val@U?$_List_simple_types@V?$shared_ptr@V?$connection_body@U?$pair@W4slot_meta_group@detail@signals2@boost@@V?$optional@H@4@@std@@V?$slot1@XAAVTouchEvent@app@cinder@@V?$function@$$A6AXAAVTouchEvent@app@cinder@@@Z@boost@@@signals2@boost@@Vmutex@45@@detail@signals2@boost@@@boost@@@std@@@std@@@2@V?$group_key_less@HU?$less@H@std@@@detail@signals2@boost@@V?$allocator@U?$pair@$$CBU?$pair@W4slot_meta_group@detail@signals2@boost@@V?$optional@H@4@@std@@V?$_List_iterator@V?$_List_val@U?$_List_simple_types@V?$shared_ptr@V?$connection_body@U?$pair@W4slot_meta_group@detail@signals2@boost@@V?$optional@H@4@@std@@V?$slot1@XAAVTouchEvent@app@cinder@@V?$function@$$A6AXAAVTouchEvent@app@cinder@@@Z@boost@@@signals2@boost@@Vmutex@45@@detail@signals2@boost@@@boost@@@std@@@std@@@2@@std@@@2@$0A@@std@@@std@@IAEXPAU?$_Tree_node@U?$pair@$$CBU?$pair@W4slot_meta_group@detail@signals2@boost@@V?$optional@H@4@@std@@V?$_List_iterator@V?$_List_val@U?$_List_simple_types@V?$shared_ptr@V?$connection_body@U?$pair@W4slot_meta_group@detail@signals2@boost@@V?$optional@H@4@@std@@V?$slot1@XAAVTouchEvent@app@cinder@@V?$function@$$A6AXAAVTouchEvent@app@cinder@@@Z@boost@@@signals2@boost@@Vmutex@45@@detail@signals2@boost@@@boost@@@std@@@std@@@2@@std@@PAX@2@@Z 0040d660 f i cinder:Window.obj
 0001:0000c660       ?_Destroy_if_not_nil@?$_Tree@V?$_Tmap_traits@U?$pair@W4slot_meta_group@detail@signals2@boost@@V?$optional@H@4@@std@@V?$_List_iterator@V?$_List_val@U?$_List_simple_types@V?$shared_ptr@V?$connection_body@U?$pair@W4slot_meta_group@detail@signals2@boost@@V?$optional@H@4@@std@@V?$slot1@XAAVKeyEvent@app@cinder@@V?$function@$$A6AXAAVKeyEvent@app@cinder@@@Z@boost@@@signals2@boost@@Vmutex@45@@detail@signals2@boost@@@boost@@@std@@@std@@@2@V?$group_key_less@HU?$less@H@std@@@detail@signals2@boost@@V?$allocator@U?$pair@$$CBU?$pair@W4slot_meta_group@detail@signals2@boost@@V?$optional@H@4@@std@@V?$_List_iterator@V?$_List_val@U?$_List_simple_types@V?$shared_ptr@V?$connection_body@U?$pair@W4slot_meta_group@detail@signals2@boost@@V?$optional@H@4@@std@@V?$slot1@XAAVKeyEvent@app@cinder@@V?$function@$$A6AXAAVKeyEvent@app@cinder@@@Z@boost@@@signals2@boost@@Vmutex@45@@detail@signals2@boost@@@boost@@@std@@@std@@@2@@std@@@2@$0A@@std@@@std@@IAEXPAU?$_Tree_node@U?$pair@$$CBU?$pair@W4slot_meta_group@detail@signals2@boost@@V?$optional@H@4@@std@@V?$_List_iterator@V?$_List_val@U?$_List_simple_types@V?$shared_ptr@V?$connection_body@U?$pair@W4slot_meta_group@detail@signals2@boost@@V?$optional@H@4@@std@@V?$slot1@XAAVKeyEvent@app@cinder@@V?$function@$$A6AXAAVKeyEvent@app@cinder@@@Z@boost@@@signals2@boost@@Vmutex@45@@detail@signals2@boost@@@boost@@@std@@@std@@@2@@std@@PAX@2@@Z 0040d660 f i cinder:Window.obj
 0001:0000c680       ?_Lbound@?$_Tree@V?$_Tmap_traits@U?$pair@W4slot_meta_group@detail@signals2@boost@@V?$optional@H@4@@std@@V?$_List_iterator@V?$_List_val@U?$_List_simple_types@V?$shared_ptr@V?$connection_body@U?$pair@W4slot_meta_group@detail@signals2@boost@@V?$optional@H@4@@std@@V?$slot1@XAAVFileDropEvent@app@cinder@@V?$function@$$A6AXAAVFileDropEvent@app@cinder@@@Z@boost@@@signals2@boost@@Vmutex@45@@detail@signals2@boost@@@boost@@@std@@@std@@@2@V?$group_key_less@HU?$less@H@std@@@detail@signals2@boost@@V?$allocator@U?$pair@$$CBU?$pair@W4slot_meta_group@detail@signals2@boost@@V?$optional@H@4@@std@@V?$_List_iterator@V?$_List_val@U?$_List_simple_types@V?$shared_ptr@V?$connection_body@U?$pair@W4slot_meta_group@detail@signals2@boost@@V?$optional@H@4@@std@@V?$slot1@XAAVFileDropEvent@app@cinder@@V?$function@$$A6AXAAVFileDropEvent@app@cinder@@@Z@boost@@@signals2@boost@@Vmutex@45@@detail@signals2@boost@@@boost@@@std@@@std@@@2@@std@@@2@$0A@@std@@@std@@IAEPAU?$_Tree_node@U?$pair@$$CBU?$pair@W4slot_meta_group@detail@signals2@boost@@V?$optional@H@4@@std@@V?$_List_iterator@V?$_List_val@U?$_List_simple_types@V?$shared_ptr@V?$connection_body@U?$pair@W4slot_meta_group@detail@signals2@boost@@V?$optional@H@4@@std@@V?$slot1@XAAVFileDropEvent@app@cinder@@V?$function@$$A6AXAAVFileDropEvent@app@cinder@@@Z@boost@@@signals2@boost@@Vmutex@45@@detail@signals2@boost@@@boost@@@std@@@std@@@2@@std@@PAX@2@ABU?$pair@W4slot_meta_group@detail@signals2@boost@@V?$optional@H@4@@2@@Z 0040d680 f i cinder:Window.obj
 0001:0000c680       ?_Lbound@?$_Tree@V?$_Tmap_traits@U?$pair@W4slot_meta_group@detail@signals2@boost@@V?$optional@H@4@@std@@V?$_List_iterator@V?$_List_val@U?$_List_simple_types@V?$shared_ptr@V?$connection_body@U?$pair@W4slot_meta_group@detail@signals2@boost@@V?$optional@H@4@@std@@V?$slot1@XAAVMouseEvent@app@cinder@@V?$function@$$A6AXAAVMouseEvent@app@cinder@@@Z@boost@@@signals2@boost@@Vmutex@45@@detail@signals2@boost@@@boost@@@std@@@std@@@2@V?$group_key_less@HU?$less@H@std@@@detail@signals2@boost@@V?$allocator@U?$pair@$$CBU?$pair@W4slot_meta_group@detail@signals2@boost@@V?$optional@H@4@@std@@V?$_List_iterator@V?$_List_val@U?$_List_simple_types@V?$shared_ptr@V?$connection_body@U?$pair@W4slot_meta_group@detail@signals2@boost@@V?$optional@H@4@@std@@V?$slot1@XAAVMouseEvent@app@cinder@@V?$function@$$A6AXAAVMouseEvent@app@cinder@@@Z@boost@@@signals2@boost@@Vmutex@45@@detail@signals2@boost@@@boost@@@std@@@std@@@2@@std@@@2@$0A@@std@@@std@@IAEPAU?$_Tree_node@U?$pair@$$CBU?$pair@W4slot_meta_group@detail@signals2@boost@@V?$optional@H@4@@std@@V?$_List_iterator@V?$_List_val@U?$_List_simple_types@V?$shared_ptr@V?$connection_body@U?$pair@W4slot_meta_group@detail@signals2@boost@@V?$optional@H@4@@std@@V?$slot1@XAAVMouseEvent@app@cinder@@V?$function@$$A6AXAAVMouseEvent@app@cinder@@@Z@boost@@@signals2@boost@@Vmutex@45@@detail@signals2@boost@@@boost@@@std@@@std@@@2@@std@@PAX@2@ABU?$pair@W4slot_meta_group@detail@signals2@boost@@V?$optional@H@4@@2@@Z 0040d680 f i cinder:Window.obj
 0001:0000c680       ?_Lbound@?$_Tree@V?$_Tmap_traits@U?$pair@W4slot_meta_group@detail@signals2@boost@@V?$optional@H@4@@std@@V?$_List_iterator@V?$_List_val@U?$_List_simple_types@V?$shared_ptr@V?$connection_body@U?$pair@W4slot_meta_group@detail@signals2@boost@@V?$optional@H@4@@std@@V?$slot1@XAAVTouchEvent@app@cinder@@V?$function@$$A6AXAAVTouchEvent@app@cinder@@@Z@boost@@@signals2@boost@@Vmutex@45@@detail@signals2@boost@@@boost@@@std@@@std@@@2@V?$group_key_less@HU?$less@H@std@@@detail@signals2@boost@@V?$allocator@U?$pair@$$CBU?$pair@W4slot_meta_group@detail@signals2@boost@@V?$optional@H@4@@std@@V?$_List_iterator@V?$_List_val@U?$_List_simple_types@V?$shared_ptr@V?$connection_body@U?$pair@W4slot_meta_group@detail@signals2@boost@@V?$optional@H@4@@std@@V?$slot1@XAAVTouchEvent@app@cinder@@V?$function@$$A6AXAAVTouchEvent@app@cinder@@@Z@boost@@@signals2@boost@@Vmutex@45@@detail@signals2@boost@@@boost@@@std@@@std@@@2@@std@@@2@$0A@@std@@@std@@IAEPAU?$_Tree_node@U?$pair@$$CBU?$pair@W4slot_meta_group@detail@signals2@boost@@V?$optional@H@4@@std@@V?$_List_iterator@V?$_List_val@U?$_List_simple_types@V?$shared_ptr@V?$connection_body@U?$pair@W4slot_meta_group@detail@signals2@boost@@V?$optional@H@4@@std@@V?$slot1@XAAVTouchEvent@app@cinder@@V?$function@$$A6AXAAVTouchEvent@app@cinder@@@Z@boost@@@signals2@boost@@Vmutex@45@@detail@signals2@boost@@@boost@@@std@@@std@@@2@@std@@PAX@2@ABU?$pair@W4slot_meta_group@detail@signals2@boost@@V?$optional@H@4@@2@@Z 0040d680 f i cinder:Window.obj
 0001:0000c680       ?_Lbound@?$_Tree@V?$_Tmap_traits@U?$pair@W4slot_meta_group@detail@signals2@boost@@V?$optional@H@4@@std@@V?$_List_iterator@V?$_List_val@U?$_List_simple_types@V?$shared_ptr@V?$connection_body@U?$pair@W4slot_meta_group@detail@signals2@boost@@V?$optional@H@4@@std@@V?$slot1@XAAVKeyEvent@app@cinder@@V?$function@$$A6AXAAVKeyEvent@app@cinder@@@Z@boost@@@signals2@boost@@Vmutex@45@@detail@signals2@boost@@@boost@@@std@@@std@@@2@V?$group_key_less@HU?$less@H@std@@@detail@signals2@boost@@V?$allocator@U?$pair@$$CBU?$pair@W4slot_meta_group@detail@signals2@boost@@V?$optional@H@4@@std@@V?$_List_iterator@V?$_List_val@U?$_List_simple_types@V?$shared_ptr@V?$connection_body@U?$pair@W4slot_meta_group@detail@signals2@boost@@V?$optional@H@4@@std@@V?$slot1@XAAVKeyEvent@app@cinder@@V?$function@$$A6AXAAVKeyEvent@app@cinder@@@Z@boost@@@signals2@boost@@Vmutex@45@@detail@signals2@boost@@@boost@@@std@@@std@@@2@@std@@@2@$0A@@std@@@std@@IAEPAU?$_Tree_node@U?$pair@$$CBU?$pair@W4slot_meta_group@detail@signals2@boost@@V?$optional@H@4@@std@@V?$_List_iterator@V?$_List_val@U?$_List_simple_types@V?$shared_ptr@V?$connection_body@U?$pair@W4slot_meta_group@detail@signals2@boost@@V?$optional@H@4@@std@@V?$slot1@XAAVKeyEvent@app@cinder@@V?$function@$$A6AXAAVKeyEvent@app@cinder@@@Z@boost@@@signals2@boost@@Vmutex@45@@detail@signals2@boost@@@boost@@@std@@@std@@@2@@std@@PAX@2@ABU?$pair@W4slot_meta_group@detail@signals2@boost@@V?$optional@H@4@@2@@Z 0040d680 f i cinder:Window.obj
 0001:0000c680       ?_Lbound@?$_Tree@V?$_Tmap_traits@U?$pair@W4slot_meta_group@detail@signals2@boost@@V?$optional@H@4@@std@@V?$_List_iterator@V?$_List_val@U?$_List_simple_types@V?$shared_ptr@V?$connection_body@U?$pair@W4slot_meta_group@detail@signals2@boost@@V?$optional@H@4@@std@@V?$slot0@XV?$function@$$A6AXXZ@boost@@@signals2@boost@@Vmutex@45@@detail@signals2@boost@@@boost@@@std@@@std@@@2@V?$group_key_less@HU?$less@H@std@@@detail@signals2@boost@@V?$allocator@U?$pair@$$CBU?$pair@W4slot_meta_group@detail@signals2@boost@@V?$optional@H@4@@std@@V?$_List_iterator@V?$_List_val@U?$_List_simple_types@V?$shared_ptr@V?$connection_body@U?$pair@W4slot_meta_group@detail@signals2@boost@@V?$optional@H@4@@std@@V?$slot0@XV?$function@$$A6AXXZ@boost@@@signals2@boost@@Vmutex@45@@detail@signals2@boost@@@boost@@@std@@@std@@@2@@std@@@2@$0A@@std@@@std@@IAEPAU?$_Tree_node@U?$pair@$$CBU?$pair@W4slot_meta_group@detail@signals2@boost@@V?$optional@H@4@@std@@V?$_List_iterator@V?$_List_val@U?$_List_simple_types@V?$shared_ptr@V?$connection_body@U?$pair@W4slot_meta_group@detail@signals2@boost@@V?$optional@H@4@@std@@V?$slot0@XV?$function@$$A6AXXZ@boost@@@signals2@boost@@Vmutex@45@@detail@signals2@boost@@@boost@@@std@@@std@@@2@@std@@PAX@2@ABU?$pair@W4slot_meta_group@detail@signals2@boost@@V?$optional@H@4@@2@@Z 0040d680 f i cinder:Window.obj
 0001:0000c6d0       ?_Ubound@?$_Tree@V?$_Tmap_traits@U?$pair@W4slot_meta_group@detail@signals2@boost@@V?$optional@H@4@@std@@V?$_List_iterator@V?$_List_val@U?$_List_simple_types@V?$shared_ptr@V?$connection_body@U?$pair@W4slot_meta_group@detail@signals2@boost@@V?$optional@H@4@@std@@V?$slot0@XV?$function@$$A6AXXZ@boost@@@signals2@boost@@Vmutex@45@@detail@signals2@boost@@@boost@@@std@@@std@@@2@V?$group_key_less@HU?$less@H@std@@@detail@signals2@boost@@V?$allocator@U?$pair@$$CBU?$pair@W4slot_meta_group@detail@signals2@boost@@V?$optional@H@4@@std@@V?$_List_iterator@V?$_List_val@U?$_List_simple_types@V?$shared_ptr@V?$connection_body@U?$pair@W4slot_meta_group@detail@signals2@boost@@V?$optional@H@4@@std@@V?$slot0@XV?$function@$$A6AXXZ@boost@@@signals2@boost@@Vmutex@45@@detail@signals2@boost@@@boost@@@std@@@std@@@2@@std@@@2@$0A@@std@@@std@@IAEPAU?$_Tree_node@U?$pair@$$CBU?$pair@W4slot_meta_group@detail@signals2@boost@@V?$optional@H@4@@std@@V?$_List_iterator@V?$_List_val@U?$_List_simple_types@V?$shared_ptr@V?$connection_body@U?$pair@W4slot_meta_group@detail@signals2@boost@@V?$optional@H@4@@std@@V?$slot0@XV?$function@$$A6AXXZ@boost@@@signals2@boost@@Vmutex@45@@detail@signals2@boost@@@boost@@@std@@@std@@@2@@std@@PAX@2@ABU?$pair@W4slot_meta_group@detail@signals2@boost@@V?$optional@H@4@@2@@Z 0040d6d0 f i cinder:Window.obj
 0001:0000c6d0       ?_Ubound@?$_Tree@V?$_Tmap_traits@U?$pair@W4slot_meta_group@detail@signals2@boost@@V?$optional@H@4@@std@@V?$_List_iterator@V?$_List_val@U?$_List_simple_types@V?$shared_ptr@V?$connection_body@U?$pair@W4slot_meta_group@detail@signals2@boost@@V?$optional@H@4@@std@@V?$slot1@XAAVKeyEvent@app@cinder@@V?$function@$$A6AXAAVKeyEvent@app@cinder@@@Z@boost@@@signals2@boost@@Vmutex@45@@detail@signals2@boost@@@boost@@@std@@@std@@@2@V?$group_key_less@HU?$less@H@std@@@detail@signals2@boost@@V?$allocator@U?$pair@$$CBU?$pair@W4slot_meta_group@detail@signals2@boost@@V?$optional@H@4@@std@@V?$_List_iterator@V?$_List_val@U?$_List_simple_types@V?$shared_ptr@V?$connection_body@U?$pair@W4slot_meta_group@detail@signals2@boost@@V?$optional@H@4@@std@@V?$slot1@XAAVKeyEvent@app@cinder@@V?$function@$$A6AXAAVKeyEvent@app@cinder@@@Z@boost@@@signals2@boost@@Vmutex@45@@detail@signals2@boost@@@boost@@@std@@@std@@@2@@std@@@2@$0A@@std@@@std@@IAEPAU?$_Tree_node@U?$pair@$$CBU?$pair@W4slot_meta_group@detail@signals2@boost@@V?$optional@H@4@@std@@V?$_List_iterator@V?$_List_val@U?$_List_simple_types@V?$shared_ptr@V?$connection_body@U?$pair@W4slot_meta_group@detail@signals2@boost@@V?$optional@H@4@@std@@V?$slot1@XAAVKeyEvent@app@cinder@@V?$function@$$A6AXAAVKeyEvent@app@cinder@@@Z@boost@@@signals2@boost@@Vmutex@45@@detail@signals2@boost@@@boost@@@std@@@std@@@2@@std@@PAX@2@ABU?$pair@W4slot_meta_group@detail@signals2@boost@@V?$optional@H@4@@2@@Z 0040d6d0 f i cinder:Window.obj
 0001:0000c6d0       ?_Ubound@?$_Tree@V?$_Tmap_traits@U?$pair@W4slot_meta_group@detail@signals2@boost@@V?$optional@H@4@@std@@V?$_List_iterator@V?$_List_val@U?$_List_simple_types@V?$shared_ptr@V?$connection_body@U?$pair@W4slot_meta_group@detail@signals2@boost@@V?$optional@H@4@@std@@V?$slot1@XAAVMouseEvent@app@cinder@@V?$function@$$A6AXAAVMouseEvent@app@cinder@@@Z@boost@@@signals2@boost@@Vmutex@45@@detail@signals2@boost@@@boost@@@std@@@std@@@2@V?$group_key_less@HU?$less@H@std@@@detail@signals2@boost@@V?$allocator@U?$pair@$$CBU?$pair@W4slot_meta_group@detail@signals2@boost@@V?$optional@H@4@@std@@V?$_List_iterator@V?$_List_val@U?$_List_simple_types@V?$shared_ptr@V?$connection_body@U?$pair@W4slot_meta_group@detail@signals2@boost@@V?$optional@H@4@@std@@V?$slot1@XAAVMouseEvent@app@cinder@@V?$function@$$A6AXAAVMouseEvent@app@cinder@@@Z@boost@@@signals2@boost@@Vmutex@45@@detail@signals2@boost@@@boost@@@std@@@std@@@2@@std@@@2@$0A@@std@@@std@@IAEPAU?$_Tree_node@U?$pair@$$CBU?$pair@W4slot_meta_group@detail@signals2@boost@@V?$optional@H@4@@std@@V?$_List_iterator@V?$_List_val@U?$_List_simple_types@V?$shared_ptr@V?$connection_body@U?$pair@W4slot_meta_group@detail@signals2@boost@@V?$optional@H@4@@std@@V?$slot1@XAAVMouseEvent@app@cinder@@V?$function@$$A6AXAAVMouseEvent@app@cinder@@@Z@boost@@@signals2@boost@@Vmutex@45@@detail@signals2@boost@@@boost@@@std@@@std@@@2@@std@@PAX@2@ABU?$pair@W4slot_meta_group@detail@signals2@boost@@V?$optional@H@4@@2@@Z 0040d6d0 f i cinder:Window.obj
 0001:0000c6d0       ?_Ubound@?$_Tree@V?$_Tmap_traits@U?$pair@W4slot_meta_group@detail@signals2@boost@@V?$optional@H@4@@std@@V?$_List_iterator@V?$_List_val@U?$_List_simple_types@V?$shared_ptr@V?$connection_body@U?$pair@W4slot_meta_group@detail@signals2@boost@@V?$optional@H@4@@std@@V?$slot1@XAAVTouchEvent@app@cinder@@V?$function@$$A6AXAAVTouchEvent@app@cinder@@@Z@boost@@@signals2@boost@@Vmutex@45@@detail@signals2@boost@@@boost@@@std@@@std@@@2@V?$group_key_less@HU?$less@H@std@@@detail@signals2@boost@@V?$allocator@U?$pair@$$CBU?$pair@W4slot_meta_group@detail@signals2@boost@@V?$optional@H@4@@std@@V?$_List_iterator@V?$_List_val@U?$_List_simple_types@V?$shared_ptr@V?$connection_body@U?$pair@W4slot_meta_group@detail@signals2@boost@@V?$optional@H@4@@std@@V?$slot1@XAAVTouchEvent@app@cinder@@V?$function@$$A6AXAAVTouchEvent@app@cinder@@@Z@boost@@@signals2@boost@@Vmutex@45@@detail@signals2@boost@@@boost@@@std@@@std@@@2@@std@@@2@$0A@@std@@@std@@IAEPAU?$_Tree_node@U?$pair@$$CBU?$pair@W4slot_meta_group@detail@signals2@boost@@V?$optional@H@4@@std@@V?$_List_iterator@V?$_List_val@U?$_List_simple_types@V?$shared_ptr@V?$connection_body@U?$pair@W4slot_meta_group@detail@signals2@boost@@V?$optional@H@4@@std@@V?$slot1@XAAVTouchEvent@app@cinder@@V?$function@$$A6AXAAVTouchEvent@app@cinder@@@Z@boost@@@signals2@boost@@Vmutex@45@@detail@signals2@boost@@@boost@@@std@@@std@@@2@@std@@PAX@2@ABU?$pair@W4slot_meta_group@detail@signals2@boost@@V?$optional@H@4@@2@@Z 0040d6d0 f i cinder:Window.obj
 0001:0000c6d0       ?_Ubound@?$_Tree@V?$_Tmap_traits@U?$pair@W4slot_meta_group@detail@signals2@boost@@V?$optional@H@4@@std@@V?$_List_iterator@V?$_List_val@U?$_List_simple_types@V?$shared_ptr@V?$connection_body@U?$pair@W4slot_meta_group@detail@signals2@boost@@V?$optional@H@4@@std@@V?$slot1@XAAVFileDropEvent@app@cinder@@V?$function@$$A6AXAAVFileDropEvent@app@cinder@@@Z@boost@@@signals2@boost@@Vmutex@45@@detail@signals2@boost@@@boost@@@std@@@std@@@2@V?$group_key_less@HU?$less@H@std@@@detail@signals2@boost@@V?$allocator@U?$pair@$$CBU?$pair@W4slot_meta_group@detail@signals2@boost@@V?$optional@H@4@@std@@V?$_List_iterator@V?$_List_val@U?$_List_simple_types@V?$shared_ptr@V?$connection_body@U?$pair@W4slot_meta_group@detail@signals2@boost@@V?$optional@H@4@@std@@V?$slot1@XAAVFileDropEvent@app@cinder@@V?$function@$$A6AXAAVFileDropEvent@app@cinder@@@Z@boost@@@signals2@boost@@Vmutex@45@@detail@signals2@boost@@@boost@@@std@@@std@@@2@@std@@@2@$0A@@std@@@std@@IAEPAU?$_Tree_node@U?$pair@$$CBU?$pair@W4slot_meta_group@detail@signals2@boost@@V?$optional@H@4@@std@@V?$_List_iterator@V?$_List_val@U?$_List_simple_types@V?$shared_ptr@V?$connection_body@U?$pair@W4slot_meta_group@detail@signals2@boost@@V?$optional@H@4@@std@@V?$slot1@XAAVFileDropEvent@app@cinder@@V?$function@$$A6AXAAVFileDropEvent@app@cinder@@@Z@boost@@@signals2@boost@@Vmutex@45@@detail@signals2@boost@@@boost@@@std@@@std@@@2@@std@@PAX@2@ABU?$pair@W4slot_meta_group@detail@signals2@boost@@V?$optional@H@4@@2@@Z 0040d6d0 f i cinder:Window.obj
 0001:0000c720       ?_Unchecked_erase@?$list@V?$shared_ptr@V?$connection_body@U?$pair@W4slot_meta_group@detail@signals2@boost@@V?$optional@H@4@@std@@V?$slot0@_NV?$function@$$A6A_NXZ@boost@@@signals2@boost@@Vmutex@45@@detail@signals2@boost@@@boost@@V?$allocator@V?$shared_ptr@V?$connection_body@U?$pair@W4slot_meta_group@detail@signals2@boost@@V?$optional@H@4@@std@@V?$slot0@_NV?$function@$$A6A_NXZ@boost@@@signals2@boost@@Vmutex@45@@detail@signals2@boost@@@boost@@@std@@@std@@QAEXV?$_List_unchecked_const_iterator@V?$_List_val@U?$_List_simple_types@V?$shared_ptr@V?$connection_body@U?$pair@W4slot_meta_group@detail@signals2@boost@@V?$optional@H@4@@std@@V?$slot0@_NV?$function@$$A6A_NXZ@boost@@@signals2@boost@@Vmutex@45@@detail@signals2@boost@@@boost@@@std@@@std@@U_Iterator_base0@2@@2@@Z 0040d720 f i cinder:AppBasic.obj
 0001:0000c720       ?_Unchecked_erase@?$list@V?$shared_ptr@V?$connection_body@U?$pair@W4slot_meta_group@detail@signals2@boost@@V?$optional@H@4@@std@@V?$slot1@XAAVTouchEvent@app@cinder@@V?$function@$$A6AXAAVTouchEvent@app@cinder@@@Z@boost@@@signals2@boost@@Vmutex@45@@detail@signals2@boost@@@boost@@V?$allocator@V?$shared_ptr@V?$connection_body@U?$pair@W4slot_meta_group@detail@signals2@boost@@V?$optional@H@4@@std@@V?$slot1@XAAVTouchEvent@app@cinder@@V?$function@$$A6AXAAVTouchEvent@app@cinder@@@Z@boost@@@signals2@boost@@Vmutex@45@@detail@signals2@boost@@@boost@@@std@@@std@@QAEXV?$_List_unchecked_const_iterator@V?$_List_val@U?$_List_simple_types@V?$shared_ptr@V?$connection_body@U?$pair@W4slot_meta_group@detail@signals2@boost@@V?$optional@H@4@@std@@V?$slot1@XAAVTouchEvent@app@cinder@@V?$function@$$A6AXAAVTouchEvent@app@cinder@@@Z@boost@@@signals2@boost@@Vmutex@45@@detail@signals2@boost@@@boost@@@std@@@std@@U_Iterator_base0@2@@2@@Z 0040d720 f i cinder:Window.obj
 0001:0000c720       ?_Unchecked_erase@?$list@V?$shared_ptr@V?$connection_body@U?$pair@W4slot_meta_group@detail@signals2@boost@@V?$optional@H@4@@std@@V?$slot1@XAAVMouseEvent@app@cinder@@V?$function@$$A6AXAAVMouseEvent@app@cinder@@@Z@boost@@@signals2@boost@@Vmutex@45@@detail@signals2@boost@@@boost@@V?$allocator@V?$shared_ptr@V?$connection_body@U?$pair@W4slot_meta_group@detail@signals2@boost@@V?$optional@H@4@@std@@V?$slot1@XAAVMouseEvent@app@cinder@@V?$function@$$A6AXAAVMouseEvent@app@cinder@@@Z@boost@@@signals2@boost@@Vmutex@45@@detail@signals2@boost@@@boost@@@std@@@std@@QAEXV?$_List_unchecked_const_iterator@V?$_List_val@U?$_List_simple_types@V?$shared_ptr@V?$connection_body@U?$pair@W4slot_meta_group@detail@signals2@boost@@V?$optional@H@4@@std@@V?$slot1@XAAVMouseEvent@app@cinder@@V?$function@$$A6AXAAVMouseEvent@app@cinder@@@Z@boost@@@signals2@boost@@Vmutex@45@@detail@signals2@boost@@@boost@@@std@@@std@@U_Iterator_base0@2@@2@@Z 0040d720 f i cinder:Window.obj
 0001:0000c720       ?_Unchecked_erase@?$list@V?$shared_ptr@V?$connection_body@U?$pair@W4slot_meta_group@detail@signals2@boost@@V?$optional@H@4@@std@@V?$slot1@XAAVKeyEvent@app@cinder@@V?$function@$$A6AXAAVKeyEvent@app@cinder@@@Z@boost@@@signals2@boost@@Vmutex@45@@detail@signals2@boost@@@boost@@V?$allocator@V?$shared_ptr@V?$connection_body@U?$pair@W4slot_meta_group@detail@signals2@boost@@V?$optional@H@4@@std@@V?$slot1@XAAVKeyEvent@app@cinder@@V?$function@$$A6AXAAVKeyEvent@app@cinder@@@Z@boost@@@signals2@boost@@Vmutex@45@@detail@signals2@boost@@@boost@@@std@@@std@@QAEXV?$_List_unchecked_const_iterator@V?$_List_val@U?$_List_simple_types@V?$shared_ptr@V?$connection_body@U?$pair@W4slot_meta_group@detail@signals2@boost@@V?$optional@H@4@@std@@V?$slot1@XAAVKeyEvent@app@cinder@@V?$function@$$A6AXAAVKeyEvent@app@cinder@@@Z@boost@@@signals2@boost@@Vmutex@45@@detail@signals2@boost@@@boost@@@std@@@std@@U_Iterator_base0@2@@2@@Z 0040d720 f i cinder:Window.obj
 0001:0000c720       ?_Unchecked_erase@?$list@V?$shared_ptr@V?$connection_body@U?$pair@W4slot_meta_group@detail@signals2@boost@@V?$optional@H@4@@std@@V?$slot0@XV?$function@$$A6AXXZ@boost@@@signals2@boost@@Vmutex@45@@detail@signals2@boost@@@boost@@V?$allocator@V?$shared_ptr@V?$connection_body@U?$pair@W4slot_meta_group@detail@signals2@boost@@V?$optional@H@4@@std@@V?$slot0@XV?$function@$$A6AXXZ@boost@@@signals2@boost@@Vmutex@45@@detail@signals2@boost@@@boost@@@std@@@std@@QAEXV?$_List_unchecked_const_iterator@V?$_List_val@U?$_List_simple_types@V?$shared_ptr@V?$connection_body@U?$pair@W4slot_meta_group@detail@signals2@boost@@V?$optional@H@4@@std@@V?$slot0@XV?$function@$$A6AXXZ@boost@@@signals2@boost@@Vmutex@45@@detail@signals2@boost@@@boost@@@std@@@std@@U_Iterator_base0@2@@2@@Z 0040d720 f i cinder:Window.obj
 0001:0000c720       ?_Unchecked_erase@?$list@V?$shared_ptr@V?$connection_body@U?$pair@W4slot_meta_group@detail@signals2@boost@@V?$optional@H@4@@std@@V?$slot1@XAAVFileDropEvent@app@cinder@@V?$function@$$A6AXAAVFileDropEvent@app@cinder@@@Z@boost@@@signals2@boost@@Vmutex@45@@detail@signals2@boost@@@boost@@V?$allocator@V?$shared_ptr@V?$connection_body@U?$pair@W4slot_meta_group@detail@signals2@boost@@V?$optional@H@4@@std@@V?$slot1@XAAVFileDropEvent@app@cinder@@V?$function@$$A6AXAAVFileDropEvent@app@cinder@@@Z@boost@@@signals2@boost@@Vmutex@45@@detail@signals2@boost@@@boost@@@std@@@std@@QAEXV?$_List_unchecked_const_iterator@V?$_List_val@U?$_List_simple_types@V?$shared_ptr@V?$connection_body@U?$pair@W4slot_meta_group@detail@signals2@boost@@V?$optional@H@4@@std@@V?$slot1@XAAVFileDropEvent@app@cinder@@V?$function@$$A6AXAAVFileDropEvent@app@cinder@@@Z@boost@@@signals2@boost@@Vmutex@45@@detail@signals2@boost@@@boost@@@std@@@std@@U_Iterator_base0@2@@2@@Z 0040d720 f i cinder:Window.obj
 0001:0000c780       ?clear@?$_Tree@V?$_Tmap_traits@U?$pair@W4slot_meta_group@detail@signals2@boost@@V?$optional@H@4@@std@@V?$_List_iterator@V?$_List_val@U?$_List_simple_types@V?$shared_ptr@V?$connection_body@U?$pair@W4slot_meta_group@detail@signals2@boost@@V?$optional@H@4@@std@@V?$slot1@XAAVTouchEvent@app@cinder@@V?$function@$$A6AXAAVTouchEvent@app@cinder@@@Z@boost@@@signals2@boost@@Vmutex@45@@detail@signals2@boost@@@boost@@@std@@@std@@@2@V?$group_key_less@HU?$less@H@std@@@detail@signals2@boost@@V?$allocator@U?$pair@$$CBU?$pair@W4slot_meta_group@detail@signals2@boost@@V?$optional@H@4@@std@@V?$_List_iterator@V?$_List_val@U?$_List_simple_types@V?$shared_ptr@V?$connection_body@U?$pair@W4slot_meta_group@detail@signals2@boost@@V?$optional@H@4@@std@@V?$slot1@XAAVTouchEvent@app@cinder@@V?$function@$$A6AXAAVTouchEvent@app@cinder@@@Z@boost@@@signals2@boost@@Vmutex@45@@detail@signals2@boost@@@boost@@@std@@@std@@@2@@std@@@2@$0A@@std@@@std@@QAEXXZ 0040d780 f i cinder:Window.obj
 0001:0000c780       ?clear@?$_Tree@V?$_Tmap_traits@U?$pair@W4slot_meta_group@detail@signals2@boost@@V?$optional@H@4@@std@@V?$_List_iterator@V?$_List_val@U?$_List_simple_types@V?$shared_ptr@V?$connection_body@U?$pair@W4slot_meta_group@detail@signals2@boost@@V?$optional@H@4@@std@@V?$slot1@XAAVKeyEvent@app@cinder@@V?$function@$$A6AXAAVKeyEvent@app@cinder@@@Z@boost@@@signals2@boost@@Vmutex@45@@detail@signals2@boost@@@boost@@@std@@@std@@@2@V?$group_key_less@HU?$less@H@std@@@detail@signals2@boost@@V?$allocator@U?$pair@$$CBU?$pair@W4slot_meta_group@detail@signals2@boost@@V?$optional@H@4@@std@@V?$_List_iterator@V?$_List_val@U?$_List_simple_types@V?$shared_ptr@V?$connection_body@U?$pair@W4slot_meta_group@detail@signals2@boost@@V?$optional@H@4@@std@@V?$slot1@XAAVKeyEvent@app@cinder@@V?$function@$$A6AXAAVKeyEvent@app@cinder@@@Z@boost@@@signals2@boost@@Vmutex@45@@detail@signals2@boost@@@boost@@@std@@@std@@@2@@std@@@2@$0A@@std@@@std@@QAEXXZ 0040d780 f i cinder:Window.obj
 0001:0000c780       ?clear@?$_Tree@V?$_Tmap_traits@U?$pair@W4slot_meta_group@detail@signals2@boost@@V?$optional@H@4@@std@@V?$_List_iterator@V?$_List_val@U?$_List_simple_types@V?$shared_ptr@V?$connection_body@U?$pair@W4slot_meta_group@detail@signals2@boost@@V?$optional@H@4@@std@@V?$slot0@XV?$function@$$A6AXXZ@boost@@@signals2@boost@@Vmutex@45@@detail@signals2@boost@@@boost@@@std@@@std@@@2@V?$group_key_less@HU?$less@H@std@@@detail@signals2@boost@@V?$allocator@U?$pair@$$CBU?$pair@W4slot_meta_group@detail@signals2@boost@@V?$optional@H@4@@std@@V?$_List_iterator@V?$_List_val@U?$_List_simple_types@V?$shared_ptr@V?$connection_body@U?$pair@W4slot_meta_group@detail@signals2@boost@@V?$optional@H@4@@std@@V?$slot0@XV?$function@$$A6AXXZ@boost@@@signals2@boost@@Vmutex@45@@detail@signals2@boost@@@boost@@@std@@@std@@@2@@std@@@2@$0A@@std@@@std@@QAEXXZ 0040d780 f i cinder:Window.obj
 0001:0000c780       ?clear@?$_Tree@V?$_Tmap_traits@U?$pair@W4slot_meta_group@detail@signals2@boost@@V?$optional@H@4@@std@@V?$_List_iterator@V?$_List_val@U?$_List_simple_types@V?$shared_ptr@V?$connection_body@U?$pair@W4slot_meta_group@detail@signals2@boost@@V?$optional@H@4@@std@@V?$slot0@_NV?$function@$$A6A_NXZ@boost@@@signals2@boost@@Vmutex@45@@detail@signals2@boost@@@boost@@@std@@@std@@@2@V?$group_key_less@HU?$less@H@std@@@detail@signals2@boost@@V?$allocator@U?$pair@$$CBU?$pair@W4slot_meta_group@detail@signals2@boost@@V?$optional@H@4@@std@@V?$_List_iterator@V?$_List_val@U?$_List_simple_types@V?$shared_ptr@V?$connection_body@U?$pair@W4slot_meta_group@detail@signals2@boost@@V?$optional@H@4@@std@@V?$slot0@_NV?$function@$$A6A_NXZ@boost@@@signals2@boost@@Vmutex@45@@detail@signals2@boost@@@boost@@@std@@@std@@@2@@std@@@2@$0A@@std@@@std@@QAEXXZ 0040d780 f i cinder:AppBasic.obj
 0001:0000c780       ?clear@?$_Tree@V?$_Tmap_traits@U?$pair@W4slot_meta_group@detail@signals2@boost@@V?$optional@H@4@@std@@V?$_List_iterator@V?$_List_val@U?$_List_simple_types@V?$shared_ptr@V?$connection_body@U?$pair@W4slot_meta_group@detail@signals2@boost@@V?$optional@H@4@@std@@V?$slot1@XAAVMouseEvent@app@cinder@@V?$function@$$A6AXAAVMouseEvent@app@cinder@@@Z@boost@@@signals2@boost@@Vmutex@45@@detail@signals2@boost@@@boost@@@std@@@std@@@2@V?$group_key_less@HU?$less@H@std@@@detail@signals2@boost@@V?$allocator@U?$pair@$$CBU?$pair@W4slot_meta_group@detail@signals2@boost@@V?$optional@H@4@@std@@V?$_List_iterator@V?$_List_val@U?$_List_simple_types@V?$shared_ptr@V?$connection_body@U?$pair@W4slot_meta_group@detail@signals2@boost@@V?$optional@H@4@@std@@V?$slot1@XAAVMouseEvent@app@cinder@@V?$function@$$A6AXAAVMouseEvent@app@cinder@@@Z@boost@@@signals2@boost@@Vmutex@45@@detail@signals2@boost@@@boost@@@std@@@std@@@2@@std@@@2@$0A@@std@@@std@@QAEXXZ 0040d780 f i cinder:Window.obj
 0001:0000c780       ?clear@?$_Tree@V?$_Tmap_traits@U?$pair@W4slot_meta_group@detail@signals2@boost@@V?$optional@H@4@@std@@V?$_List_iterator@V?$_List_val@U?$_List_simple_types@V?$shared_ptr@V?$connection_body@U?$pair@W4slot_meta_group@detail@signals2@boost@@V?$optional@H@4@@std@@V?$slot1@XAAVFileDropEvent@app@cinder@@V?$function@$$A6AXAAVFileDropEvent@app@cinder@@@Z@boost@@@signals2@boost@@Vmutex@45@@detail@signals2@boost@@@boost@@@std@@@std@@@2@V?$group_key_less@HU?$less@H@std@@@detail@signals2@boost@@V?$allocator@U?$pair@$$CBU?$pair@W4slot_meta_group@detail@signals2@boost@@V?$optional@H@4@@std@@V?$_List_iterator@V?$_List_val@U?$_List_simple_types@V?$shared_ptr@V?$connection_body@U?$pair@W4slot_meta_group@detail@signals2@boost@@V?$optional@H@4@@std@@V?$slot1@XAAVFileDropEvent@app@cinder@@V?$function@$$A6AXAAVFileDropEvent@app@cinder@@@Z@boost@@@signals2@boost@@Vmutex@45@@detail@signals2@boost@@@boost@@@std@@@std@@@2@@std@@@2@$0A@@std@@@std@@QAEXXZ 0040d780 f i cinder:Window.obj
 0001:0000c7d2       ?clone@?$clone_impl@U?$error_info_injector@Vbad_function_call@boost@@@exception_detail@boost@@@exception_detail@boost@@$0PPPPPPPM@A@BEPBVclone_base@23@XZ 0040d7d2 f i cinder:Window.obj
 0001:0000c7e0       ?clone@?$clone_impl@U?$error_info_injector@Vbad_function_call@boost@@@exception_detail@boost@@@exception_detail@boost@@EBEPBVclone_base@23@XZ 0040d7e0 f i cinder:Window.obj
 0001:0000c870       ?copy_boost_exception@exception_detail@boost@@YAXPAVexception@2@PBV32@@Z 0040d870 f i cinder:Window.obj
 0001:0000c950       ?deallocate@?$auto_buffer@V?$variant@V?$shared_ptr@X@boost@@Vforeign_void_shared_ptr@detail@signals2@2@Uvoid_@042@U6042@U6042@U6042@U6042@U6042@U6042@U6042@U6042@U6042@U6042@U6042@U6042@U6042@U6042@U6042@U6042@U6042@@boost@@U?$store_n_objects@$09@detail@signals2@2@Udefault_grow_policy@452@V?$allocator@V?$variant@V?$shared_ptr@X@boost@@Vforeign_void_shared_ptr@detail@signals2@2@Uvoid_@042@U6042@U6042@U6042@U6042@U6042@U6042@U6042@U6042@U6042@U6042@U6042@U6042@U6042@U6042@U6042@U6042@U6042@@boost@@@std@@@detail@signals2@boost@@AAEXPAV?$variant@V?$shared_ptr@X@boost@@Vforeign_void_shared_ptr@detail@signals2@2@Uvoid_@042@U6042@U6042@U6042@U6042@U6042@U6042@U6042@U6042@U6042@U6042@U6042@U6042@U6042@U6042@U6042@U6042@U6042@@4@I@Z 0040d950 f i cinder:Window.obj
 0001:0000c970       ?dereference@?$slot_call_iterator_t@Vslot_invoker@?$signal0_impl@XV?$optional_last_value@X@signals2@boost@@HU?$less@H@std@@V?$function@$$A6AXXZ@3@V?$function@$$A6AXABVconnection@signals2@boost@@@Z@3@Vmutex@23@@detail@signals2@boost@@V?$_List_iterator@V?$_List_val@U?$_List_simple_types@V?$shared_ptr@V?$connection_body@U?$pair@W4slot_meta_group@detail@signals2@boost@@V?$optional@H@4@@std@@V?$slot0@XV?$function@$$A6AXXZ@boost@@@signals2@boost@@Vmutex@45@@detail@signals2@boost@@@boost@@@std@@@std@@@std@@V?$connection_body@U?$pair@W4slot_meta_group@detail@signals2@boost@@V?$optional@H@4@@std@@V?$slot0@XV?$function@$$A6AXXZ@boost@@@signals2@boost@@Vmutex@45@@345@@detail@signals2@boost@@QBEABUvoid_type@234@XZ 0040d970 f i cinder:Window.obj
 0001:0000ca00       ?dereference@?$slot_call_iterator_t@Vslot_invoker@?$signal1_impl@XAAVMouseEvent@app@cinder@@U?$EventCombiner@VMouseEvent@app@cinder@@@23@HU?$less@H@std@@V?$function@$$A6AXAAVMouseEvent@app@cinder@@@Z@boost@@V?$function@$$A6AXABVconnection@signals2@boost@@AAVMouseEvent@app@cinder@@@Z@8@Vmutex@signals2@8@@detail@signals2@boost@@V?$_List_iterator@V?$_List_val@U?$_List_simple_types@V?$shared_ptr@V?$connection_body@U?$pair@W4slot_meta_group@detail@signals2@boost@@V?$optional@H@4@@std@@V?$slot1@XAAVMouseEvent@app@cinder@@V?$function@$$A6AXAAVMouseEvent@app@cinder@@@Z@boost@@@signals2@boost@@Vmutex@45@@detail@signals2@boost@@@boost@@@std@@@std@@@std@@V?$connection_body@U?$pair@W4slot_meta_group@detail@signals2@boost@@V?$optional@H@4@@std@@V?$slot1@XAAVMouseEvent@app@cinder@@V?$function@$$A6AXAAVMouseEvent@app@cinder@@@Z@boost@@@signals2@boost@@Vmutex@45@@345@@detail@signals2@boost@@QBEABUvoid_type@234@XZ 0040da00 f i cinder:Window.obj
 0001:0000ca00       ?dereference@?$slot_call_iterator_t@Vslot_invoker@?$signal1_impl@XAAVFileDropEvent@app@cinder@@U?$EventCombiner@VFileDropEvent@app@cinder@@@23@HU?$less@H@std@@V?$function@$$A6AXAAVFileDropEvent@app@cinder@@@Z@boost@@V?$function@$$A6AXABVconnection@signals2@boost@@AAVFileDropEvent@app@cinder@@@Z@8@Vmutex@signals2@8@@detail@signals2@boost@@V?$_List_iterator@V?$_List_val@U?$_List_simple_types@V?$shared_ptr@V?$connection_body@U?$pair@W4slot_meta_group@detail@signals2@boost@@V?$optional@H@4@@std@@V?$slot1@XAAVFileDropEvent@app@cinder@@V?$function@$$A6AXAAVFileDropEvent@app@cinder@@@Z@boost@@@signals2@boost@@Vmutex@45@@detail@signals2@boost@@@boost@@@std@@@std@@@std@@V?$connection_body@U?$pair@W4slot_meta_group@detail@signals2@boost@@V?$optional@H@4@@std@@V?$slot1@XAAVFileDropEvent@app@cinder@@V?$function@$$A6AXAAVFileDropEvent@app@cinder@@@Z@boost@@@signals2@boost@@Vmutex@45@@345@@detail@signals2@boost@@QBEABUvoid_type@234@XZ 0040da00 f i cinder:Window.obj
 0001:0000ca00       ?dereference@?$slot_call_iterator_t@Vslot_invoker@?$signal1_impl@XAAVKeyEvent@app@cinder@@U?$EventCombiner@VKeyEvent@app@cinder@@@23@HU?$less@H@std@@V?$function@$$A6AXAAVKeyEvent@app@cinder@@@Z@boost@@V?$function@$$A6AXABVconnection@signals2@boost@@AAVKeyEvent@app@cinder@@@Z@8@Vmutex@signals2@8@@detail@signals2@boost@@V?$_List_iterator@V?$_List_val@U?$_List_simple_types@V?$shared_ptr@V?$connection_body@U?$pair@W4slot_meta_group@detail@signals2@boost@@V?$optional@H@4@@std@@V?$slot1@XAAVKeyEvent@app@cinder@@V?$function@$$A6AXAAVKeyEvent@app@cinder@@@Z@boost@@@signals2@boost@@Vmutex@45@@detail@signals2@boost@@@boost@@@std@@@std@@@std@@V?$connection_body@U?$pair@W4slot_meta_group@detail@signals2@boost@@V?$optional@H@4@@std@@V?$slot1@XAAVKeyEvent@app@cinder@@V?$function@$$A6AXAAVKeyEvent@app@cinder@@@Z@boost@@@signals2@boost@@Vmutex@45@@345@@detail@signals2@boost@@QBEABUvoid_type@234@XZ 0040da00 f i cinder:Window.obj
 0001:0000ca00       ?dereference@?$slot_call_iterator_t@Vslot_invoker@?$signal1_impl@XAAVTouchEvent@app@cinder@@U?$EventCombiner@VTouchEvent@app@cinder@@@23@HU?$less@H@std@@V?$function@$$A6AXAAVTouchEvent@app@cinder@@@Z@boost@@V?$function@$$A6AXABVconnection@signals2@boost@@AAVTouchEvent@app@cinder@@@Z@8@Vmutex@signals2@8@@detail@signals2@boost@@V?$_List_iterator@V?$_List_val@U?$_List_simple_types@V?$shared_ptr@V?$connection_body@U?$pair@W4slot_meta_group@detail@signals2@boost@@V?$optional@H@4@@std@@V?$slot1@XAAVTouchEvent@app@cinder@@V?$function@$$A6AXAAVTouchEvent@app@cinder@@@Z@boost@@@signals2@boost@@Vmutex@45@@detail@signals2@boost@@@boost@@@std@@@std@@@std@@V?$connection_body@U?$pair@W4slot_meta_group@detail@signals2@boost@@V?$optional@H@4@@std@@V?$slot1@XAAVTouchEvent@app@cinder@@V?$function@$$A6AXAAVTouchEvent@app@cinder@@@Z@boost@@@signals2@boost@@Vmutex@45@@345@@detail@signals2@boost@@QBEABUvoid_type@234@XZ 0040da00 f i cinder:Window.obj
 0001:0000cad0       ?destroy@sp_counted_base@detail@boost@@UAEXXZ 0040dad0 f i cinder:Window.obj
 0001:0000cae0       ?destroy_back_n@?$auto_buffer@V?$variant@V?$shared_ptr@X@boost@@Vforeign_void_shared_ptr@detail@signals2@2@Uvoid_@042@U6042@U6042@U6042@U6042@U6042@U6042@U6042@U6042@U6042@U6042@U6042@U6042@U6042@U6042@U6042@U6042@U6042@@boost@@U?$store_n_objects@$09@detail@signals2@2@Udefault_grow_policy@452@V?$allocator@V?$variant@V?$shared_ptr@X@boost@@Vforeign_void_shared_ptr@detail@signals2@2@Uvoid_@042@U6042@U6042@U6042@U6042@U6042@U6042@U6042@U6042@U6042@U6042@U6042@U6042@U6042@U6042@U6042@U6042@U6042@@boost@@@std@@@detail@signals2@boost@@AAEXIABU?$integral_constant@_N$0A@@4@@Z 0040dae0 f i cinder:Window.obj
 0001:0000cb50       ?disconnect@connection_body_base@detail@signals2@boost@@QAEXXZ 0040db50 f i cinder:Window.obj
 0001:0000cb70       ?dispose@?$sp_counted_impl_p@U?$EventCombiner@VFileDropEvent@app@cinder@@@app@cinder@@@detail@boost@@UAEXXZ 0040db70 f i cinder:Window.obj
 0001:0000cb70       ?dispose@?$sp_counted_impl_p@U?$EventCombiner@VKeyEvent@app@cinder@@@app@cinder@@@detail@boost@@UAEXXZ 0040db70 f i cinder:Window.obj
 0001:0000cb70       ?dispose@?$sp_counted_impl_p@U?$EventCombiner@VMouseEvent@app@cinder@@@app@cinder@@@detail@boost@@UAEXXZ 0040db70 f i cinder:Window.obj
 0001:0000cb70       ?dispose@?$sp_counted_impl_p@U?$EventCombiner@VTouchEvent@app@cinder@@@app@cinder@@@detail@boost@@UAEXXZ 0040db70 f i cinder:Window.obj
 0001:0000cb70       ?dispose@?$sp_counted_impl_p@UBooleanAndEventCombiner@app@cinder@@@detail@boost@@UAEXXZ 0040db70 f i cinder:AppBasic.obj
 0001:0000cb70       ?dispose@?$sp_counted_impl_p@V?$optional_last_value@X@signals2@boost@@@detail@boost@@UAEXXZ 0040db70 f i cinder:App.obj
 0001:0000cb70       ?_Destroy@?$_Ref_count@VBlankingWindow@app@cinder@@@std@@EAEXXZ 0040db70 f i cinder:AppImplMswBasic.obj
 0001:0000cb80       ?dispose@?$sp_counted_impl_p@V?$grouped_list@HU?$less@H@std@@V?$shared_ptr@V?$connection_body@U?$pair@W4slot_meta_group@detail@signals2@boost@@V?$optional@H@4@@std@@V?$slot1@XAAVFileDropEvent@app@cinder@@V?$function@$$A6AXAAVFileDropEvent@app@cinder@@@Z@boost@@@signals2@boost@@Vmutex@45@@detail@signals2@boost@@@boost@@@detail@signals2@boost@@@detail@boost@@UAEXXZ 0040db80 f i cinder:Window.obj
 0001:0000cb80       ?dispose@?$sp_counted_impl_p@V?$grouped_list@HU?$less@H@std@@V?$shared_ptr@V?$connection_body@U?$pair@W4slot_meta_group@detail@signals2@boost@@V?$optional@H@4@@std@@V?$slot0@_NV?$function@$$A6A_NXZ@boost@@@signals2@boost@@Vmutex@45@@detail@signals2@boost@@@boost@@@detail@signals2@boost@@@detail@boost@@UAEXXZ 0040db80 f i cinder:AppBasic.obj
 0001:0000cb80       ?dispose@?$sp_counted_impl_p@V?$grouped_list@HU?$less@H@std@@V?$shared_ptr@V?$connection_body@U?$pair@W4slot_meta_group@detail@signals2@boost@@V?$optional@H@4@@std@@V?$slot1@XAAVMouseEvent@app@cinder@@V?$function@$$A6AXAAVMouseEvent@app@cinder@@@Z@boost@@@signals2@boost@@Vmutex@45@@detail@signals2@boost@@@boost@@@detail@signals2@boost@@@detail@boost@@UAEXXZ 0040db80 f i cinder:Window.obj
 0001:0000cb80       ?dispose@?$sp_counted_impl_p@V?$grouped_list@HU?$less@H@std@@V?$shared_ptr@V?$connection_body@U?$pair@W4slot_meta_group@detail@signals2@boost@@V?$optional@H@4@@std@@V?$slot0@XV?$function@$$A6AXXZ@boost@@@signals2@boost@@Vmutex@45@@detail@signals2@boost@@@boost@@@detail@signals2@boost@@@detail@boost@@UAEXXZ 0040db80 f i cinder:Window.obj
 0001:0000cb80       ?dispose@?$sp_counted_impl_p@V?$grouped_list@HU?$less@H@std@@V?$shared_ptr@V?$connection_body@U?$pair@W4slot_meta_group@detail@signals2@boost@@V?$optional@H@4@@std@@V?$slot1@XAAVKeyEvent@app@cinder@@V?$function@$$A6AXAAVKeyEvent@app@cinder@@@Z@boost@@@signals2@boost@@Vmutex@45@@detail@signals2@boost@@@boost@@@detail@signals2@boost@@@detail@boost@@UAEXXZ 0040db80 f i cinder:Window.obj
 0001:0000cb80       ?dispose@?$sp_counted_impl_p@V?$grouped_list@HU?$less@H@std@@V?$shared_ptr@V?$connection_body@U?$pair@W4slot_meta_group@detail@signals2@boost@@V?$optional@H@4@@std@@V?$slot1@XAAVTouchEvent@app@cinder@@V?$function@$$A6AXAAVTouchEvent@app@cinder@@@Z@boost@@@signals2@boost@@Vmutex@45@@detail@signals2@boost@@@boost@@@detail@signals2@boost@@@detail@boost@@UAEXXZ 0040db80 f i cinder:Window.obj
 0001:0000cbd0       ?dispose@?$sp_counted_impl_p@Vinvocation_state@?$signal0_impl@XV?$optional_last_value@X@signals2@boost@@HU?$less@H@std@@V?$function@$$A6AXXZ@3@V?$function@$$A6AXABVconnection@signals2@boost@@@Z@3@Vmutex@23@@detail@signals2@boost@@@detail@boost@@UAEXXZ 0040dbd0 f i cinder:Window.obj
 0001:0000cbd0       ?dispose@?$sp_counted_impl_p@Vinvocation_state@?$signal1_impl@XAAVKeyEvent@app@cinder@@U?$EventCombiner@VKeyEvent@app@cinder@@@23@HU?$less@H@std@@V?$function@$$A6AXAAVKeyEvent@app@cinder@@@Z@boost@@V?$function@$$A6AXABVconnection@signals2@boost@@AAVKeyEvent@app@cinder@@@Z@8@Vmutex@signals2@8@@detail@signals2@boost@@@detail@boost@@UAEXXZ 0040dbd0 f i cinder:Window.obj
 0001:0000cbd0       ?dispose@?$sp_counted_impl_p@Vinvocation_state@?$signal0_impl@_NUBooleanAndEventCombiner@app@cinder@@HU?$less@H@std@@V?$function@$$A6A_NXZ@boost@@V?$function@$$A6A_NABVconnection@signals2@boost@@@Z@7@Vmutex@signals2@7@@detail@signals2@boost@@@detail@boost@@UAEXXZ 0040dbd0 f i cinder:AppBasic.obj
 0001:0000cbd0       ?dispose@?$sp_counted_impl_p@Vinvocation_state@?$signal1_impl@XAAVMouseEvent@app@cinder@@U?$EventCombiner@VMouseEvent@app@cinder@@@23@HU?$less@H@std@@V?$function@$$A6AXAAVMouseEvent@app@cinder@@@Z@boost@@V?$function@$$A6AXABVconnection@signals2@boost@@AAVMouseEvent@app@cinder@@@Z@8@Vmutex@signals2@8@@detail@signals2@boost@@@detail@boost@@UAEXXZ 0040dbd0 f i cinder:Window.obj
 0001:0000cbd0       ?dispose@?$sp_counted_impl_p@Vinvocation_state@?$signal1_impl@XAAVTouchEvent@app@cinder@@U?$EventCombiner@VTouchEvent@app@cinder@@@23@HU?$less@H@std@@V?$function@$$A6AXAAVTouchEvent@app@cinder@@@Z@boost@@V?$function@$$A6AXABVconnection@signals2@boost@@AAVTouchEvent@app@cinder@@@Z@8@Vmutex@signals2@8@@detail@signals2@boost@@@detail@boost@@UAEXXZ 0040dbd0 f i cinder:Window.obj
 0001:0000cbd0       ?dispose@?$sp_counted_impl_p@Vinvocation_state@?$signal1_impl@XAAVFileDropEvent@app@cinder@@U?$EventCombiner@VFileDropEvent@app@cinder@@@23@HU?$less@H@std@@V?$function@$$A6AXAAVFileDropEvent@app@cinder@@@Z@boost@@V?$function@$$A6AXABVconnection@signals2@boost@@AAVFileDropEvent@app@cinder@@@Z@8@Vmutex@signals2@8@@detail@signals2@boost@@@detail@boost@@UAEXXZ 0040dbd0 f i cinder:Window.obj
 0001:0000cbf0       ?emitClose@Window@app@cinder@@QAEXXZ 0040dbf0 f   cinder:Window.obj
 0001:0000cc00       ?emitDisplayChange@Window@app@cinder@@QAEXXZ 0040dc00 f   cinder:Window.obj
 0001:0000cca0       ?emitDraw@Window@app@cinder@@QAEXXZ 0040dca0 f   cinder:Window.obj
 0001:0000ccd0       ?emitFileDrop@Window@app@cinder@@QAEXPAVFileDropEvent@23@@Z 0040dcd0 f   cinder:Window.obj
 0001:0000cda0       ?emitKeyDown@Window@app@cinder@@QAEXPAVKeyEvent@23@@Z 0040dda0 f   cinder:Window.obj
 0001:0000ce70       ?emitKeyUp@Window@app@cinder@@QAEXPAVKeyEvent@23@@Z 0040de70 f   cinder:Window.obj
 0001:0000cf40       ?emitMouseDown@Window@app@cinder@@QAEXPAVMouseEvent@23@@Z 0040df40 f   cinder:Window.obj
 0001:0000d000       ?emitMouseDrag@Window@app@cinder@@QAEXPAVMouseEvent@23@@Z 0040e000 f   cinder:Window.obj
 0001:0000d0c0       ?emitMouseMove@Window@app@cinder@@QAEXPAVMouseEvent@23@@Z 0040e0c0 f   cinder:Window.obj
 0001:0000d180       ?emitMouseUp@Window@app@cinder@@QAEXPAVMouseEvent@23@@Z 0040e180 f   cinder:Window.obj
 0001:0000d240       ?emitMouseWheel@Window@app@cinder@@QAEXPAVMouseEvent@23@@Z 0040e240 f   cinder:Window.obj
 0001:0000d300       ?emitMove@Window@app@cinder@@QAEXXZ 0040e300 f   cinder:Window.obj
 0001:0000d3a0       ?emitResize@Window@app@cinder@@QAEXXZ 0040e3a0 f   cinder:Window.obj
 0001:0000d490       ?emitTouchesBegan@Window@app@cinder@@QAEXPAVTouchEvent@23@@Z 0040e490 f   cinder:Window.obj
 0001:0000d5b0       ?emitTouchesEnded@Window@app@cinder@@QAEXPAVTouchEvent@23@@Z 0040e5b0 f   cinder:Window.obj
 0001:0000d6d0       ?emitTouchesMoved@Window@app@cinder@@QAEXPAVTouchEvent@23@@Z 0040e6d0 f   cinder:Window.obj
 0001:0000d7f0       ?erase@?$list@V?$shared_ptr@V?$connection_body@U?$pair@W4slot_meta_group@detail@signals2@boost@@V?$optional@H@4@@std@@V?$slot0@XV?$function@$$A6AXXZ@boost@@@signals2@boost@@Vmutex@45@@detail@signals2@boost@@@boost@@V?$allocator@V?$shared_ptr@V?$connection_body@U?$pair@W4slot_meta_group@detail@signals2@boost@@V?$optional@H@4@@std@@V?$slot0@XV?$function@$$A6AXXZ@boost@@@signals2@boost@@Vmutex@45@@detail@signals2@boost@@@boost@@@std@@@std@@QAE?AV?$_List_iterator@V?$_List_val@U?$_List_simple_types@V?$shared_ptr@V?$connection_body@U?$pair@W4slot_meta_group@detail@signals2@boost@@V?$optional@H@4@@std@@V?$slot0@XV?$function@$$A6AXXZ@boost@@@signals2@boost@@Vmutex@45@@detail@signals2@boost@@@boost@@@std@@@std@@@2@V?$_List_const_iterator@V?$_List_val@U?$_List_simple_types@V?$shared_ptr@V?$connection_body@U?$pair@W4slot_meta_group@detail@signals2@boost@@V?$optional@H@4@@std@@V?$slot0@XV?$function@$$A6AXXZ@boost@@@signals2@boost@@Vmutex@45@@detail@signals2@boost@@@boost@@@std@@@std@@@2@@Z 0040e7f0 f i cinder:Window.obj
 0001:0000d7f0       ?erase@?$list@V?$shared_ptr@V?$connection_body@U?$pair@W4slot_meta_group@detail@signals2@boost@@V?$optional@H@4@@std@@V?$slot1@XAAVTouchEvent@app@cinder@@V?$function@$$A6AXAAVTouchEvent@app@cinder@@@Z@boost@@@signals2@boost@@Vmutex@45@@detail@signals2@boost@@@boost@@V?$allocator@V?$shared_ptr@V?$connection_body@U?$pair@W4slot_meta_group@detail@signals2@boost@@V?$optional@H@4@@std@@V?$slot1@XAAVTouchEvent@app@cinder@@V?$function@$$A6AXAAVTouchEvent@app@cinder@@@Z@boost@@@signals2@boost@@Vmutex@45@@detail@signals2@boost@@@boost@@@std@@@std@@QAE?AV?$_List_iterator@V?$_List_val@U?$_List_simple_types@V?$shared_ptr@V?$connection_body@U?$pair@W4slot_meta_group@detail@signals2@boost@@V?$optional@H@4@@std@@V?$slot1@XAAVTouchEvent@app@cinder@@V?$function@$$A6AXAAVTouchEvent@app@cinder@@@Z@boost@@@signals2@boost@@Vmutex@45@@detail@signals2@boost@@@boost@@@std@@@std@@@2@V?$_List_const_iterator@V?$_List_val@U?$_List_simple_types@V?$shared_ptr@V?$connection_body@U?$pair@W4slot_meta_group@detail@signals2@boost@@V?$optional@H@4@@std@@V?$slot1@XAAVTouchEvent@app@cinder@@V?$function@$$A6AXAAVTouchEvent@app@cinder@@@Z@boost@@@signals2@boost@@Vmutex@45@@detail@signals2@boost@@@boost@@@std@@@std@@@2@@Z 0040e7f0 f i cinder:Window.obj
 0001:0000d7f0       ?erase@?$list@V?$shared_ptr@V?$connection_body@U?$pair@W4slot_meta_group@detail@signals2@boost@@V?$optional@H@4@@std@@V?$slot1@XAAVMouseEvent@app@cinder@@V?$function@$$A6AXAAVMouseEvent@app@cinder@@@Z@boost@@@signals2@boost@@Vmutex@45@@detail@signals2@boost@@@boost@@V?$allocator@V?$shared_ptr@V?$connection_body@U?$pair@W4slot_meta_group@detail@signals2@boost@@V?$optional@H@4@@std@@V?$slot1@XAAVMouseEvent@app@cinder@@V?$function@$$A6AXAAVMouseEvent@app@cinder@@@Z@boost@@@signals2@boost@@Vmutex@45@@detail@signals2@boost@@@boost@@@std@@@std@@QAE?AV?$_List_iterator@V?$_List_val@U?$_List_simple_types@V?$shared_ptr@V?$connection_body@U?$pair@W4slot_meta_group@detail@signals2@boost@@V?$optional@H@4@@std@@V?$slot1@XAAVMouseEvent@app@cinder@@V?$function@$$A6AXAAVMouseEvent@app@cinder@@@Z@boost@@@signals2@boost@@Vmutex@45@@detail@signals2@boost@@@boost@@@std@@@std@@@2@V?$_List_const_iterator@V?$_List_val@U?$_List_simple_types@V?$shared_ptr@V?$connection_body@U?$pair@W4slot_meta_group@detail@signals2@boost@@V?$optional@H@4@@std@@V?$slot1@XAAVMouseEvent@app@cinder@@V?$function@$$A6AXAAVMouseEvent@app@cinder@@@Z@boost@@@signals2@boost@@Vmutex@45@@detail@signals2@boost@@@boost@@@std@@@std@@@2@@Z 0040e7f0 f i cinder:Window.obj
 0001:0000d7f0       ?erase@?$list@V?$shared_ptr@V?$connection_body@U?$pair@W4slot_meta_group@detail@signals2@boost@@V?$optional@H@4@@std@@V?$slot1@XAAVFileDropEvent@app@cinder@@V?$function@$$A6AXAAVFileDropEvent@app@cinder@@@Z@boost@@@signals2@boost@@Vmutex@45@@detail@signals2@boost@@@boost@@V?$allocator@V?$shared_ptr@V?$connection_body@U?$pair@W4slot_meta_group@detail@signals2@boost@@V?$optional@H@4@@std@@V?$slot1@XAAVFileDropEvent@app@cinder@@V?$function@$$A6AXAAVFileDropEvent@app@cinder@@@Z@boost@@@signals2@boost@@Vmutex@45@@detail@signals2@boost@@@boost@@@std@@@std@@QAE?AV?$_List_iterator@V?$_List_val@U?$_List_simple_types@V?$shared_ptr@V?$connection_body@U?$pair@W4slot_meta_group@detail@signals2@boost@@V?$optional@H@4@@std@@V?$slot1@XAAVFileDropEvent@app@cinder@@V?$function@$$A6AXAAVFileDropEvent@app@cinder@@@Z@boost@@@signals2@boost@@Vmutex@45@@detail@signals2@boost@@@boost@@@std@@@std@@@2@V?$_List_const_iterator@V?$_List_val@U?$_List_simple_types@V?$shared_ptr@V?$connection_body@U?$pair@W4slot_meta_group@detail@signals2@boost@@V?$optional@H@4@@std@@V?$slot1@XAAVFileDropEvent@app@cinder@@V?$function@$$A6AXAAVFileDropEvent@app@cinder@@@Z@boost@@@signals2@boost@@Vmutex@45@@detail@signals2@boost@@@boost@@@std@@@std@@@2@@Z 0040e7f0 f i cinder:Window.obj
 0001:0000d7f0       ?erase@?$list@V?$shared_ptr@V?$connection_body@U?$pair@W4slot_meta_group@detail@signals2@boost@@V?$optional@H@4@@std@@V?$slot1@XAAVKeyEvent@app@cinder@@V?$function@$$A6AXAAVKeyEvent@app@cinder@@@Z@boost@@@signals2@boost@@Vmutex@45@@detail@signals2@boost@@@boost@@V?$allocator@V?$shared_ptr@V?$connection_body@U?$pair@W4slot_meta_group@detail@signals2@boost@@V?$optional@H@4@@std@@V?$slot1@XAAVKeyEvent@app@cinder@@V?$function@$$A6AXAAVKeyEvent@app@cinder@@@Z@boost@@@signals2@boost@@Vmutex@45@@detail@signals2@boost@@@boost@@@std@@@std@@QAE?AV?$_List_iterator@V?$_List_val@U?$_List_simple_types@V?$shared_ptr@V?$connection_body@U?$pair@W4slot_meta_group@detail@signals2@boost@@V?$optional@H@4@@std@@V?$slot1@XAAVKeyEvent@app@cinder@@V?$function@$$A6AXAAVKeyEvent@app@cinder@@@Z@boost@@@signals2@boost@@Vmutex@45@@detail@signals2@boost@@@boost@@@std@@@std@@@2@V?$_List_const_iterator@V?$_List_val@U?$_List_simple_types@V?$shared_ptr@V?$connection_body@U?$pair@W4slot_meta_group@detail@signals2@boost@@V?$optional@H@4@@std@@V?$slot1@XAAVKeyEvent@app@cinder@@V?$function@$$A6AXAAVKeyEvent@app@cinder@@@Z@boost@@@signals2@boost@@Vmutex@45@@detail@signals2@boost@@@boost@@@std@@@std@@@2@@Z 0040e7f0 f i cinder:Window.obj
 0001:0000d870       ?expired@slot_base@signals2@boost@@QBE_NXZ 0040e870 f i cinder:Window.obj
 0001:0000d900       ?force_cleanup_connections@?$signal0_impl@XV?$optional_last_value@X@signals2@boost@@HU?$less@H@std@@V?$function@$$A6AXXZ@3@V?$function@$$A6AXABVconnection@signals2@boost@@@Z@3@Vmutex@23@@detail@signals2@boost@@ABEXPBV?$grouped_list@HU?$less@H@std@@V?$shared_ptr@V?$connection_body@U?$pair@W4slot_meta_group@detail@signals2@boost@@V?$optional@H@4@@std@@V?$slot0@XV?$function@$$A6AXXZ@boost@@@signals2@boost@@Vmutex@45@@detail@signals2@boost@@@boost@@@234@@Z 0040e900 f i cinder:Window.obj
 0001:0000d9c0       ?force_cleanup_connections@?$signal1_impl@XAAVFileDropEvent@app@cinder@@U?$EventCombiner@VFileDropEvent@app@cinder@@@23@HU?$less@H@std@@V?$function@$$A6AXAAVFileDropEvent@app@cinder@@@Z@boost@@V?$function@$$A6AXABVconnection@signals2@boost@@AAVFileDropEvent@app@cinder@@@Z@8@Vmutex@signals2@8@@detail@signals2@boost@@ABEXPBV?$grouped_list@HU?$less@H@std@@V?$shared_ptr@V?$connection_body@U?$pair@W4slot_meta_group@detail@signals2@boost@@V?$optional@H@4@@std@@V?$slot1@XAAVFileDropEvent@app@cinder@@V?$function@$$A6AXAAVFileDropEvent@app@cinder@@@Z@boost@@@signals2@boost@@Vmutex@45@@detail@signals2@boost@@@boost@@@234@@Z 0040e9c0 f i cinder:Window.obj
 0001:0000da80       ?force_cleanup_connections@?$signal1_impl@XAAVKeyEvent@app@cinder@@U?$EventCombiner@VKeyEvent@app@cinder@@@23@HU?$less@H@std@@V?$function@$$A6AXAAVKeyEvent@app@cinder@@@Z@boost@@V?$function@$$A6AXABVconnection@signals2@boost@@AAVKeyEvent@app@cinder@@@Z@8@Vmutex@signals2@8@@detail@signals2@boost@@ABEXPBV?$grouped_list@HU?$less@H@std@@V?$shared_ptr@V?$connection_body@U?$pair@W4slot_meta_group@detail@signals2@boost@@V?$optional@H@4@@std@@V?$slot1@XAAVKeyEvent@app@cinder@@V?$function@$$A6AXAAVKeyEvent@app@cinder@@@Z@boost@@@signals2@boost@@Vmutex@45@@detail@signals2@boost@@@boost@@@234@@Z 0040ea80 f i cinder:Window.obj
 0001:0000db40       ?force_cleanup_connections@?$signal1_impl@XAAVMouseEvent@app@cinder@@U?$EventCombiner@VMouseEvent@app@cinder@@@23@HU?$less@H@std@@V?$function@$$A6AXAAVMouseEvent@app@cinder@@@Z@boost@@V?$function@$$A6AXABVconnection@signals2@boost@@AAVMouseEvent@app@cinder@@@Z@8@Vmutex@signals2@8@@detail@signals2@boost@@ABEXPBV?$grouped_list@HU?$less@H@std@@V?$shared_ptr@V?$connection_body@U?$pair@W4slot_meta_group@detail@signals2@boost@@V?$optional@H@4@@std@@V?$slot1@XAAVMouseEvent@app@cinder@@V?$function@$$A6AXAAVMouseEvent@app@cinder@@@Z@boost@@@signals2@boost@@Vmutex@45@@detail@signals2@boost@@@boost@@@234@@Z 0040eb40 f i cinder:Window.obj
 0001:0000dc00       ?force_cleanup_connections@?$signal1_impl@XAAVTouchEvent@app@cinder@@U?$EventCombiner@VTouchEvent@app@cinder@@@23@HU?$less@H@std@@V?$function@$$A6AXAAVTouchEvent@app@cinder@@@Z@boost@@V?$function@$$A6AXABVconnection@signals2@boost@@AAVTouchEvent@app@cinder@@@Z@8@Vmutex@signals2@8@@detail@signals2@boost@@ABEXPBV?$grouped_list@HU?$less@H@std@@V?$shared_ptr@V?$connection_body@U?$pair@W4slot_meta_group@detail@signals2@boost@@V?$optional@H@4@@std@@V?$slot1@XAAVTouchEvent@app@cinder@@V?$function@$$A6AXAAVTouchEvent@app@cinder@@@Z@boost@@@signals2@boost@@Vmutex@45@@detail@signals2@boost@@@boost@@@234@@Z 0040ec00 f i cinder:Window.obj
 0001:0000dcc0       ?getContentScale@Window@app@cinder@@QBEMXZ 0040ecc0 f   cinder:Window.obj
 0001:0000dcf0       ?getRenderer@Window@app@cinder@@QBE?AV?$shared_ptr@VRenderer@app@cinder@@@std@@XZ 0040ecf0 f   cinder:Window.obj
 0001:0000dd40       ?getSize@Window@app@cinder@@UBE?AV?$Vec2@H@3@XZ 0040ed40 f   cinder:Window.obj
 0001:0000dd90       ?get_untyped_deleter@?$sp_counted_impl_p@V?$grouped_list@HU?$less@H@std@@V?$shared_ptr@V?$connection_body@U?$pair@W4slot_meta_group@detail@signals2@boost@@V?$optional@H@4@@std@@V?$slot1@XAAVFileDropEvent@app@cinder@@V?$function@$$A6AXAAVFileDropEvent@app@cinder@@@Z@boost@@@signals2@boost@@Vmutex@45@@detail@signals2@boost@@@boost@@@detail@signals2@boost@@@detail@boost@@UAEPAXXZ 0040ed90 f i cinder:Window.obj
 0001:0000dd90       ?get_untyped_deleter@?$sp_counted_impl_p@Vinvocation_state@?$signal1_impl@XAAVMouseEvent@app@cinder@@U?$EventCombiner@VMouseEvent@app@cinder@@@23@HU?$less@H@std@@V?$function@$$A6AXAAVMouseEvent@app@cinder@@@Z@boost@@V?$function@$$A6AXABVconnection@signals2@boost@@AAVMouseEvent@app@cinder@@@Z@8@Vmutex@signals2@8@@detail@signals2@boost@@@detail@boost@@UAEPAXXZ 0040ed90 f i cinder:Window.obj
 0001:0000dd90       ?do_encoding@windows_file_codecvt@@MBEHXZ 0040ed90 f i libboost_filesystem-vc110-mt-s-1_53:path.obj
 0001:0000dd90       ?get_untyped_deleter@?$sp_counted_impl_p@U?$EventCombiner@VTouchEvent@app@cinder@@@app@cinder@@@detail@boost@@UAEPAXXZ 0040ed90 f i cinder:Window.obj
 0001:0000dd90       ?get_untyped_deleter@?$sp_counted_impl_p@Vinvocation_state@?$signal1_impl@XAAVTouchEvent@app@cinder@@U?$EventCombiner@VTouchEvent@app@cinder@@@23@HU?$less@H@std@@V?$function@$$A6AXAAVTouchEvent@app@cinder@@@Z@boost@@V?$function@$$A6AXABVconnection@signals2@boost@@AAVTouchEvent@app@cinder@@@Z@8@Vmutex@signals2@8@@detail@signals2@boost@@@detail@boost@@UAEPAXXZ 0040ed90 f i cinder:Window.obj
 0001:0000dd90       ?get_untyped_deleter@?$sp_counted_impl_p@V?$clone_impl@Ubad_exception_@exception_detail@boost@@@exception_detail@boost@@@detail@boost@@UAEPAXXZ 0040ed90 f i libboost_thread-vc110-mt-s-1_53:thread.obj
 0001:0000dd90       ?get_untyped_deleter@?$sp_counted_impl_p@V?$signal1_impl@XAAVTouchEvent@app@cinder@@U?$EventCombiner@VTouchEvent@app@cinder@@@23@HU?$less@H@std@@V?$function@$$A6AXAAVTouchEvent@app@cinder@@@Z@boost@@V?$function@$$A6AXABVconnection@signals2@boost@@AAVTouchEvent@app@cinder@@@Z@8@Vmutex@signals2@8@@detail@signals2@boost@@@detail@boost@@UAEPAXXZ 0040ed90 f i cinder:AppImplMsw.obj
 0001:0000dd90       ?get_untyped_deleter@?$sp_counted_impl_p@U?$EventCombiner@VFileDropEvent@app@cinder@@@app@cinder@@@detail@boost@@UAEPAXXZ 0040ed90 f i cinder:Window.obj
 0001:0000dd90       ?sync@?$basic_streambuf@DU?$char_traits@D@std@@@std@@MAEHXZ 0040ed90 f i cinder:App.obj
 0001:0000dd90       ?get_untyped_deleter@?$sp_counted_impl_p@V?$optional_last_value@X@signals2@boost@@@detail@boost@@UAEPAXXZ 0040ed90 f i cinder:App.obj
 0001:0000dd90       ?get_untyped_deleter@?$sp_counted_impl_p@UBooleanAndEventCombiner@app@cinder@@@detail@boost@@UAEPAXXZ 0040ed90 f i cinder:AppBasic.obj
 0001:0000dd90       ?get_untyped_deleter@?$sp_counted_impl_p@V?$signal1_impl@XAAVKeyEvent@app@cinder@@U?$EventCombiner@VKeyEvent@app@cinder@@@23@HU?$less@H@std@@V?$function@$$A6AXAAVKeyEvent@app@cinder@@@Z@boost@@V?$function@$$A6AXABVconnection@signals2@boost@@AAVKeyEvent@app@cinder@@@Z@8@Vmutex@signals2@8@@detail@signals2@boost@@@detail@boost@@UAEPAXXZ 0040ed90 f i cinder:AppImplMsw.obj
 0001:0000dd90       ?get_untyped_deleter@?$sp_counted_impl_p@V?$signal1_impl@XAAVFileDropEvent@app@cinder@@U?$EventCombiner@VFileDropEvent@app@cinder@@@23@HU?$less@H@std@@V?$function@$$A6AXAAVFileDropEvent@app@cinder@@@Z@boost@@V?$function@$$A6AXABVconnection@signals2@boost@@AAVFileDropEvent@app@cinder@@@Z@8@Vmutex@signals2@8@@detail@signals2@boost@@@detail@boost@@UAEPAXXZ 0040ed90 f i cinder:AppImplMsw.obj
 0001:0000dd90       ?get_untyped_deleter@?$sp_counted_impl_p@V?$grouped_list@HU?$less@H@std@@V?$shared_ptr@V?$connection_body@U?$pair@W4slot_meta_group@detail@signals2@boost@@V?$optional@H@4@@std@@V?$slot1@XAAVKeyEvent@app@cinder@@V?$function@$$A6AXAAVKeyEvent@app@cinder@@@Z@boost@@@signals2@boost@@Vmutex@45@@detail@signals2@boost@@@boost@@@detail@signals2@boost@@@detail@boost@@UAEPAXXZ 0040ed90 f i cinder:Window.obj
 0001:0000dd90       ?get_untyped_deleter@?$sp_counted_impl_p@V?$signal0_impl@XV?$optional_last_value@X@signals2@boost@@HU?$less@H@std@@V?$function@$$A6AXXZ@3@V?$function@$$A6AXABVconnection@signals2@boost@@@Z@3@Vmutex@23@@detail@signals2@boost@@@detail@boost@@UAEPAXXZ 0040ed90 f i cinder:App.obj
 0001:0000dd90       ?get_untyped_deleter@?$sp_counted_impl_p@Um_imp@filesystem_error@filesystem@boost@@@detail@boost@@UAEPAXXZ 0040ed90 f i libboost_filesystem-vc110-mt-s-1_53:operations.obj
 0001:0000dd90       ?get_untyped_deleter@?$sp_counted_impl_p@Vinvocation_state@?$signal0_impl@XV?$optional_last_value@X@signals2@boost@@HU?$less@H@std@@V?$function@$$A6AXXZ@3@V?$function@$$A6AXABVconnection@signals2@boost@@@Z@3@Vmutex@23@@detail@signals2@boost@@@detail@boost@@UAEPAXXZ 0040ed90 f i cinder:Window.obj
 0001:0000dd90       ?getDc@Renderer@app@cinder@@UAEPAUHDC__@@XZ 0040ed90 f i cinder:Renderer.obj
 0001:0000dd90       ?get_untyped_deleter@?$sp_counted_impl_p@V?$signal1_impl@XAAVMouseEvent@app@cinder@@U?$EventCombiner@VMouseEvent@app@cinder@@@23@HU?$less@H@std@@V?$function@$$A6AXAAVMouseEvent@app@cinder@@@Z@boost@@V?$function@$$A6AXABVconnection@signals2@boost@@AAVMouseEvent@app@cinder@@@Z@8@Vmutex@signals2@8@@detail@signals2@boost@@@detail@boost@@UAEPAXXZ 0040ed90 f i cinder:AppImplMsw.obj
 0001:0000dd90       ?do_max_length@windows_file_codecvt@@MBEHXZ 0040ed90 f i libboost_filesystem-vc110-mt-s-1_53:path.obj
 0001:0000dd90       ?get_untyped_deleter@?$sp_counted_impl_p@Vinvocation_state@?$signal1_impl@XAAVKeyEvent@app@cinder@@U?$EventCombiner@VKeyEvent@app@cinder@@@23@HU?$less@H@std@@V?$function@$$A6AXAAVKeyEvent@app@cinder@@@Z@boost@@V?$function@$$A6AXABVconnection@signals2@boost@@AAVKeyEvent@app@cinder@@@Z@8@Vmutex@signals2@8@@detail@signals2@boost@@@detail@boost@@UAEPAXXZ 0040ed90 f i cinder:Window.obj
 0001:0000dd90       ?get_untyped_deleter@?$sp_counted_impl_p@V?$grouped_list@HU?$less@H@std@@V?$shared_ptr@V?$connection_body@U?$pair@W4slot_meta_group@detail@signals2@boost@@V?$optional@H@4@@std@@V?$slot0@_NV?$function@$$A6A_NXZ@boost@@@signals2@boost@@Vmutex@45@@detail@signals2@boost@@@boost@@@detail@signals2@boost@@@detail@boost@@UAEPAXXZ 0040ed90 f i cinder:AppBasic.obj
 0001:0000dd90       ?get_untyped_deleter@?$sp_counted_impl_p@V?$grouped_list@HU?$less@H@std@@V?$shared_ptr@V?$connection_body@U?$pair@W4slot_meta_group@detail@signals2@boost@@V?$optional@H@4@@std@@V?$slot1@XAAVMouseEvent@app@cinder@@V?$function@$$A6AXAAVMouseEvent@app@cinder@@@Z@boost@@@signals2@boost@@Vmutex@45@@detail@signals2@boost@@@boost@@@detail@signals2@boost@@@detail@boost@@UAEPAXXZ 0040ed90 f i cinder:Window.obj
 0001:0000dd90       ?get_untyped_deleter@?$sp_counted_impl_p@V?$signal0_impl@_NUBooleanAndEventCombiner@app@cinder@@HU?$less@H@std@@V?$function@$$A6A_NXZ@boost@@V?$function@$$A6A_NABVconnection@signals2@boost@@@Z@7@Vmutex@signals2@7@@detail@signals2@boost@@@detail@boost@@UAEPAXXZ 0040ed90 f i cinder:AppBasic.obj
 0001:0000dd90       ?get_untyped_deleter@?$sp_counted_impl_p@V?$grouped_list@HU?$less@H@std@@V?$shared_ptr@V?$connection_body@U?$pair@W4slot_meta_group@detail@signals2@boost@@V?$optional@H@4@@std@@V?$slot0@XV?$function@$$A6AXXZ@boost@@@signals2@boost@@Vmutex@45@@detail@signals2@boost@@@boost@@@detail@signals2@boost@@@detail@boost@@UAEPAXXZ 0040ed90 f i cinder:Window.obj
 0001:0000dd90       ?get_untyped_deleter@?$sp_counted_impl_p@V?$clone_impl@Ubad_alloc_@exception_detail@boost@@@exception_detail@boost@@@detail@boost@@UAEPAXXZ 0040ed90 f i libboost_thread-vc110-mt-s-1_53:thread.obj
 0001:0000dd90       ?get_untyped_deleter@?$sp_counted_impl_p@Vinvocation_state@?$signal0_impl@_NUBooleanAndEventCombiner@app@cinder@@HU?$less@H@std@@V?$function@$$A6A_NXZ@boost@@V?$function@$$A6A_NABVconnection@signals2@boost@@@Z@7@Vmutex@signals2@7@@detail@signals2@boost@@@detail@boost@@UAEPAXXZ 0040ed90 f i cinder:AppBasic.obj
 0001:0000dd90       ?get_untyped_deleter@?$sp_counted_impl_p@Vinvocation_state@?$signal1_impl@XAAVFileDropEvent@app@cinder@@U?$EventCombiner@VFileDropEvent@app@cinder@@@23@HU?$less@H@std@@V?$function@$$A6AXAAVFileDropEvent@app@cinder@@@Z@boost@@V?$function@$$A6AXABVconnection@signals2@boost@@AAVFileDropEvent@app@cinder@@@Z@8@Vmutex@signals2@8@@detail@signals2@boost@@@detail@boost@@UAEPAXXZ 0040ed90 f i cinder:Window.obj
 0001:0000dd90       ?get_untyped_deleter@?$sp_counted_impl_p@V?$grouped_list@HU?$less@H@std@@V?$shared_ptr@V?$connection_body@U?$pair@W4slot_meta_group@detail@signals2@boost@@V?$optional@H@4@@std@@V?$slot1@XAAVTouchEvent@app@cinder@@V?$function@$$A6AXAAVTouchEvent@app@cinder@@@Z@boost@@@signals2@boost@@Vmutex@45@@detail@signals2@boost@@@boost@@@detail@signals2@boost@@@detail@boost@@UAEPAXXZ 0040ed90 f i cinder:Window.obj
 0001:0000dd90       ?get_untyped_deleter@?$sp_counted_impl_p@U?$EventCombiner@VMouseEvent@app@cinder@@@app@cinder@@@detail@boost@@UAEPAXXZ 0040ed90 f i cinder:Window.obj
 0001:0000dd90       ?get_untyped_deleter@?$sp_counted_impl_p@U?$EventCombiner@VKeyEvent@app@cinder@@@app@cinder@@@detail@boost@@UAEPAXXZ 0040ed90 f i cinder:Window.obj
 0001:0000dda0       ?isFullScreen@Window@app@cinder@@QBE_NXZ 0040eda0 f   cinder:Window.obj
 0001:0000dde0       ?lock@?$weak_ptr@X@boost@@QBE?AV?$shared_ptr@X@2@XZ 0040ede0 f i cinder:Window.obj
 0001:0000de10       ?lock@foreign_void_weak_ptr@detail@signals2@boost@@QBE?AVforeign_void_shared_ptr@234@XZ 0040ee10 f i cinder:Window.obj
 0001:0000de30       ?lock_next_callable@?$slot_call_iterator_t@Vslot_invoker@?$signal1_impl@XAAVKeyEvent@app@cinder@@U?$EventCombiner@VKeyEvent@app@cinder@@@23@HU?$less@H@std@@V?$function@$$A6AXAAVKeyEvent@app@cinder@@@Z@boost@@V?$function@$$A6AXABVconnection@signals2@boost@@AAVKeyEvent@app@cinder@@@Z@8@Vmutex@signals2@8@@detail@signals2@boost@@V?$_List_iterator@V?$_List_val@U?$_List_simple_types@V?$shared_ptr@V?$connection_body@U?$pair@W4slot_meta_group@detail@signals2@boost@@V?$optional@H@4@@std@@V?$slot1@XAAVKeyEvent@app@cinder@@V?$function@$$A6AXAAVKeyEvent@app@cinder@@@Z@boost@@@signals2@boost@@Vmutex@45@@detail@signals2@boost@@@boost@@@std@@@std@@@std@@V?$connection_body@U?$pair@W4slot_meta_group@detail@signals2@boost@@V?$optional@H@4@@std@@V?$slot1@XAAVKeyEvent@app@cinder@@V?$function@$$A6AXAAVKeyEvent@app@cinder@@@Z@boost@@@signals2@boost@@Vmutex@45@@345@@detail@signals2@boost@@ABEXXZ 0040ee30 f i cinder:Window.obj
 0001:0000de30       ?lock_next_callable@?$slot_call_iterator_t@Vslot_invoker@?$signal1_impl@XAAVTouchEvent@app@cinder@@U?$EventCombiner@VTouchEvent@app@cinder@@@23@HU?$less@H@std@@V?$function@$$A6AXAAVTouchEvent@app@cinder@@@Z@boost@@V?$function@$$A6AXABVconnection@signals2@boost@@AAVTouchEvent@app@cinder@@@Z@8@Vmutex@signals2@8@@detail@signals2@boost@@V?$_List_iterator@V?$_List_val@U?$_List_simple_types@V?$shared_ptr@V?$connection_body@U?$pair@W4slot_meta_group@detail@signals2@boost@@V?$optional@H@4@@std@@V?$slot1@XAAVTouchEvent@app@cinder@@V?$function@$$A6AXAAVTouchEvent@app@cinder@@@Z@boost@@@signals2@boost@@Vmutex@45@@detail@signals2@boost@@@boost@@@std@@@std@@@std@@V?$connection_body@U?$pair@W4slot_meta_group@detail@signals2@boost@@V?$optional@H@4@@std@@V?$slot1@XAAVTouchEvent@app@cinder@@V?$function@$$A6AXAAVTouchEvent@app@cinder@@@Z@boost@@@signals2@boost@@Vmutex@45@@345@@detail@signals2@boost@@ABEXXZ 0040ee30 f i cinder:Window.obj
 0001:0000de30       ?lock_next_callable@?$slot_call_iterator_t@Vslot_invoker@?$signal0_impl@XV?$optional_last_value@X@signals2@boost@@HU?$less@H@std@@V?$function@$$A6AXXZ@3@V?$function@$$A6AXABVconnection@signals2@boost@@@Z@3@Vmutex@23@@detail@signals2@boost@@V?$_List_iterator@V?$_List_val@U?$_List_simple_types@V?$shared_ptr@V?$connection_body@U?$pair@W4slot_meta_group@detail@signals2@boost@@V?$optional@H@4@@std@@V?$slot0@XV?$function@$$A6AXXZ@boost@@@signals2@boost@@Vmutex@45@@detail@signals2@boost@@@boost@@@std@@@std@@@std@@V?$connection_body@U?$pair@W4slot_meta_group@detail@signals2@boost@@V?$optional@H@4@@std@@V?$slot0@XV?$function@$$A6AXXZ@boost@@@signals2@boost@@Vmutex@45@@345@@detail@signals2@boost@@ABEXXZ 0040ee30 f i cinder:Window.obj
 0001:0000de30       ?lock_next_callable@?$slot_call_iterator_t@Vslot_invoker@?$signal1_impl@XAAVMouseEvent@app@cinder@@U?$EventCombiner@VMouseEvent@app@cinder@@@23@HU?$less@H@std@@V?$function@$$A6AXAAVMouseEvent@app@cinder@@@Z@boost@@V?$function@$$A6AXABVconnection@signals2@boost@@AAVMouseEvent@app@cinder@@@Z@8@Vmutex@signals2@8@@detail@signals2@boost@@V?$_List_iterator@V?$_List_val@U?$_List_simple_types@V?$shared_ptr@V?$connection_body@U?$pair@W4slot_meta_group@detail@signals2@boost@@V?$optional@H@4@@std@@V?$slot1@XAAVMouseEvent@app@cinder@@V?$function@$$A6AXAAVMouseEvent@app@cinder@@@Z@boost@@@signals2@boost@@Vmutex@45@@detail@signals2@boost@@@boost@@@std@@@std@@@std@@V?$connection_body@U?$pair@W4slot_meta_group@detail@signals2@boost@@V?$optional@H@4@@std@@V?$slot1@XAAVMouseEvent@app@cinder@@V?$function@$$A6AXAAVMouseEvent@app@cinder@@@Z@boost@@@signals2@boost@@Vmutex@45@@345@@detail@signals2@boost@@ABEXXZ 0040ee30 f i cinder:Window.obj
 0001:0000de30       ?lock_next_callable@?$slot_call_iterator_t@Vslot_invoker@?$signal1_impl@XAAVFileDropEvent@app@cinder@@U?$EventCombiner@VFileDropEvent@app@cinder@@@23@HU?$less@H@std@@V?$function@$$A6AXAAVFileDropEvent@app@cinder@@@Z@boost@@V?$function@$$A6AXABVconnection@signals2@boost@@AAVFileDropEvent@app@cinder@@@Z@8@Vmutex@signals2@8@@detail@signals2@boost@@V?$_List_iterator@V?$_List_val@U?$_List_simple_types@V?$shared_ptr@V?$connection_body@U?$pair@W4slot_meta_group@detail@signals2@boost@@V?$optional@H@4@@std@@V?$slot1@XAAVFileDropEvent@app@cinder@@V?$function@$$A6AXAAVFileDropEvent@app@cinder@@@Z@boost@@@signals2@boost@@Vmutex@45@@detail@signals2@boost@@@boost@@@std@@@std@@@std@@V?$connection_body@U?$pair@W4slot_meta_group@detail@signals2@boost@@V?$optional@H@4@@std@@V?$slot1@XAAVFileDropEvent@app@cinder@@V?$function@$$A6AXAAVFileDropEvent@app@cinder@@@Z@boost@@@signals2@boost@@Vmutex@45@@345@@detail@signals2@boost@@ABEXXZ 0040ee30 f i cinder:Window.obj
 0001:0000df50       ?move_to_new_buffer@?$auto_buffer@V?$variant@V?$shared_ptr@X@boost@@Vforeign_void_shared_ptr@detail@signals2@2@Uvoid_@042@U6042@U6042@U6042@U6042@U6042@U6042@U6042@U6042@U6042@U6042@U6042@U6042@U6042@U6042@U6042@U6042@U6042@@boost@@U?$store_n_objects@$09@detail@signals2@2@Udefault_grow_policy@452@V?$allocator@V?$variant@V?$shared_ptr@X@boost@@Vforeign_void_shared_ptr@detail@signals2@2@Uvoid_@042@U6042@U6042@U6042@U6042@U6042@U6042@U6042@U6042@U6042@U6042@U6042@U6042@U6042@U6042@U6042@U6042@U6042@@boost@@@std@@@detail@signals2@boost@@AAEPAV?$variant@V?$shared_ptr@X@boost@@Vforeign_void_shared_ptr@detail@signals2@2@Uvoid_@042@U6042@U6042@U6042@U6042@U6042@U6042@U6042@U6042@U6042@U6042@U6042@U6042@U6042@U6042@U6042@U6042@U6042@@4@IABU?$integral_constant@_N$0A@@4@@Z 0040ef50 f i cinder:Window.obj
 0001:0000e010       ?nolock_cleanup_connections_from@?$signal1_impl@XAAVMouseEvent@app@cinder@@U?$EventCombiner@VMouseEvent@app@cinder@@@23@HU?$less@H@std@@V?$function@$$A6AXAAVMouseEvent@app@cinder@@@Z@boost@@V?$function@$$A6AXABVconnection@signals2@boost@@AAVMouseEvent@app@cinder@@@Z@8@Vmutex@signals2@8@@detail@signals2@boost@@ABEX_NABV?$_List_iterator@V?$_List_val@U?$_List_simple_types@V?$shared_ptr@V?$connection_body@U?$pair@W4slot_meta_group@detail@signals2@boost@@V?$optional@H@4@@std@@V?$slot1@XAAVMouseEvent@app@cinder@@V?$function@$$A6AXAAVMouseEvent@app@cinder@@@Z@boost@@@signals2@boost@@Vmutex@45@@detail@signals2@boost@@@boost@@@std@@@std@@@std@@I@Z 0040f010 f i cinder:Window.obj
 0001:0000e010       ?nolock_cleanup_connections_from@?$signal1_impl@XAAVTouchEvent@app@cinder@@U?$EventCombiner@VTouchEvent@app@cinder@@@23@HU?$less@H@std@@V?$function@$$A6AXAAVTouchEvent@app@cinder@@@Z@boost@@V?$function@$$A6AXABVconnection@signals2@boost@@AAVTouchEvent@app@cinder@@@Z@8@Vmutex@signals2@8@@detail@signals2@boost@@ABEX_NABV?$_List_iterator@V?$_List_val@U?$_List_simple_types@V?$shared_ptr@V?$connection_body@U?$pair@W4slot_meta_group@detail@signals2@boost@@V?$optional@H@4@@std@@V?$slot1@XAAVTouchEvent@app@cinder@@V?$function@$$A6AXAAVTouchEvent@app@cinder@@@Z@boost@@@signals2@boost@@Vmutex@45@@detail@signals2@boost@@@boost@@@std@@@std@@@std@@I@Z 0040f010 f i cinder:Window.obj
 0001:0000e010       ?nolock_cleanup_connections_from@?$signal0_impl@XV?$optional_last_value@X@signals2@boost@@HU?$less@H@std@@V?$function@$$A6AXXZ@3@V?$function@$$A6AXABVconnection@signals2@boost@@@Z@3@Vmutex@23@@detail@signals2@boost@@ABEX_NABV?$_List_iterator@V?$_List_val@U?$_List_simple_types@V?$shared_ptr@V?$connection_body@U?$pair@W4slot_meta_group@detail@signals2@boost@@V?$optional@H@4@@std@@V?$slot0@XV?$function@$$A6AXXZ@boost@@@signals2@boost@@Vmutex@45@@detail@signals2@boost@@@boost@@@std@@@std@@@std@@I@Z 0040f010 f i cinder:Window.obj
 0001:0000e010       ?nolock_cleanup_connections_from@?$signal1_impl@XAAVKeyEvent@app@cinder@@U?$EventCombiner@VKeyEvent@app@cinder@@@23@HU?$less@H@std@@V?$function@$$A6AXAAVKeyEvent@app@cinder@@@Z@boost@@V?$function@$$A6AXABVconnection@signals2@boost@@AAVKeyEvent@app@cinder@@@Z@8@Vmutex@signals2@8@@detail@signals2@boost@@ABEX_NABV?$_List_iterator@V?$_List_val@U?$_List_simple_types@V?$shared_ptr@V?$connection_body@U?$pair@W4slot_meta_group@detail@signals2@boost@@V?$optional@H@4@@std@@V?$slot1@XAAVKeyEvent@app@cinder@@V?$function@$$A6AXAAVKeyEvent@app@cinder@@@Z@boost@@@signals2@boost@@Vmutex@45@@detail@signals2@boost@@@boost@@@std@@@std@@@std@@I@Z 0040f010 f i cinder:Window.obj
 0001:0000e010       ?nolock_cleanup_connections_from@?$signal1_impl@XAAVFileDropEvent@app@cinder@@U?$EventCombiner@VFileDropEvent@app@cinder@@@23@HU?$less@H@std@@V?$function@$$A6AXAAVFileDropEvent@app@cinder@@@Z@boost@@V?$function@$$A6AXABVconnection@signals2@boost@@AAVFileDropEvent@app@cinder@@@Z@8@Vmutex@signals2@8@@detail@signals2@boost@@ABEX_NABV?$_List_iterator@V?$_List_val@U?$_List_simple_types@V?$shared_ptr@V?$connection_body@U?$pair@W4slot_meta_group@detail@signals2@boost@@V?$optional@H@4@@std@@V?$slot1@XAAVFileDropEvent@app@cinder@@V?$function@$$A6AXAAVFileDropEvent@app@cinder@@@Z@boost@@@signals2@boost@@Vmutex@45@@detail@signals2@boost@@@boost@@@std@@@std@@@std@@I@Z 0040f010 f i cinder:Window.obj
 0001:0000e150       ?reserve@?$auto_buffer@V?$variant@V?$shared_ptr@X@boost@@Vforeign_void_shared_ptr@detail@signals2@2@Uvoid_@042@U6042@U6042@U6042@U6042@U6042@U6042@U6042@U6042@U6042@U6042@U6042@U6042@U6042@U6042@U6042@U6042@U6042@@boost@@U?$store_n_objects@$09@detail@signals2@2@Udefault_grow_policy@452@V?$allocator@V?$variant@V?$shared_ptr@X@boost@@Vforeign_void_shared_ptr@detail@signals2@2@Uvoid_@042@U6042@U6042@U6042@U6042@U6042@U6042@U6042@U6042@U6042@U6042@U6042@U6042@U6042@U6042@U6042@U6042@U6042@@boost@@@std@@@detail@signals2@boost@@QAEXI@Z 0040f150 f i cinder:Window.obj
 0001:0000e1c3       ?rethrow@?$clone_impl@U?$error_info_injector@Vbad_function_call@boost@@@exception_detail@boost@@@exception_detail@boost@@$0PPPPPPPM@A@BEXXZ 0040f1c3 f i cinder:Window.obj
 0001:0000e1d0       ?rethrow@?$clone_impl@U?$error_info_injector@Vbad_function_call@boost@@@exception_detail@boost@@@exception_detail@boost@@EBEXXZ 0040f1d0 f i cinder:Window.obj
 0001:0000e2b0       ?setFullScreen@Window@app@cinder@@QAEX_NABUFullScreenOptions@23@@Z 0040f2b0 f   cinder:Window.obj
 0001:0000e300       ?setPos@Window@app@cinder@@QBEXABV?$Vec2@H@3@@Z 0040f300 f   cinder:Window.obj
 0001:0000e340       ?set_combiner@?$signal1_impl@XAAVFileDropEvent@app@cinder@@U?$EventCombiner@VFileDropEvent@app@cinder@@@23@HU?$less@H@std@@V?$function@$$A6AXAAVFileDropEvent@app@cinder@@@Z@boost@@V?$function@$$A6AXABVconnection@signals2@boost@@AAVFileDropEvent@app@cinder@@@Z@8@Vmutex@signals2@8@@detail@signals2@boost@@QAEXABU?$EventCombiner@VFileDropEvent@app@cinder@@@app@cinder@@@Z 0040f340 f i cinder:Window.obj
 0001:0000e430       ?set_combiner@?$signal1_impl@XAAVKeyEvent@app@cinder@@U?$EventCombiner@VKeyEvent@app@cinder@@@23@HU?$less@H@std@@V?$function@$$A6AXAAVKeyEvent@app@cinder@@@Z@boost@@V?$function@$$A6AXABVconnection@signals2@boost@@AAVKeyEvent@app@cinder@@@Z@8@Vmutex@signals2@8@@detail@signals2@boost@@QAEXABU?$EventCombiner@VKeyEvent@app@cinder@@@app@cinder@@@Z 0040f430 f i cinder:Window.obj
 0001:0000e520       ?set_combiner@?$signal1_impl@XAAVMouseEvent@app@cinder@@U?$EventCombiner@VMouseEvent@app@cinder@@@23@HU?$less@H@std@@V?$function@$$A6AXAAVMouseEvent@app@cinder@@@Z@boost@@V?$function@$$A6AXABVconnection@signals2@boost@@AAVMouseEvent@app@cinder@@@Z@8@Vmutex@signals2@8@@detail@signals2@boost@@QAEXABU?$EventCombiner@VMouseEvent@app@cinder@@@app@cinder@@@Z 0040f520 f i cinder:Window.obj
 0001:0000e610       ?set_combiner@?$signal1_impl@XAAVTouchEvent@app@cinder@@U?$EventCombiner@VTouchEvent@app@cinder@@@23@HU?$less@H@std@@V?$function@$$A6AXAAVTouchEvent@app@cinder@@@Z@boost@@V?$function@$$A6AXABVconnection@signals2@boost@@AAVTouchEvent@app@cinder@@@Z@8@Vmutex@signals2@8@@detail@signals2@boost@@QAEXABU?$EventCombiner@VTouchEvent@app@cinder@@@app@cinder@@@Z 0040f610 f i cinder:Window.obj
 0001:0000e700       ?what@ExcInvalidWindow@app@cinder@@EBEPBDXZ 0040f700 f i cinder:Window.obj
 0001:0000e710       ??$?0UBooleanAndEventCombiner@app@cinder@@@?$shared_ptr@UBooleanAndEventCombiner@app@cinder@@@boost@@QAE@PAUBooleanAndEventCombiner@app@cinder@@@Z 0040f710 f i cinder:AppBasic.obj
 0001:0000e7c0       ??$?0UBooleanAndEventCombiner@app@cinder@@@shared_count@detail@boost@@QAE@PAUBooleanAndEventCombiner@app@cinder@@@Z 0040f7c0 f i cinder:AppBasic.obj
 0001:0000e860       ??$?0V?$grouped_list@HU?$less@H@std@@V?$shared_ptr@V?$connection_body@U?$pair@W4slot_meta_group@detail@signals2@boost@@V?$optional@H@4@@std@@V?$slot0@_NV?$function@$$A6A_NXZ@boost@@@signals2@boost@@Vmutex@45@@detail@signals2@boost@@@boost@@@detail@signals2@boost@@@?$shared_ptr@V?$grouped_list@HU?$less@H@std@@V?$shared_ptr@V?$connection_body@U?$pair@W4slot_meta_group@detail@signals2@boost@@V?$optional@H@4@@std@@V?$slot0@_NV?$function@$$A6A_NXZ@boost@@@signals2@boost@@Vmutex@45@@detail@signals2@boost@@@boost@@@detail@signals2@boost@@@boost@@QAE@PAV?$grouped_list@HU?$less@H@std@@V?$shared_ptr@V?$connection_body@U?$pair@W4slot_meta_group@detail@signals2@boost@@V?$optional@H@4@@std@@V?$slot0@_NV?$function@$$A6A_NXZ@boost@@@signals2@boost@@Vmutex@45@@detail@signals2@boost@@@boost@@@detail@signals2@1@@Z 0040f860 f i cinder:AppBasic.obj
 0001:0000e910       ??$?0V?$grouped_list@HU?$less@H@std@@V?$shared_ptr@V?$connection_body@U?$pair@W4slot_meta_group@detail@signals2@boost@@V?$optional@H@4@@std@@V?$slot0@_NV?$function@$$A6A_NXZ@boost@@@signals2@boost@@Vmutex@45@@detail@signals2@boost@@@boost@@@detail@signals2@boost@@@shared_count@detail@boost@@QAE@PAV?$grouped_list@HU?$less@H@std@@V?$shared_ptr@V?$connection_body@U?$pair@W4slot_meta_group@detail@signals2@boost@@V?$optional@H@4@@std@@V?$slot0@_NV?$function@$$A6A_NXZ@boost@@@signals2@boost@@Vmutex@45@@detail@signals2@boost@@@boost@@@1signals2@2@@Z 0040f910 f i cinder:AppBasic.obj
 0001:0000e9b0       ??$?0V?$signal0_impl@_NUBooleanAndEventCombiner@app@cinder@@HU?$less@H@std@@V?$function@$$A6A_NXZ@boost@@V?$function@$$A6A_NABVconnection@signals2@boost@@@Z@7@Vmutex@signals2@7@@detail@signals2@boost@@@?$shared_ptr@V?$signal0_impl@_NUBooleanAndEventCombiner@app@cinder@@HU?$less@H@std@@V?$function@$$A6A_NXZ@boost@@V?$function@$$A6A_NABVconnection@signals2@boost@@@Z@7@Vmutex@signals2@7@@detail@signals2@boost@@@boost@@QAE@PAV?$signal0_impl@_NUBooleanAndEventCombiner@app@cinder@@HU?$less@H@std@@V?$function@$$A6A_NXZ@boost@@V?$function@$$A6A_NABVconnection@signals2@boost@@@Z@7@Vmutex@signals2@7@@detail@signals2@1@@Z 0040f9b0 f i cinder:AppBasic.obj
 0001:0000ea60       ??$?0V?$signal0_impl@_NUBooleanAndEventCombiner@app@cinder@@HU?$less@H@std@@V?$function@$$A6A_NXZ@boost@@V?$function@$$A6A_NABVconnection@signals2@boost@@@Z@7@Vmutex@signals2@7@@detail@signals2@boost@@@shared_count@detail@boost@@QAE@PAV?$signal0_impl@_NUBooleanAndEventCombiner@app@cinder@@HU?$less@H@std@@V?$function@$$A6A_NXZ@boost@@V?$function@$$A6A_NABVconnection@signals2@boost@@@Z@7@Vmutex@signals2@7@@1signals2@2@@Z 0040fa60 f i cinder:AppBasic.obj
 0001:0000eb00       ??$?0Vinvocation_state@?$signal0_impl@_NUBooleanAndEventCombiner@app@cinder@@HU?$less@H@std@@V?$function@$$A6A_NXZ@boost@@V?$function@$$A6A_NABVconnection@signals2@boost@@@Z@7@Vmutex@signals2@7@@detail@signals2@boost@@@?$shared_ptr@Vinvocation_state@?$signal0_impl@_NUBooleanAndEventCombiner@app@cinder@@HU?$less@H@std@@V?$function@$$A6A_NXZ@boost@@V?$function@$$A6A_NABVconnection@signals2@boost@@@Z@7@Vmutex@signals2@7@@detail@signals2@boost@@@boost@@QAE@PAVinvocation_state@?$signal0_impl@_NUBooleanAndEventCombiner@app@cinder@@HU?$less@H@std@@V?$function@$$A6A_NXZ@boost@@V?$function@$$A6A_NABVconnection@signals2@boost@@@Z@7@Vmutex@signals2@7@@detail@signals2@1@@Z 0040fb00 f i cinder:AppBasic.obj
 0001:0000ebb0       ??$?0Vinvocation_state@?$signal0_impl@_NUBooleanAndEventCombiner@app@cinder@@HU?$less@H@std@@V?$function@$$A6A_NXZ@boost@@V?$function@$$A6A_NABVconnection@signals2@boost@@@Z@7@Vmutex@signals2@7@@detail@signals2@boost@@@shared_count@detail@boost@@QAE@PAVinvocation_state@?$signal0_impl@_NUBooleanAndEventCombiner@app@cinder@@HU?$less@H@std@@V?$function@$$A6A_NXZ@boost@@V?$function@$$A6A_NABVconnection@signals2@boost@@@Z@7@Vmutex@signals2@7@@1signals2@2@@Z 0040fbb0 f i cinder:AppBasic.obj
 0001:0000ec50       ??$_Buynode@AAU?$pair@$$CBU?$pair@W4slot_meta_group@detail@signals2@boost@@V?$optional@H@4@@std@@V?$_List_iterator@V?$_List_val@U?$_List_simple_types@V?$shared_ptr@V?$connection_body@U?$pair@W4slot_meta_group@detail@signals2@boost@@V?$optional@H@4@@std@@V?$slot1@XAAVFileDropEvent@app@cinder@@V?$function@$$A6AXAAVFileDropEvent@app@cinder@@@Z@boost@@@signals2@boost@@Vmutex@45@@detail@signals2@boost@@@boost@@@std@@@std@@@2@@std@@@?$_Tree_buy@U?$pair@$$CBU?$pair@W4slot_meta_group@detail@signals2@boost@@V?$optional@H@4@@std@@V?$_List_iterator@V?$_List_val@U?$_List_simple_types@V?$shared_ptr@V?$connection_body@U?$pair@W4slot_meta_group@detail@signals2@boost@@V?$optional@H@4@@std@@V?$slot1@XAAVFileDropEvent@app@cinder@@V?$function@$$A6AXAAVFileDropEvent@app@cinder@@@Z@boost@@@signals2@boost@@Vmutex@45@@detail@signals2@boost@@@boost@@@std@@@std@@@2@@std@@V?$allocator@U?$pair@$$CBU?$pair@W4slot_meta_group@detail@signals2@boost@@V?$optional@H@4@@std@@V?$_List_iterator@V?$_List_val@U?$_List_simple_types@V?$shared_ptr@V?$connection_body@U?$pair@W4slot_meta_group@detail@signals2@boost@@V?$optional@H@4@@std@@V?$slot1@XAAVFileDropEvent@app@cinder@@V?$function@$$A6AXAAVFileDropEvent@app@cinder@@@Z@boost@@@signals2@boost@@Vmutex@45@@detail@signals2@boost@@@boost@@@std@@@std@@@2@@std@@@2@@std@@QAEPAU?$_Tree_node@U?$pair@$$CBU?$pair@W4slot_meta_group@detail@signals2@boost@@V?$optional@H@4@@std@@V?$_List_iterator@V?$_List_val@U?$_List_simple_types@V?$shared_ptr@V?$connection_body@U?$pair@W4slot_meta_group@detail@signals2@boost@@V?$optional@H@4@@std@@V?$slot1@XAAVFileDropEvent@app@cinder@@V?$function@$$A6AXAAVFileDropEvent@app@cinder@@@Z@boost@@@signals2@boost@@Vmutex@45@@detail@signals2@boost@@@boost@@@std@@@std@@@2@@std@@PAX@1@AAU?$pair@$$CBU?$pair@W4slot_meta_group@detail@signals2@boost@@V?$optional@H@4@@std@@V?$_List_iterator@V?$_List_val@U?$_List_simple_types@V?$shared_ptr@V?$connection_body@U?$pair@W4slot_meta_group@detail@signals2@boost@@V?$optional@H@4@@std@@V?$slot1@XAAVFileDropEvent@app@cinder@@V?$function@$$A6AXAAVFileDropEvent@app@cinder@@@Z@boost@@@signals2@boost@@Vmutex@45@@detail@signals2@boost@@@boost@@@std@@@std@@@2@@1@@Z 0040fc50 f i cinder:Window.obj
 0001:0000ec50       ??$_Buynode@U?$pair@U?$pair@W4slot_meta_group@detail@signals2@boost@@V?$optional@H@4@@std@@V?$_List_iterator@V?$_List_val@U?$_List_simple_types@V?$shared_ptr@V?$connection_body@U?$pair@W4slot_meta_group@detail@signals2@boost@@V?$optional@H@4@@std@@V?$slot1@XAAVTouchEvent@app@cinder@@V?$function@$$A6AXAAVTouchEvent@app@cinder@@@Z@boost@@@signals2@boost@@Vmutex@45@@detail@signals2@boost@@@boost@@@std@@@std@@@2@@std@@@?$_Tree_buy@U?$pair@$$CBU?$pair@W4slot_meta_group@detail@signals2@boost@@V?$optional@H@4@@std@@V?$_List_iterator@V?$_List_val@U?$_List_simple_types@V?$shared_ptr@V?$connection_body@U?$pair@W4slot_meta_group@detail@signals2@boost@@V?$optional@H@4@@std@@V?$slot1@XAAVTouchEvent@app@cinder@@V?$function@$$A6AXAAVTouchEvent@app@cinder@@@Z@boost@@@signals2@boost@@Vmutex@45@@detail@signals2@boost@@@boost@@@std@@@std@@@2@@std@@V?$allocator@U?$pair@$$CBU?$pair@W4slot_meta_group@detail@signals2@boost@@V?$optional@H@4@@std@@V?$_List_iterator@V?$_List_val@U?$_List_simple_types@V?$shared_ptr@V?$connection_body@U?$pair@W4slot_meta_group@detail@signals2@boost@@V?$optional@H@4@@std@@V?$slot1@XAAVTouchEvent@app@cinder@@V?$function@$$A6AXAAVTouchEvent@app@cinder@@@Z@boost@@@signals2@boost@@Vmutex@45@@detail@signals2@boost@@@boost@@@std@@@std@@@2@@std@@@2@@std@@QAEPAU?$_Tree_node@U?$pair@$$CBU?$pair@W4slot_meta_group@detail@signals2@boost@@V?$optional@H@4@@std@@V?$_List_iterator@V?$_List_val@U?$_List_simple_types@V?$shared_ptr@V?$connection_body@U?$pair@W4slot_meta_group@detail@signals2@boost@@V?$optional@H@4@@std@@V?$slot1@XAAVTouchEvent@app@cinder@@V?$function@$$A6AXAAVTouchEvent@app@cinder@@@Z@boost@@@signals2@boost@@Vmutex@45@@detail@signals2@boost@@@boost@@@std@@@std@@@2@@std@@PAX@1@$$QAU?$pair@U?$pair@W4slot_meta_group@detail@signals2@boost@@V?$optional@H@4@@std@@V?$_List_iterator@V?$_List_val@U?$_List_simple_types@V?$shared_ptr@V?$connection_body@U?$pair@W4slot_meta_group@detail@signals2@boost@@V?$optional@H@4@@std@@V?$slot1@XAAVTouchEvent@app@cinder@@V?$function@$$A6AXAAVTouchEvent@app@cinder@@@Z@boost@@@signals2@boost@@Vmutex@45@@detail@signals2@boost@@@boost@@@std@@@std@@@2@@1@@Z 0040fc50 f i cinder:Window.obj
 0001:0000ec50       ??$_Buynode@U?$pair@U?$pair@W4slot_meta_group@detail@signals2@boost@@V?$optional@H@4@@std@@V?$_List_iterator@V?$_List_val@U?$_List_simple_types@V?$shared_ptr@V?$connection_body@U?$pair@W4slot_meta_group@detail@signals2@boost@@V?$optional@H@4@@std@@V?$slot1@XAAVFileDropEvent@app@cinder@@V?$function@$$A6AXAAVFileDropEvent@app@cinder@@@Z@boost@@@signals2@boost@@Vmutex@45@@detail@signals2@boost@@@boost@@@std@@@std@@@2@@std@@@?$_Tree_buy@U?$pair@$$CBU?$pair@W4slot_meta_group@detail@signals2@boost@@V?$optional@H@4@@std@@V?$_List_iterator@V?$_List_val@U?$_List_simple_types@V?$shared_ptr@V?$connection_body@U?$pair@W4slot_meta_group@detail@signals2@boost@@V?$optional@H@4@@std@@V?$slot1@XAAVFileDropEvent@app@cinder@@V?$function@$$A6AXAAVFileDropEvent@app@cinder@@@Z@boost@@@signals2@boost@@Vmutex@45@@detail@signals2@boost@@@boost@@@std@@@std@@@2@@std@@V?$allocator@U?$pair@$$CBU?$pair@W4slot_meta_group@detail@signals2@boost@@V?$optional@H@4@@std@@V?$_List_iterator@V?$_List_val@U?$_List_simple_types@V?$shared_ptr@V?$connection_body@U?$pair@W4slot_meta_group@detail@signals2@boost@@V?$optional@H@4@@std@@V?$slot1@XAAVFileDropEvent@app@cinder@@V?$function@$$A6AXAAVFileDropEvent@app@cinder@@@Z@boost@@@signals2@boost@@Vmutex@45@@detail@signals2@boost@@@boost@@@std@@@std@@@2@@std@@@2@@std@@QAEPAU?$_Tree_node@U?$pair@$$CBU?$pair@W4slot_meta_group@detail@signals2@boost@@V?$optional@H@4@@std@@V?$_List_iterator@V?$_List_val@U?$_List_simple_types@V?$shared_ptr@V?$connection_body@U?$pair@W4slot_meta_group@detail@signals2@boost@@V?$optional@H@4@@std@@V?$slot1@XAAVFileDropEvent@app@cinder@@V?$function@$$A6AXAAVFileDropEvent@app@cinder@@@Z@boost@@@signals2@boost@@Vmutex@45@@detail@signals2@boost@@@boost@@@std@@@std@@@2@@std@@PAX@1@$$QAU?$pair@U?$pair@W4slot_meta_group@detail@signals2@boost@@V?$optional@H@4@@std@@V?$_List_iterator@V?$_List_val@U?$_List_simple_types@V?$shared_ptr@V?$connection_body@U?$pair@W4slot_meta_group@detail@signals2@boost@@V?$optional@H@4@@std@@V?$slot1@XAAVFileDropEvent@app@cinder@@V?$function@$$A6AXAAVFileDropEvent@app@cinder@@@Z@boost@@@signals2@boost@@Vmutex@45@@detail@signals2@boost@@@boost@@@std@@@std@@@2@@1@@Z 0040fc50 f i cinder:Window.obj
 0001:0000ec50       ??$_Buynode@AAU?$pair@$$CBU?$pair@W4slot_meta_group@detail@signals2@boost@@V?$optional@H@4@@std@@V?$_List_iterator@V?$_List_val@U?$_List_simple_types@V?$shared_ptr@V?$connection_body@U?$pair@W4slot_meta_group@detail@signals2@boost@@V?$optional@H@4@@std@@V?$slot1@XAAVMouseEvent@app@cinder@@V?$function@$$A6AXAAVMouseEvent@app@cinder@@@Z@boost@@@signals2@boost@@Vmutex@45@@detail@signals2@boost@@@boost@@@std@@@std@@@2@@std@@@?$_Tree_buy@U?$pair@$$CBU?$pair@W4slot_meta_group@detail@signals2@boost@@V?$optional@H@4@@std@@V?$_List_iterator@V?$_List_val@U?$_List_simple_types@V?$shared_ptr@V?$connection_body@U?$pair@W4slot_meta_group@detail@signals2@boost@@V?$optional@H@4@@std@@V?$slot1@XAAVMouseEvent@app@cinder@@V?$function@$$A6AXAAVMouseEvent@app@cinder@@@Z@boost@@@signals2@boost@@Vmutex@45@@detail@signals2@boost@@@boost@@@std@@@std@@@2@@std@@V?$allocator@U?$pair@$$CBU?$pair@W4slot_meta_group@detail@signals2@boost@@V?$optional@H@4@@std@@V?$_List_iterator@V?$_List_val@U?$_List_simple_types@V?$shared_ptr@V?$connection_body@U?$pair@W4slot_meta_group@detail@signals2@boost@@V?$optional@H@4@@std@@V?$slot1@XAAVMouseEvent@app@cinder@@V?$function@$$A6AXAAVMouseEvent@app@cinder@@@Z@boost@@@signals2@boost@@Vmutex@45@@detail@signals2@boost@@@boost@@@std@@@std@@@2@@std@@@2@@std@@QAEPAU?$_Tree_node@U?$pair@$$CBU?$pair@W4slot_meta_group@detail@signals2@boost@@V?$optional@H@4@@std@@V?$_List_iterator@V?$_List_val@U?$_List_simple_types@V?$shared_ptr@V?$connection_body@U?$pair@W4slot_meta_group@detail@signals2@boost@@V?$optional@H@4@@std@@V?$slot1@XAAVMouseEvent@app@cinder@@V?$function@$$A6AXAAVMouseEvent@app@cinder@@@Z@boost@@@signals2@boost@@Vmutex@45@@detail@signals2@boost@@@boost@@@std@@@std@@@2@@std@@PAX@1@AAU?$pair@$$CBU?$pair@W4slot_meta_group@detail@signals2@boost@@V?$optional@H@4@@std@@V?$_List_iterator@V?$_List_val@U?$_List_simple_types@V?$shared_ptr@V?$connection_body@U?$pair@W4slot_meta_group@detail@signals2@boost@@V?$optional@H@4@@std@@V?$slot1@XAAVMouseEvent@app@cinder@@V?$function@$$A6AXAAVMouseEvent@app@cinder@@@Z@boost@@@signals2@boost@@Vmutex@45@@detail@signals2@boost@@@boost@@@std@@@std@@@2@@1@@Z 0040fc50 f i cinder:Window.obj
 0001:0000ec50       ??$_Buynode@AAU?$pair@$$CBU?$pair@W4slot_meta_group@detail@signals2@boost@@V?$optional@H@4@@std@@V?$_List_iterator@V?$_List_val@U?$_List_simple_types@V?$shared_ptr@V?$connection_body@U?$pair@W4slot_meta_group@detail@signals2@boost@@V?$optional@H@4@@std@@V?$slot1@XAAVKeyEvent@app@cinder@@V?$function@$$A6AXAAVKeyEvent@app@cinder@@@Z@boost@@@signals2@boost@@Vmutex@45@@detail@signals2@boost@@@boost@@@std@@@std@@@2@@std@@@?$_Tree_buy@U?$pair@$$CBU?$pair@W4slot_meta_group@detail@signals2@boost@@V?$optional@H@4@@std@@V?$_List_iterator@V?$_List_val@U?$_List_simple_types@V?$shared_ptr@V?$connection_body@U?$pair@W4slot_meta_group@detail@signals2@boost@@V?$optional@H@4@@std@@V?$slot1@XAAVKeyEvent@app@cinder@@V?$function@$$A6AXAAVKeyEvent@app@cinder@@@Z@boost@@@signals2@boost@@Vmutex@45@@detail@signals2@boost@@@boost@@@std@@@std@@@2@@std@@V?$allocator@U?$pair@$$CBU?$pair@W4slot_meta_group@detail@signals2@boost@@V?$optional@H@4@@std@@V?$_List_iterator@V?$_List_val@U?$_List_simple_types@V?$shared_ptr@V?$connection_body@U?$pair@W4slot_meta_group@detail@signals2@boost@@V?$optional@H@4@@std@@V?$slot1@XAAVKeyEvent@app@cinder@@V?$function@$$A6AXAAVKeyEvent@app@cinder@@@Z@boost@@@signals2@boost@@Vmutex@45@@detail@signals2@boost@@@boost@@@std@@@std@@@2@@std@@@2@@std@@QAEPAU?$_Tree_node@U?$pair@$$CBU?$pair@W4slot_meta_group@detail@signals2@boost@@V?$optional@H@4@@std@@V?$_List_iterator@V?$_List_val@U?$_List_simple_types@V?$shared_ptr@V?$connection_body@U?$pair@W4slot_meta_group@detail@signals2@boost@@V?$optional@H@4@@std@@V?$slot1@XAAVKeyEvent@app@cinder@@V?$function@$$A6AXAAVKeyEvent@app@cinder@@@Z@boost@@@signals2@boost@@Vmutex@45@@detail@signals2@boost@@@boost@@@std@@@std@@@2@@std@@PAX@1@AAU?$pair@$$CBU?$pair@W4slot_meta_group@detail@signals2@boost@@V?$optional@H@4@@std@@V?$_List_iterator@V?$_List_val@U?$_List_simple_types@V?$shared_ptr@V?$connection_body@U?$pair@W4slot_meta_group@detail@signals2@boost@@V?$optional@H@4@@std@@V?$slot1@XAAVKeyEvent@app@cinder@@V?$function@$$A6AXAAVKeyEvent@app@cinder@@@Z@boost@@@signals2@boost@@Vmutex@45@@detail@signals2@boost@@@boost@@@std@@@std@@@2@@1@@Z 0040fc50 f i cinder:Window.obj
 0001:0000ec50       ??$_Buynode@AAU?$pair@$$CBU?$pair@W4slot_meta_group@detail@signals2@boost@@V?$optional@H@4@@std@@V?$_List_iterator@V?$_List_val@U?$_List_simple_types@V?$shared_ptr@V?$connection_body@U?$pair@W4slot_meta_group@detail@signals2@boost@@V?$optional@H@4@@std@@V?$slot0@XV?$function@$$A6AXXZ@boost@@@signals2@boost@@Vmutex@45@@detail@signals2@boost@@@boost@@@std@@@std@@@2@@std@@@?$_Tree_buy@U?$pair@$$CBU?$pair@W4slot_meta_group@detail@signals2@boost@@V?$optional@H@4@@std@@V?$_List_iterator@V?$_List_val@U?$_List_simple_types@V?$shared_ptr@V?$connection_body@U?$pair@W4slot_meta_group@detail@signals2@boost@@V?$optional@H@4@@std@@V?$slot0@XV?$function@$$A6AXXZ@boost@@@signals2@boost@@Vmutex@45@@detail@signals2@boost@@@boost@@@std@@@std@@@2@@std@@V?$allocator@U?$pair@$$CBU?$pair@W4slot_meta_group@detail@signals2@boost@@V?$optional@H@4@@std@@V?$_List_iterator@V?$_List_val@U?$_List_simple_types@V?$shared_ptr@V?$connection_body@U?$pair@W4slot_meta_group@detail@signals2@boost@@V?$optional@H@4@@std@@V?$slot0@XV?$function@$$A6AXXZ@boost@@@signals2@boost@@Vmutex@45@@detail@signals2@boost@@@boost@@@std@@@std@@@2@@std@@@2@@std@@QAEPAU?$_Tree_node@U?$pair@$$CBU?$pair@W4slot_meta_group@detail@signals2@boost@@V?$optional@H@4@@std@@V?$_List_iterator@V?$_List_val@U?$_List_simple_types@V?$shared_ptr@V?$connection_body@U?$pair@W4slot_meta_group@detail@signals2@boost@@V?$optional@H@4@@std@@V?$slot0@XV?$function@$$A6AXXZ@boost@@@signals2@boost@@Vmutex@45@@detail@signals2@boost@@@boost@@@std@@@std@@@2@@std@@PAX@1@AAU?$pair@$$CBU?$pair@W4slot_meta_group@detail@signals2@boost@@V?$optional@H@4@@std@@V?$_List_iterator@V?$_List_val@U?$_List_simple_types@V?$shared_ptr@V?$connection_body@U?$pair@W4slot_meta_group@detail@signals2@boost@@V?$optional@H@4@@std@@V?$slot0@XV?$function@$$A6AXXZ@boost@@@signals2@boost@@Vmutex@45@@detail@signals2@boost@@@boost@@@std@@@std@@@2@@1@@Z 0040fc50 f i cinder:Window.obj
 0001:0000ec50       ??$_Buynode@AAU?$pair@$$CBU?$pair@W4slot_meta_group@detail@signals2@boost@@V?$optional@H@4@@std@@V?$_List_iterator@V?$_List_val@U?$_List_simple_types@V?$shared_ptr@V?$connection_body@U?$pair@W4slot_meta_group@detail@signals2@boost@@V?$optional@H@4@@std@@V?$slot1@XAAVTouchEvent@app@cinder@@V?$function@$$A6AXAAVTouchEvent@app@cinder@@@Z@boost@@@signals2@boost@@Vmutex@45@@detail@signals2@boost@@@boost@@@std@@@std@@@2@@std@@@?$_Tree_buy@U?$pair@$$CBU?$pair@W4slot_meta_group@detail@signals2@boost@@V?$optional@H@4@@std@@V?$_List_iterator@V?$_List_val@U?$_List_simple_types@V?$shared_ptr@V?$connection_body@U?$pair@W4slot_meta_group@detail@signals2@boost@@V?$optional@H@4@@std@@V?$slot1@XAAVTouchEvent@app@cinder@@V?$function@$$A6AXAAVTouchEvent@app@cinder@@@Z@boost@@@signals2@boost@@Vmutex@45@@detail@signals2@boost@@@boost@@@std@@@std@@@2@@std@@V?$allocator@U?$pair@$$CBU?$pair@W4slot_meta_group@detail@signals2@boost@@V?$optional@H@4@@std@@V?$_List_iterator@V?$_List_val@U?$_List_simple_types@V?$shared_ptr@V?$connection_body@U?$pair@W4slot_meta_group@detail@signals2@boost@@V?$optional@H@4@@std@@V?$slot1@XAAVTouchEvent@app@cinder@@V?$function@$$A6AXAAVTouchEvent@app@cinder@@@Z@boost@@@signals2@boost@@Vmutex@45@@detail@signals2@boost@@@boost@@@std@@@std@@@2@@std@@@2@@std@@QAEPAU?$_Tree_node@U?$pair@$$CBU?$pair@W4slot_meta_group@detail@signals2@boost@@V?$optional@H@4@@std@@V?$_List_iterator@V?$_List_val@U?$_List_simple_types@V?$shared_ptr@V?$connection_body@U?$pair@W4slot_meta_group@detail@signals2@boost@@V?$optional@H@4@@std@@V?$slot1@XAAVTouchEvent@app@cinder@@V?$function@$$A6AXAAVTouchEvent@app@cinder@@@Z@boost@@@signals2@boost@@Vmutex@45@@detail@signals2@boost@@@boost@@@std@@@std@@@2@@std@@PAX@1@AAU?$pair@$$CBU?$pair@W4slot_meta_group@detail@signals2@boost@@V?$optional@H@4@@std@@V?$_List_iterator@V?$_List_val@U?$_List_simple_types@V?$shared_ptr@V?$connection_body@U?$pair@W4slot_meta_group@detail@signals2@boost@@V?$optional@H@4@@std@@V?$slot1@XAAVTouchEvent@app@cinder@@V?$function@$$A6AXAAVTouchEvent@app@cinder@@@Z@boost@@@signals2@boost@@Vmutex@45@@detail@signals2@boost@@@boost@@@std@@@std@@@2@@1@@Z 0040fc50 f i cinder:Window.obj
 0001:0000ec50       ??$_Buynode@U?$pair@U?$pair@W4slot_meta_group@detail@signals2@boost@@V?$optional@H@4@@std@@V?$_List_iterator@V?$_List_val@U?$_List_simple_types@V?$shared_ptr@V?$connection_body@U?$pair@W4slot_meta_group@detail@signals2@boost@@V?$optional@H@4@@std@@V?$slot1@XAAVMouseEvent@app@cinder@@V?$function@$$A6AXAAVMouseEvent@app@cinder@@@Z@boost@@@signals2@boost@@Vmutex@45@@detail@signals2@boost@@@boost@@@std@@@std@@@2@@std@@@?$_Tree_buy@U?$pair@$$CBU?$pair@W4slot_meta_group@detail@signals2@boost@@V?$optional@H@4@@std@@V?$_List_iterator@V?$_List_val@U?$_List_simple_types@V?$shared_ptr@V?$connection_body@U?$pair@W4slot_meta_group@detail@signals2@boost@@V?$optional@H@4@@std@@V?$slot1@XAAVMouseEvent@app@cinder@@V?$function@$$A6AXAAVMouseEvent@app@cinder@@@Z@boost@@@signals2@boost@@Vmutex@45@@detail@signals2@boost@@@boost@@@std@@@std@@@2@@std@@V?$allocator@U?$pair@$$CBU?$pair@W4slot_meta_group@detail@signals2@boost@@V?$optional@H@4@@std@@V?$_List_iterator@V?$_List_val@U?$_List_simple_types@V?$shared_ptr@V?$connection_body@U?$pair@W4slot_meta_group@detail@signals2@boost@@V?$optional@H@4@@std@@V?$slot1@XAAVMouseEvent@app@cinder@@V?$function@$$A6AXAAVMouseEvent@app@cinder@@@Z@boost@@@signals2@boost@@Vmutex@45@@detail@signals2@boost@@@boost@@@std@@@std@@@2@@std@@@2@@std@@QAEPAU?$_Tree_node@U?$pair@$$CBU?$pair@W4slot_meta_group@detail@signals2@boost@@V?$optional@H@4@@std@@V?$_List_iterator@V?$_List_val@U?$_List_simple_types@V?$shared_ptr@V?$connection_body@U?$pair@W4slot_meta_group@detail@signals2@boost@@V?$optional@H@4@@std@@V?$slot1@XAAVMouseEvent@app@cinder@@V?$function@$$A6AXAAVMouseEvent@app@cinder@@@Z@boost@@@signals2@boost@@Vmutex@45@@detail@signals2@boost@@@boost@@@std@@@std@@@2@@std@@PAX@1@$$QAU?$pair@U?$pair@W4slot_meta_group@detail@signals2@boost@@V?$optional@H@4@@std@@V?$_List_iterator@V?$_List_val@U?$_List_simple_types@V?$shared_ptr@V?$connection_body@U?$pair@W4slot_meta_group@detail@signals2@boost@@V?$optional@H@4@@std@@V?$slot1@XAAVMouseEvent@app@cinder@@V?$function@$$A6AXAAVMouseEvent@app@cinder@@@Z@boost@@@signals2@boost@@Vmutex@45@@detail@signals2@boost@@@boost@@@std@@@std@@@2@@1@@Z 0040fc50 f i cinder:Window.obj
 0001:0000ec50       ??$_Buynode@U?$pair@U?$pair@W4slot_meta_group@detail@signals2@boost@@V?$optional@H@4@@std@@V?$_List_iterator@V?$_List_val@U?$_List_simple_types@V?$shared_ptr@V?$connection_body@U?$pair@W4slot_meta_group@detail@signals2@boost@@V?$optional@H@4@@std@@V?$slot1@XAAVKeyEvent@app@cinder@@V?$function@$$A6AXAAVKeyEvent@app@cinder@@@Z@boost@@@signals2@boost@@Vmutex@45@@detail@signals2@boost@@@boost@@@std@@@std@@@2@@std@@@?$_Tree_buy@U?$pair@$$CBU?$pair@W4slot_meta_group@detail@signals2@boost@@V?$optional@H@4@@std@@V?$_List_iterator@V?$_List_val@U?$_List_simple_types@V?$shared_ptr@V?$connection_body@U?$pair@W4slot_meta_group@detail@signals2@boost@@V?$optional@H@4@@std@@V?$slot1@XAAVKeyEvent@app@cinder@@V?$function@$$A6AXAAVKeyEvent@app@cinder@@@Z@boost@@@signals2@boost@@Vmutex@45@@detail@signals2@boost@@@boost@@@std@@@std@@@2@@std@@V?$allocator@U?$pair@$$CBU?$pair@W4slot_meta_group@detail@signals2@boost@@V?$optional@H@4@@std@@V?$_List_iterator@V?$_List_val@U?$_List_simple_types@V?$shared_ptr@V?$connection_body@U?$pair@W4slot_meta_group@detail@signals2@boost@@V?$optional@H@4@@std@@V?$slot1@XAAVKeyEvent@app@cinder@@V?$function@$$A6AXAAVKeyEvent@app@cinder@@@Z@boost@@@signals2@boost@@Vmutex@45@@detail@signals2@boost@@@boost@@@std@@@std@@@2@@std@@@2@@std@@QAEPAU?$_Tree_node@U?$pair@$$CBU?$pair@W4slot_meta_group@detail@signals2@boost@@V?$optional@H@4@@std@@V?$_List_iterator@V?$_List_val@U?$_List_simple_types@V?$shared_ptr@V?$connection_body@U?$pair@W4slot_meta_group@detail@signals2@boost@@V?$optional@H@4@@std@@V?$slot1@XAAVKeyEvent@app@cinder@@V?$function@$$A6AXAAVKeyEvent@app@cinder@@@Z@boost@@@signals2@boost@@Vmutex@45@@detail@signals2@boost@@@boost@@@std@@@std@@@2@@std@@PAX@1@$$QAU?$pair@U?$pair@W4slot_meta_group@detail@signals2@boost@@V?$optional@H@4@@std@@V?$_List_iterator@V?$_List_val@U?$_List_simple_types@V?$shared_ptr@V?$connection_body@U?$pair@W4slot_meta_group@detail@signals2@boost@@V?$optional@H@4@@std@@V?$slot1@XAAVKeyEvent@app@cinder@@V?$function@$$A6AXAAVKeyEvent@app@cinder@@@Z@boost@@@signals2@boost@@Vmutex@45@@detail@signals2@boost@@@boost@@@std@@@std@@@2@@1@@Z 0040fc50 f i cinder:Window.obj
 0001:0000ec50       ??$_Buynode@U?$pair@U?$pair@W4slot_meta_group@detail@signals2@boost@@V?$optional@H@4@@std@@V?$_List_iterator@V?$_List_val@U?$_List_simple_types@V?$shared_ptr@V?$connection_body@U?$pair@W4slot_meta_group@detail@signals2@boost@@V?$optional@H@4@@std@@V?$slot0@XV?$function@$$A6AXXZ@boost@@@signals2@boost@@Vmutex@45@@detail@signals2@boost@@@boost@@@std@@@std@@@2@@std@@@?$_Tree_buy@U?$pair@$$CBU?$pair@W4slot_meta_group@detail@signals2@boost@@V?$optional@H@4@@std@@V?$_List_iterator@V?$_List_val@U?$_List_simple_types@V?$shared_ptr@V?$connection_body@U?$pair@W4slot_meta_group@detail@signals2@boost@@V?$optional@H@4@@std@@V?$slot0@XV?$function@$$A6AXXZ@boost@@@signals2@boost@@Vmutex@45@@detail@signals2@boost@@@boost@@@std@@@std@@@2@@std@@V?$allocator@U?$pair@$$CBU?$pair@W4slot_meta_group@detail@signals2@boost@@V?$optional@H@4@@std@@V?$_List_iterator@V?$_List_val@U?$_List_simple_types@V?$shared_ptr@V?$connection_body@U?$pair@W4slot_meta_group@detail@signals2@boost@@V?$optional@H@4@@std@@V?$slot0@XV?$function@$$A6AXXZ@boost@@@signals2@boost@@Vmutex@45@@detail@signals2@boost@@@boost@@@std@@@std@@@2@@std@@@2@@std@@QAEPAU?$_Tree_node@U?$pair@$$CBU?$pair@W4slot_meta_group@detail@signals2@boost@@V?$optional@H@4@@std@@V?$_List_iterator@V?$_List_val@U?$_List_simple_types@V?$shared_ptr@V?$connection_body@U?$pair@W4slot_meta_group@detail@signals2@boost@@V?$optional@H@4@@std@@V?$slot0@XV?$function@$$A6AXXZ@boost@@@signals2@boost@@Vmutex@45@@detail@signals2@boost@@@boost@@@std@@@std@@@2@@std@@PAX@1@$$QAU?$pair@U?$pair@W4slot_meta_group@detail@signals2@boost@@V?$optional@H@4@@std@@V?$_List_iterator@V?$_List_val@U?$_List_simple_types@V?$shared_ptr@V?$connection_body@U?$pair@W4slot_meta_group@detail@signals2@boost@@V?$optional@H@4@@std@@V?$slot0@XV?$function@$$A6AXXZ@boost@@@signals2@boost@@Vmutex@45@@detail@signals2@boost@@@boost@@@std@@@std@@@2@@1@@Z 0040fc50 f i cinder:Window.obj
 0001:0000ec50       ??$_Buynode@AAU?$pair@$$CBU?$pair@W4slot_meta_group@detail@signals2@boost@@V?$optional@H@4@@std@@V?$_List_iterator@V?$_List_val@U?$_List_simple_types@V?$shared_ptr@V?$connection_body@U?$pair@W4slot_meta_group@detail@signals2@boost@@V?$optional@H@4@@std@@V?$slot0@_NV?$function@$$A6A_NXZ@boost@@@signals2@boost@@Vmutex@45@@detail@signals2@boost@@@boost@@@std@@@std@@@2@@std@@@?$_Tree_buy@U?$pair@$$CBU?$pair@W4slot_meta_group@detail@signals2@boost@@V?$optional@H@4@@std@@V?$_List_iterator@V?$_List_val@U?$_List_simple_types@V?$shared_ptr@V?$connection_body@U?$pair@W4slot_meta_group@detail@signals2@boost@@V?$optional@H@4@@std@@V?$slot0@_NV?$function@$$A6A_NXZ@boost@@@signals2@boost@@Vmutex@45@@detail@signals2@boost@@@boost@@@std@@@std@@@2@@std@@V?$allocator@U?$pair@$$CBU?$pair@W4slot_meta_group@detail@signals2@boost@@V?$optional@H@4@@std@@V?$_List_iterator@V?$_List_val@U?$_List_simple_types@V?$shared_ptr@V?$connection_body@U?$pair@W4slot_meta_group@detail@signals2@boost@@V?$optional@H@4@@std@@V?$slot0@_NV?$function@$$A6A_NXZ@boost@@@signals2@boost@@Vmutex@45@@detail@signals2@boost@@@boost@@@std@@@std@@@2@@std@@@2@@std@@QAEPAU?$_Tree_node@U?$pair@$$CBU?$pair@W4slot_meta_group@detail@signals2@boost@@V?$optional@H@4@@std@@V?$_List_iterator@V?$_List_val@U?$_List_simple_types@V?$shared_ptr@V?$connection_body@U?$pair@W4slot_meta_group@detail@signals2@boost@@V?$optional@H@4@@std@@V?$slot0@_NV?$function@$$A6A_NXZ@boost@@@signals2@boost@@Vmutex@45@@detail@signals2@boost@@@boost@@@std@@@std@@@2@@std@@PAX@1@AAU?$pair@$$CBU?$pair@W4slot_meta_group@detail@signals2@boost@@V?$optional@H@4@@std@@V?$_List_iterator@V?$_List_val@U?$_List_simple_types@V?$shared_ptr@V?$connection_body@U?$pair@W4slot_meta_group@detail@signals2@boost@@V?$optional@H@4@@std@@V?$slot0@_NV?$function@$$A6A_NXZ@boost@@@signals2@boost@@Vmutex@45@@detail@signals2@boost@@@boost@@@std@@@std@@@2@@1@@Z 0040fc50 f i cinder:AppBasic.obj
 0001:0000eca0       ??$_Copy@U?$integral_constant@_N$0A@@std@@@?$_Tree@V?$_Tmap_traits@U?$pair@W4slot_meta_group@detail@signals2@boost@@V?$optional@H@4@@std@@V?$_List_iterator@V?$_List_val@U?$_List_simple_types@V?$shared_ptr@V?$connection_body@U?$pair@W4slot_meta_group@detail@signals2@boost@@V?$optional@H@4@@std@@V?$slot0@XV?$function@$$A6AXXZ@boost@@@signals2@boost@@Vmutex@45@@detail@signals2@boost@@@boost@@@std@@@std@@@2@V?$group_key_less@HU?$less@H@std@@@detail@signals2@boost@@V?$allocator@U?$pair@$$CBU?$pair@W4slot_meta_group@detail@signals2@boost@@V?$optional@H@4@@std@@V?$_List_iterator@V?$_List_val@U?$_List_simple_types@V?$shared_ptr@V?$connection_body@U?$pair@W4slot_meta_group@detail@signals2@boost@@V?$optional@H@4@@std@@V?$slot0@XV?$function@$$A6AXXZ@boost@@@signals2@boost@@Vmutex@45@@detail@signals2@boost@@@boost@@@std@@@std@@@2@@std@@@2@$0A@@std@@@std@@IAEXABV01@U?$integral_constant@_N$0A@@1@@Z 0040fca0 f i cinder:Window.obj
 0001:0000eca0       ??$_Copy@U?$integral_constant@_N$0A@@std@@@?$_Tree@V?$_Tmap_traits@U?$pair@W4slot_meta_group@detail@signals2@boost@@V?$optional@H@4@@std@@V?$_List_iterator@V?$_List_val@U?$_List_simple_types@V?$shared_ptr@V?$connection_body@U?$pair@W4slot_meta_group@detail@signals2@boost@@V?$optional@H@4@@std@@V?$slot1@XAAVMouseEvent@app@cinder@@V?$function@$$A6AXAAVMouseEvent@app@cinder@@@Z@boost@@@signals2@boost@@Vmutex@45@@detail@signals2@boost@@@boost@@@std@@@std@@@2@V?$group_key_less@HU?$less@H@std@@@detail@signals2@boost@@V?$allocator@U?$pair@$$CBU?$pair@W4slot_meta_group@detail@signals2@boost@@V?$optional@H@4@@std@@V?$_List_iterator@V?$_List_val@U?$_List_simple_types@V?$shared_ptr@V?$connection_body@U?$pair@W4slot_meta_group@detail@signals2@boost@@V?$optional@H@4@@std@@V?$slot1@XAAVMouseEvent@app@cinder@@V?$function@$$A6AXAAVMouseEvent@app@cinder@@@Z@boost@@@signals2@boost@@Vmutex@45@@detail@signals2@boost@@@boost@@@std@@@std@@@2@@std@@@2@$0A@@std@@@std@@IAEXABV01@U?$integral_constant@_N$0A@@1@@Z 0040fca0 f i cinder:Window.obj
 0001:0000eca0       ??$_Copy@U?$integral_constant@_N$0A@@std@@@?$_Tree@V?$_Tmap_traits@U?$pair@W4slot_meta_group@detail@signals2@boost@@V?$optional@H@4@@std@@V?$_List_iterator@V?$_List_val@U?$_List_simple_types@V?$shared_ptr@V?$connection_body@U?$pair@W4slot_meta_group@detail@signals2@boost@@V?$optional@H@4@@std@@V?$slot1@XAAVTouchEvent@app@cinder@@V?$function@$$A6AXAAVTouchEvent@app@cinder@@@Z@boost@@@signals2@boost@@Vmutex@45@@detail@signals2@boost@@@boost@@@std@@@std@@@2@V?$group_key_less@HU?$less@H@std@@@detail@signals2@boost@@V?$allocator@U?$pair@$$CBU?$pair@W4slot_meta_group@detail@signals2@boost@@V?$optional@H@4@@std@@V?$_List_iterator@V?$_List_val@U?$_List_simple_types@V?$shared_ptr@V?$connection_body@U?$pair@W4slot_meta_group@detail@signals2@boost@@V?$optional@H@4@@std@@V?$slot1@XAAVTouchEvent@app@cinder@@V?$function@$$A6AXAAVTouchEvent@app@cinder@@@Z@boost@@@signals2@boost@@Vmutex@45@@detail@signals2@boost@@@boost@@@std@@@std@@@2@@std@@@2@$0A@@std@@@std@@IAEXABV01@U?$integral_constant@_N$0A@@1@@Z 0040fca0 f i cinder:Window.obj
 0001:0000eca0       ??$_Copy@U?$integral_constant@_N$0A@@std@@@?$_Tree@V?$_Tmap_traits@U?$pair@W4slot_meta_group@detail@signals2@boost@@V?$optional@H@4@@std@@V?$_List_iterator@V?$_List_val@U?$_List_simple_types@V?$shared_ptr@V?$connection_body@U?$pair@W4slot_meta_group@detail@signals2@boost@@V?$optional@H@4@@std@@V?$slot0@_NV?$function@$$A6A_NXZ@boost@@@signals2@boost@@Vmutex@45@@detail@signals2@boost@@@boost@@@std@@@std@@@2@V?$group_key_less@HU?$less@H@std@@@detail@signals2@boost@@V?$allocator@U?$pair@$$CBU?$pair@W4slot_meta_group@detail@signals2@boost@@V?$optional@H@4@@std@@V?$_List_iterator@V?$_List_val@U?$_List_simple_types@V?$shared_ptr@V?$connection_body@U?$pair@W4slot_meta_group@detail@signals2@boost@@V?$optional@H@4@@std@@V?$slot0@_NV?$function@$$A6A_NXZ@boost@@@signals2@boost@@Vmutex@45@@detail@signals2@boost@@@boost@@@std@@@std@@@2@@std@@@2@$0A@@std@@@std@@IAEXABV01@U?$integral_constant@_N$0A@@1@@Z 0040fca0 f i cinder:AppBasic.obj
 0001:0000eca0       ??$_Copy@U?$integral_constant@_N$0A@@std@@@?$_Tree@V?$_Tmap_traits@U?$pair@W4slot_meta_group@detail@signals2@boost@@V?$optional@H@4@@std@@V?$_List_iterator@V?$_List_val@U?$_List_simple_types@V?$shared_ptr@V?$connection_body@U?$pair@W4slot_meta_group@detail@signals2@boost@@V?$optional@H@4@@std@@V?$slot1@XAAVKeyEvent@app@cinder@@V?$function@$$A6AXAAVKeyEvent@app@cinder@@@Z@boost@@@signals2@boost@@Vmutex@45@@detail@signals2@boost@@@boost@@@std@@@std@@@2@V?$group_key_less@HU?$less@H@std@@@detail@signals2@boost@@V?$allocator@U?$pair@$$CBU?$pair@W4slot_meta_group@detail@signals2@boost@@V?$optional@H@4@@std@@V?$_List_iterator@V?$_List_val@U?$_List_simple_types@V?$shared_ptr@V?$connection_body@U?$pair@W4slot_meta_group@detail@signals2@boost@@V?$optional@H@4@@std@@V?$slot1@XAAVKeyEvent@app@cinder@@V?$function@$$A6AXAAVKeyEvent@app@cinder@@@Z@boost@@@signals2@boost@@Vmutex@45@@detail@signals2@boost@@@boost@@@std@@@std@@@2@@std@@@2@$0A@@std@@@std@@IAEXABV01@U?$integral_constant@_N$0A@@1@@Z 0040fca0 f i cinder:Window.obj
 0001:0000eca0       ??$_Copy@U?$integral_constant@_N$0A@@std@@@?$_Tree@V?$_Tmap_traits@U?$pair@W4slot_meta_group@detail@signals2@boost@@V?$optional@H@4@@std@@V?$_List_iterator@V?$_List_val@U?$_List_simple_types@V?$shared_ptr@V?$connection_body@U?$pair@W4slot_meta_group@detail@signals2@boost@@V?$optional@H@4@@std@@V?$slot1@XAAVFileDropEvent@app@cinder@@V?$function@$$A6AXAAVFileDropEvent@app@cinder@@@Z@boost@@@signals2@boost@@Vmutex@45@@detail@signals2@boost@@@boost@@@std@@@std@@@2@V?$group_key_less@HU?$less@H@std@@@detail@signals2@boost@@V?$allocator@U?$pair@$$CBU?$pair@W4slot_meta_group@detail@signals2@boost@@V?$optional@H@4@@std@@V?$_List_iterator@V?$_List_val@U?$_List_simple_types@V?$shared_ptr@V?$connection_body@U?$pair@W4slot_meta_group@detail@signals2@boost@@V?$optional@H@4@@std@@V?$slot1@XAAVFileDropEvent@app@cinder@@V?$function@$$A6AXAAVFileDropEvent@app@cinder@@@Z@boost@@@signals2@boost@@Vmutex@45@@detail@signals2@boost@@@boost@@@std@@@std@@@2@@std@@@2@$0A@@std@@@std@@IAEXABV01@U?$integral_constant@_N$0A@@1@@Z 0040fca0 f i cinder:Window.obj
 0001:0000ed20       ??$_Copy_nodes@U?$integral_constant@_N$0A@@std@@@?$_Tree@V?$_Tmap_traits@U?$pair@W4slot_meta_group@detail@signals2@boost@@V?$optional@H@4@@std@@V?$_List_iterator@V?$_List_val@U?$_List_simple_types@V?$shared_ptr@V?$connection_body@U?$pair@W4slot_meta_group@detail@signals2@boost@@V?$optional@H@4@@std@@V?$slot0@_NV?$function@$$A6A_NXZ@boost@@@signals2@boost@@Vmutex@45@@detail@signals2@boost@@@boost@@@std@@@std@@@2@V?$group_key_less@HU?$less@H@std@@@detail@signals2@boost@@V?$allocator@U?$pair@$$CBU?$pair@W4slot_meta_group@detail@signals2@boost@@V?$optional@H@4@@std@@V?$_List_iterator@V?$_List_val@U?$_List_simple_types@V?$shared_ptr@V?$connection_body@U?$pair@W4slot_meta_group@detail@signals2@boost@@V?$optional@H@4@@std@@V?$slot0@_NV?$function@$$A6A_NXZ@boost@@@signals2@boost@@Vmutex@45@@detail@signals2@boost@@@boost@@@std@@@std@@@2@@std@@@2@$0A@@std@@@std@@IAEPAU?$_Tree_node@U?$pair@$$CBU?$pair@W4slot_meta_group@detail@signals2@boost@@V?$optional@H@4@@std@@V?$_List_iterator@V?$_List_val@U?$_List_simple_types@V?$shared_ptr@V?$connection_body@U?$pair@W4slot_meta_group@detail@signals2@boost@@V?$optional@H@4@@std@@V?$slot0@_NV?$function@$$A6A_NXZ@boost@@@signals2@boost@@Vmutex@45@@detail@signals2@boost@@@boost@@@std@@@std@@@2@@std@@PAX@1@PAU21@0U?$integral_constant@_N$0A@@1@@Z 0040fd20 f i cinder:AppBasic.obj
 0001:0000ed20       ??$_Copy_nodes@U?$integral_constant@_N$0A@@std@@@?$_Tree@V?$_Tmap_traits@U?$pair@W4slot_meta_group@detail@signals2@boost@@V?$optional@H@4@@std@@V?$_List_iterator@V?$_List_val@U?$_List_simple_types@V?$shared_ptr@V?$connection_body@U?$pair@W4slot_meta_group@detail@signals2@boost@@V?$optional@H@4@@std@@V?$slot1@XAAVMouseEvent@app@cinder@@V?$function@$$A6AXAAVMouseEvent@app@cinder@@@Z@boost@@@signals2@boost@@Vmutex@45@@detail@signals2@boost@@@boost@@@std@@@std@@@2@V?$group_key_less@HU?$less@H@std@@@detail@signals2@boost@@V?$allocator@U?$pair@$$CBU?$pair@W4slot_meta_group@detail@signals2@boost@@V?$optional@H@4@@std@@V?$_List_iterator@V?$_List_val@U?$_List_simple_types@V?$shared_ptr@V?$connection_body@U?$pair@W4slot_meta_group@detail@signals2@boost@@V?$optional@H@4@@std@@V?$slot1@XAAVMouseEvent@app@cinder@@V?$function@$$A6AXAAVMouseEvent@app@cinder@@@Z@boost@@@signals2@boost@@Vmutex@45@@detail@signals2@boost@@@boost@@@std@@@std@@@2@@std@@@2@$0A@@std@@@std@@IAEPAU?$_Tree_node@U?$pair@$$CBU?$pair@W4slot_meta_group@detail@signals2@boost@@V?$optional@H@4@@std@@V?$_List_iterator@V?$_List_val@U?$_List_simple_types@V?$shared_ptr@V?$connection_body@U?$pair@W4slot_meta_group@detail@signals2@boost@@V?$optional@H@4@@std@@V?$slot1@XAAVMouseEvent@app@cinder@@V?$function@$$A6AXAAVMouseEvent@app@cinder@@@Z@boost@@@signals2@boost@@Vmutex@45@@detail@signals2@boost@@@boost@@@std@@@std@@@2@@std@@PAX@1@PAU21@0U?$integral_constant@_N$0A@@1@@Z 0040fd20 f i cinder:Window.obj
 0001:0000ed20       ??$_Copy_nodes@U?$integral_constant@_N$0A@@std@@@?$_Tree@V?$_Tmap_traits@U?$pair@W4slot_meta_group@detail@signals2@boost@@V?$optional@H@4@@std@@V?$_List_iterator@V?$_List_val@U?$_List_simple_types@V?$shared_ptr@V?$connection_body@U?$pair@W4slot_meta_group@detail@signals2@boost@@V?$optional@H@4@@std@@V?$slot1@XAAVTouchEvent@app@cinder@@V?$function@$$A6AXAAVTouchEvent@app@cinder@@@Z@boost@@@signals2@boost@@Vmutex@45@@detail@signals2@boost@@@boost@@@std@@@std@@@2@V?$group_key_less@HU?$less@H@std@@@detail@signals2@boost@@V?$allocator@U?$pair@$$CBU?$pair@W4slot_meta_group@detail@signals2@boost@@V?$optional@H@4@@std@@V?$_List_iterator@V?$_List_val@U?$_List_simple_types@V?$shared_ptr@V?$connection_body@U?$pair@W4slot_meta_group@detail@signals2@boost@@V?$optional@H@4@@std@@V?$slot1@XAAVTouchEvent@app@cinder@@V?$function@$$A6AXAAVTouchEvent@app@cinder@@@Z@boost@@@signals2@boost@@Vmutex@45@@detail@signals2@boost@@@boost@@@std@@@std@@@2@@std@@@2@$0A@@std@@@std@@IAEPAU?$_Tree_node@U?$pair@$$CBU?$pair@W4slot_meta_group@detail@signals2@boost@@V?$optional@H@4@@std@@V?$_List_iterator@V?$_List_val@U?$_List_simple_types@V?$shared_ptr@V?$connection_body@U?$pair@W4slot_meta_group@detail@signals2@boost@@V?$optional@H@4@@std@@V?$slot1@XAAVTouchEvent@app@cinder@@V?$function@$$A6AXAAVTouchEvent@app@cinder@@@Z@boost@@@signals2@boost@@Vmutex@45@@detail@signals2@boost@@@boost@@@std@@@std@@@2@@std@@PAX@1@PAU21@0U?$integral_constant@_N$0A@@1@@Z 0040fd20 f i cinder:Window.obj
 0001:0000ed20       ??$_Copy_nodes@U?$integral_constant@_N$0A@@std@@@?$_Tree@V?$_Tmap_traits@U?$pair@W4slot_meta_group@detail@signals2@boost@@V?$optional@H@4@@std@@V?$_List_iterator@V?$_List_val@U?$_List_simple_types@V?$shared_ptr@V?$connection_body@U?$pair@W4slot_meta_group@detail@signals2@boost@@V?$optional@H@4@@std@@V?$slot1@XAAVFileDropEvent@app@cinder@@V?$function@$$A6AXAAVFileDropEvent@app@cinder@@@Z@boost@@@signals2@boost@@Vmutex@45@@detail@signals2@boost@@@boost@@@std@@@std@@@2@V?$group_key_less@HU?$less@H@std@@@detail@signals2@boost@@V?$allocator@U?$pair@$$CBU?$pair@W4slot_meta_group@detail@signals2@boost@@V?$optional@H@4@@std@@V?$_List_iterator@V?$_List_val@U?$_List_simple_types@V?$shared_ptr@V?$connection_body@U?$pair@W4slot_meta_group@detail@signals2@boost@@V?$optional@H@4@@std@@V?$slot1@XAAVFileDropEvent@app@cinder@@V?$function@$$A6AXAAVFileDropEvent@app@cinder@@@Z@boost@@@signals2@boost@@Vmutex@45@@detail@signals2@boost@@@boost@@@std@@@std@@@2@@std@@@2@$0A@@std@@@std@@IAEPAU?$_Tree_node@U?$pair@$$CBU?$pair@W4slot_meta_group@detail@signals2@boost@@V?$optional@H@4@@std@@V?$_List_iterator@V?$_List_val@U?$_List_simple_types@V?$shared_ptr@V?$connection_body@U?$pair@W4slot_meta_group@detail@signals2@boost@@V?$optional@H@4@@std@@V?$slot1@XAAVFileDropEvent@app@cinder@@V?$function@$$A6AXAAVFileDropEvent@app@cinder@@@Z@boost@@@signals2@boost@@Vmutex@45@@detail@signals2@boost@@@boost@@@std@@@std@@@2@@std@@PAX@1@PAU21@0U?$integral_constant@_N$0A@@1@@Z 0040fd20 f i cinder:Window.obj
 0001:0000ed20       ??$_Copy_nodes@U?$integral_constant@_N$0A@@std@@@?$_Tree@V?$_Tmap_traits@U?$pair@W4slot_meta_group@detail@signals2@boost@@V?$optional@H@4@@std@@V?$_List_iterator@V?$_List_val@U?$_List_simple_types@V?$shared_ptr@V?$connection_body@U?$pair@W4slot_meta_group@detail@signals2@boost@@V?$optional@H@4@@std@@V?$slot1@XAAVKeyEvent@app@cinder@@V?$function@$$A6AXAAVKeyEvent@app@cinder@@@Z@boost@@@signals2@boost@@Vmutex@45@@detail@signals2@boost@@@boost@@@std@@@std@@@2@V?$group_key_less@HU?$less@H@std@@@detail@signals2@boost@@V?$allocator@U?$pair@$$CBU?$pair@W4slot_meta_group@detail@signals2@boost@@V?$optional@H@4@@std@@V?$_List_iterator@V?$_List_val@U?$_List_simple_types@V?$shared_ptr@V?$connection_body@U?$pair@W4slot_meta_group@detail@signals2@boost@@V?$optional@H@4@@std@@V?$slot1@XAAVKeyEvent@app@cinder@@V?$function@$$A6AXAAVKeyEvent@app@cinder@@@Z@boost@@@signals2@boost@@Vmutex@45@@detail@signals2@boost@@@boost@@@std@@@std@@@2@@std@@@2@$0A@@std@@@std@@IAEPAU?$_Tree_node@U?$pair@$$CBU?$pair@W4slot_meta_group@detail@signals2@boost@@V?$optional@H@4@@std@@V?$_List_iterator@V?$_List_val@U?$_List_simple_types@V?$shared_ptr@V?$connection_body@U?$pair@W4slot_meta_group@detail@signals2@boost@@V?$optional@H@4@@std@@V?$slot1@XAAVKeyEvent@app@cinder@@V?$function@$$A6AXAAVKeyEvent@app@cinder@@@Z@boost@@@signals2@boost@@Vmutex@45@@detail@signals2@boost@@@boost@@@std@@@std@@@2@@std@@PAX@1@PAU21@0U?$integral_constant@_N$0A@@1@@Z 0040fd20 f i cinder:Window.obj
 0001:0000ed20       ??$_Copy_nodes@U?$integral_constant@_N$0A@@std@@@?$_Tree@V?$_Tmap_traits@U?$pair@W4slot_meta_group@detail@signals2@boost@@V?$optional@H@4@@std@@V?$_List_iterator@V?$_List_val@U?$_List_simple_types@V?$shared_ptr@V?$connection_body@U?$pair@W4slot_meta_group@detail@signals2@boost@@V?$optional@H@4@@std@@V?$slot0@XV?$function@$$A6AXXZ@boost@@@signals2@boost@@Vmutex@45@@detail@signals2@boost@@@boost@@@std@@@std@@@2@V?$group_key_less@HU?$less@H@std@@@detail@signals2@boost@@V?$allocator@U?$pair@$$CBU?$pair@W4slot_meta_group@detail@signals2@boost@@V?$optional@H@4@@std@@V?$_List_iterator@V?$_List_val@U?$_List_simple_types@V?$shared_ptr@V?$connection_body@U?$pair@W4slot_meta_group@detail@signals2@boost@@V?$optional@H@4@@std@@V?$slot0@XV?$function@$$A6AXXZ@boost@@@signals2@boost@@Vmutex@45@@detail@signals2@boost@@@boost@@@std@@@std@@@2@@std@@@2@$0A@@std@@@std@@IAEPAU?$_Tree_node@U?$pair@$$CBU?$pair@W4slot_meta_group@detail@signals2@boost@@V?$optional@H@4@@std@@V?$_List_iterator@V?$_List_val@U?$_List_simple_types@V?$shared_ptr@V?$connection_body@U?$pair@W4slot_meta_group@detail@signals2@boost@@V?$optional@H@4@@std@@V?$slot0@XV?$function@$$A6AXXZ@boost@@@signals2@boost@@Vmutex@45@@detail@signals2@boost@@@boost@@@std@@@std@@@2@@std@@PAX@1@PAU21@0U?$integral_constant@_N$0A@@1@@Z 0040fd20 f i cinder:Window.obj
 0001:0000ede0       ??$_Resetp@V?$basic_ostream@DU?$char_traits@D@std@@@std@@V<lambda_69588d13dcacf0fdf4c116f96accf98f>@@@?$shared_ptr@V?$basic_ostream@DU?$char_traits@D@std@@@std@@@std@@AAEXPAV?$basic_ostream@DU?$char_traits@D@std@@@1@V<lambda_69588d13dcacf0fdf4c116f96accf98f>@@@Z 0040fde0 f i cinder:AppBasic.obj
 0001:0000eea0       ??$_Uninit_move@PAV?$basic_string@DU?$char_traits@D@std@@V?$allocator@D@2@@std@@PAV12@V?$allocator@V?$basic_string@DU?$char_traits@D@std@@V?$allocator@D@2@@std@@@2@V12@@std@@YAPAV?$basic_string@DU?$char_traits@D@std@@V?$allocator@D@2@@0@PAV10@00AAU?$_Wrap_alloc@V?$allocator@V?$basic_string@DU?$char_traits@D@std@@V?$allocator@D@2@@std@@@std@@@0@0U_Nonscalar_ptr_iterator_tag@0@@Z 0040fea0 f i cinder:AppBasic.obj
 0001:0000ef30       ??$checked_delete@V?$grouped_list@HU?$less@H@std@@V?$shared_ptr@V?$connection_body@U?$pair@W4slot_meta_group@detail@signals2@boost@@V?$optional@H@4@@std@@V?$slot0@XV?$function@$$A6AXXZ@boost@@@signals2@boost@@Vmutex@45@@detail@signals2@boost@@@boost@@@detail@signals2@boost@@@boost@@YAXPAV?$grouped_list@HU?$less@H@std@@V?$shared_ptr@V?$connection_body@U?$pair@W4slot_meta_group@detail@signals2@boost@@V?$optional@H@4@@std@@V?$slot0@XV?$function@$$A6AXXZ@boost@@@signals2@boost@@Vmutex@45@@detail@signals2@boost@@@boost@@@detail@signals2@0@@Z 0040ff30 f i cinder:Window.obj
 0001:0000ef30       ??$checked_delete@V?$grouped_list@HU?$less@H@std@@V?$shared_ptr@V?$connection_body@U?$pair@W4slot_meta_group@detail@signals2@boost@@V?$optional@H@4@@std@@V?$slot1@XAAVKeyEvent@app@cinder@@V?$function@$$A6AXAAVKeyEvent@app@cinder@@@Z@boost@@@signals2@boost@@Vmutex@45@@detail@signals2@boost@@@boost@@@detail@signals2@boost@@@boost@@YAXPAV?$grouped_list@HU?$less@H@std@@V?$shared_ptr@V?$connection_body@U?$pair@W4slot_meta_group@detail@signals2@boost@@V?$optional@H@4@@std@@V?$slot1@XAAVKeyEvent@app@cinder@@V?$function@$$A6AXAAVKeyEvent@app@cinder@@@Z@boost@@@signals2@boost@@Vmutex@45@@detail@signals2@boost@@@boost@@@detail@signals2@0@@Z 0040ff30 f i cinder:Window.obj
 0001:0000ef30       ??$checked_delete@V?$grouped_list@HU?$less@H@std@@V?$shared_ptr@V?$connection_body@U?$pair@W4slot_meta_group@detail@signals2@boost@@V?$optional@H@4@@std@@V?$slot1@XAAVTouchEvent@app@cinder@@V?$function@$$A6AXAAVTouchEvent@app@cinder@@@Z@boost@@@signals2@boost@@Vmutex@45@@detail@signals2@boost@@@boost@@@detail@signals2@boost@@@boost@@YAXPAV?$grouped_list@HU?$less@H@std@@V?$shared_ptr@V?$connection_body@U?$pair@W4slot_meta_group@detail@signals2@boost@@V?$optional@H@4@@std@@V?$slot1@XAAVTouchEvent@app@cinder@@V?$function@$$A6AXAAVTouchEvent@app@cinder@@@Z@boost@@@signals2@boost@@Vmutex@45@@detail@signals2@boost@@@boost@@@detail@signals2@0@@Z 0040ff30 f i cinder:Window.obj
 0001:0000ef30       ??$checked_delete@V?$grouped_list@HU?$less@H@std@@V?$shared_ptr@V?$connection_body@U?$pair@W4slot_meta_group@detail@signals2@boost@@V?$optional@H@4@@std@@V?$slot1@XAAVFileDropEvent@app@cinder@@V?$function@$$A6AXAAVFileDropEvent@app@cinder@@@Z@boost@@@signals2@boost@@Vmutex@45@@detail@signals2@boost@@@boost@@@detail@signals2@boost@@@boost@@YAXPAV?$grouped_list@HU?$less@H@std@@V?$shared_ptr@V?$connection_body@U?$pair@W4slot_meta_group@detail@signals2@boost@@V?$optional@H@4@@std@@V?$slot1@XAAVFileDropEvent@app@cinder@@V?$function@$$A6AXAAVFileDropEvent@app@cinder@@@Z@boost@@@signals2@boost@@Vmutex@45@@detail@signals2@boost@@@boost@@@detail@signals2@0@@Z 0040ff30 f i cinder:Window.obj
 0001:0000ef30       ??$checked_delete@V?$grouped_list@HU?$less@H@std@@V?$shared_ptr@V?$connection_body@U?$pair@W4slot_meta_group@detail@signals2@boost@@V?$optional@H@4@@std@@V?$slot1@XAAVMouseEvent@app@cinder@@V?$function@$$A6AXAAVMouseEvent@app@cinder@@@Z@boost@@@signals2@boost@@Vmutex@45@@detail@signals2@boost@@@boost@@@detail@signals2@boost@@@boost@@YAXPAV?$grouped_list@HU?$less@H@std@@V?$shared_ptr@V?$connection_body@U?$pair@W4slot_meta_group@detail@signals2@boost@@V?$optional@H@4@@std@@V?$slot1@XAAVMouseEvent@app@cinder@@V?$function@$$A6AXAAVMouseEvent@app@cinder@@@Z@boost@@@signals2@boost@@Vmutex@45@@detail@signals2@boost@@@boost@@@detail@signals2@0@@Z 0040ff30 f i cinder:Window.obj
 0001:0000ef30       ??$checked_delete@V?$grouped_list@HU?$less@H@std@@V?$shared_ptr@V?$connection_body@U?$pair@W4slot_meta_group@detail@signals2@boost@@V?$optional@H@4@@std@@V?$slot0@_NV?$function@$$A6A_NXZ@boost@@@signals2@boost@@Vmutex@45@@detail@signals2@boost@@@boost@@@detail@signals2@boost@@@boost@@YAXPAV?$grouped_list@HU?$less@H@std@@V?$shared_ptr@V?$connection_body@U?$pair@W4slot_meta_group@detail@signals2@boost@@V?$optional@H@4@@std@@V?$slot0@_NV?$function@$$A6A_NXZ@boost@@@signals2@boost@@Vmutex@45@@detail@signals2@boost@@@boost@@@detail@signals2@0@@Z 0040ff30 f i cinder:AppBasic.obj
 0001:0000ef80       ??$checked_delete@Vinvocation_state@?$signal0_impl@XV?$optional_last_value@X@signals2@boost@@HU?$less@H@std@@V?$function@$$A6AXXZ@3@V?$function@$$A6AXABVconnection@signals2@boost@@@Z@3@Vmutex@23@@detail@signals2@boost@@@boost@@YAXPAVinvocation_state@?$signal0_impl@XV?$optional_last_value@X@signals2@boost@@HU?$less@H@std@@V?$function@$$A6AXXZ@3@V?$function@$$A6AXABVconnection@signals2@boost@@@Z@3@Vmutex@23@@detail@signals2@0@@Z 0040ff80 f i cinder:Window.obj
 0001:0000ef80       ??$checked_delete@Vinvocation_state@?$signal1_impl@XAAVMouseEvent@app@cinder@@U?$EventCombiner@VMouseEvent@app@cinder@@@23@HU?$less@H@std@@V?$function@$$A6AXAAVMouseEvent@app@cinder@@@Z@boost@@V?$function@$$A6AXABVconnection@signals2@boost@@AAVMouseEvent@app@cinder@@@Z@8@Vmutex@signals2@8@@detail@signals2@boost@@@boost@@YAXPAVinvocation_state@?$signal1_impl@XAAVMouseEvent@app@cinder@@U?$EventCombiner@VMouseEvent@app@cinder@@@23@HU?$less@H@std@@V?$function@$$A6AXAAVMouseEvent@app@cinder@@@Z@boost@@V?$function@$$A6AXABVconnection@signals2@boost@@AAVMouseEvent@app@cinder@@@Z@8@Vmutex@signals2@8@@detail@signals2@0@@Z 0040ff80 f i cinder:Window.obj
 0001:0000ef80       ??$checked_delete@Vinvocation_state@?$signal1_impl@XAAVTouchEvent@app@cinder@@U?$EventCombiner@VTouchEvent@app@cinder@@@23@HU?$less@H@std@@V?$function@$$A6AXAAVTouchEvent@app@cinder@@@Z@boost@@V?$function@$$A6AXABVconnection@signals2@boost@@AAVTouchEvent@app@cinder@@@Z@8@Vmutex@signals2@8@@detail@signals2@boost@@@boost@@YAXPAVinvocation_state@?$signal1_impl@XAAVTouchEvent@app@cinder@@U?$EventCombiner@VTouchEvent@app@cinder@@@23@HU?$less@H@std@@V?$function@$$A6AXAAVTouchEvent@app@cinder@@@Z@boost@@V?$function@$$A6AXABVconnection@signals2@boost@@AAVTouchEvent@app@cinder@@@Z@8@Vmutex@signals2@8@@detail@signals2@0@@Z 0040ff80 f i cinder:Window.obj
 0001:0000ef80       ??$checked_delete@Vinvocation_state@?$signal0_impl@_NUBooleanAndEventCombiner@app@cinder@@HU?$less@H@std@@V?$function@$$A6A_NXZ@boost@@V?$function@$$A6A_NABVconnection@signals2@boost@@@Z@7@Vmutex@signals2@7@@detail@signals2@boost@@@boost@@YAXPAVinvocation_state@?$signal0_impl@_NUBooleanAndEventCombiner@app@cinder@@HU?$less@H@std@@V?$function@$$A6A_NXZ@boost@@V?$function@$$A6A_NABVconnection@signals2@boost@@@Z@7@Vmutex@signals2@7@@detail@signals2@0@@Z 0040ff80 f i cinder:AppBasic.obj
 0001:0000ef80       ??$checked_delete@Vinvocation_state@?$signal1_impl@XAAVKeyEvent@app@cinder@@U?$EventCombiner@VKeyEvent@app@cinder@@@23@HU?$less@H@std@@V?$function@$$A6AXAAVKeyEvent@app@cinder@@@Z@boost@@V?$function@$$A6AXABVconnection@signals2@boost@@AAVKeyEvent@app@cinder@@@Z@8@Vmutex@signals2@8@@detail@signals2@boost@@@boost@@YAXPAVinvocation_state@?$signal1_impl@XAAVKeyEvent@app@cinder@@U?$EventCombiner@VKeyEvent@app@cinder@@@23@HU?$less@H@std@@V?$function@$$A6AXAAVKeyEvent@app@cinder@@@Z@boost@@V?$function@$$A6AXABVconnection@signals2@boost@@AAVKeyEvent@app@cinder@@@Z@8@Vmutex@signals2@8@@detail@signals2@0@@Z 0040ff80 f i cinder:Window.obj
 0001:0000ef80       ??$checked_delete@Vinvocation_state@?$signal1_impl@XAAVFileDropEvent@app@cinder@@U?$EventCombiner@VFileDropEvent@app@cinder@@@23@HU?$less@H@std@@V?$function@$$A6AXAAVFileDropEvent@app@cinder@@@Z@boost@@V?$function@$$A6AXABVconnection@signals2@boost@@AAVFileDropEvent@app@cinder@@@Z@8@Vmutex@signals2@8@@detail@signals2@boost@@@boost@@YAXPAVinvocation_state@?$signal1_impl@XAAVFileDropEvent@app@cinder@@U?$EventCombiner@VFileDropEvent@app@cinder@@@23@HU?$less@H@std@@V?$function@$$A6AXAAVFileDropEvent@app@cinder@@@Z@boost@@V?$function@$$A6AXABVconnection@signals2@boost@@AAVFileDropEvent@app@cinder@@@Z@8@Vmutex@signals2@8@@detail@signals2@0@@Z 0040ff80 f i cinder:Window.obj
 0001:0000efa0       ??0?$basic_string@_WU?$char_traits@_W@std@@V?$allocator@_W@2@@std@@QAE@PB_W@Z 0040ffa0 f i cinder:AppBasic.obj
 0001:0000f000       ??0?$signal0_impl@_NUBooleanAndEventCombiner@app@cinder@@HU?$less@H@std@@V?$function@$$A6A_NXZ@boost@@V?$function@$$A6A_NABVconnection@signals2@boost@@@Z@7@Vmutex@signals2@7@@detail@signals2@boost@@QAE@ABUBooleanAndEventCombiner@app@cinder@@ABU?$less@H@std@@@Z 00410000 f i cinder:AppBasic.obj
 0001:0000f110       ??0AppBasic@app@cinder@@QAE@XZ 00410110 f   cinder:AppBasic.obj
 0001:0000f200       ??0Format@Window@app@cinder@@QAE@ABU0123@@Z 00410200 f i cinder:AppBasic.obj
 0001:0000f320       ??0invocation_state@?$signal0_impl@_NUBooleanAndEventCombiner@app@cinder@@HU?$less@H@std@@V?$function@$$A6A_NXZ@boost@@V?$function@$$A6A_NABVconnection@signals2@boost@@@Z@7@Vmutex@signals2@7@@detail@signals2@boost@@QAE@ABV?$grouped_list@HU?$less@H@std@@V?$shared_ptr@V?$connection_body@U?$pair@W4slot_meta_group@detail@signals2@boost@@V?$optional@H@4@@std@@V?$slot0@_NV?$function@$$A6A_NXZ@boost@@@signals2@boost@@Vmutex@45@@detail@signals2@boost@@@boost@@@234@ABUBooleanAndEventCombiner@app@cinder@@@Z 00410320 f i cinder:AppBasic.obj
 0001:0000f3b0       ??1?$shared_ptr@Utss_cleanup_function@detail@boost@@@boost@@QAE@XZ 004103b0 f i cinder:CinderMsw.obj
 0001:0000f3b0       ??1?$shared_ptr@V?$grouped_list@HU?$less@H@std@@V?$shared_ptr@V?$connection_body@U?$pair@W4slot_meta_group@detail@signals2@boost@@V?$optional@H@4@@std@@V?$slot0@_NV?$function@$$A6A_NXZ@boost@@@signals2@boost@@Vmutex@45@@detail@signals2@boost@@@boost@@@detail@signals2@boost@@@boost@@QAE@XZ 004103b0 f i cinder:AppBasic.obj
 0001:0000f3b0       ??1?$shared_ptr@Vinvocation_state@?$signal0_impl@XV?$optional_last_value@X@signals2@boost@@HU?$less@H@std@@V?$function@$$A6AXXZ@3@V?$function@$$A6AXABVconnection@signals2@boost@@@Z@3@Vmutex@23@@detail@signals2@boost@@@boost@@QAE@XZ 004103b0 f i cinder:Window.obj
 0001:0000f3b0       ??1?$shared_ptr@V?$grouped_list@HU?$less@H@std@@V?$shared_ptr@V?$connection_body@U?$pair@W4slot_meta_group@detail@signals2@boost@@V?$optional@H@4@@std@@V?$slot1@XAAVKeyEvent@app@cinder@@V?$function@$$A6AXAAVKeyEvent@app@cinder@@@Z@boost@@@signals2@boost@@Vmutex@45@@detail@signals2@boost@@@boost@@@detail@signals2@boost@@@boost@@QAE@XZ 004103b0 f i cinder:Window.obj
 0001:0000f3b0       ??1?$shared_ptr@V?$signal1_impl@XAAVKeyEvent@app@cinder@@U?$EventCombiner@VKeyEvent@app@cinder@@@23@HU?$less@H@std@@V?$function@$$A6AXAAVKeyEvent@app@cinder@@@Z@boost@@V?$function@$$A6AXABVconnection@signals2@boost@@AAVKeyEvent@app@cinder@@@Z@8@Vmutex@signals2@8@@detail@signals2@boost@@@boost@@QAE@XZ 004103b0 f i cinder:AppImplMsw.obj
 0001:0000f3b0       ??1?$shared_ptr@Vinvocation_state@?$signal1_impl@XAAVTouchEvent@app@cinder@@U?$EventCombiner@VTouchEvent@app@cinder@@@23@HU?$less@H@std@@V?$function@$$A6AXAAVTouchEvent@app@cinder@@@Z@boost@@V?$function@$$A6AXABVconnection@signals2@boost@@AAVTouchEvent@app@cinder@@@Z@8@Vmutex@signals2@8@@detail@signals2@boost@@@boost@@QAE@XZ 004103b0 f i cinder:Window.obj
 0001:0000f3b0       ??1?$shared_ptr@V?$signal0_impl@XV?$optional_last_value@X@signals2@boost@@HU?$less@H@std@@V?$function@$$A6AXXZ@3@V?$function@$$A6AXABVconnection@signals2@boost@@@Z@3@Vmutex@23@@detail@signals2@boost@@@boost@@QAE@XZ 004103b0 f i cinder:App.obj
 0001:0000f3b0       ??1?$shared_ptr@V?$signal1_impl@XAAVMouseEvent@app@cinder@@U?$EventCombiner@VMouseEvent@app@cinder@@@23@HU?$less@H@std@@V?$function@$$A6AXAAVMouseEvent@app@cinder@@@Z@boost@@V?$function@$$A6AXABVconnection@signals2@boost@@AAVMouseEvent@app@cinder@@@Z@8@Vmutex@signals2@8@@detail@signals2@boost@@@boost@@QAE@XZ 004103b0 f i cinder:AppImplMsw.obj
 0001:0000f3b0       ??1tss_data_node@detail@boost@@QAE@XZ 004103b0 f i libboost_thread-vc110-mt-s-1_53:thread.obj
 0001:0000f3b0       ??1?$shared_ptr@Vinvocation_state@?$signal0_impl@_NUBooleanAndEventCombiner@app@cinder@@HU?$less@H@std@@V?$function@$$A6A_NXZ@boost@@V?$function@$$A6A_NABVconnection@signals2@boost@@@Z@7@Vmutex@signals2@7@@detail@signals2@boost@@@boost@@QAE@XZ 004103b0 f i cinder:AppBasic.obj
 0001:0000f3b0       ??1?$shared_ptr@Vinvocation_state@?$signal1_impl@XAAVKeyEvent@app@cinder@@U?$EventCombiner@VKeyEvent@app@cinder@@@23@HU?$less@H@std@@V?$function@$$A6AXAAVKeyEvent@app@cinder@@@Z@boost@@V?$function@$$A6AXABVconnection@signals2@boost@@AAVKeyEvent@app@cinder@@@Z@8@Vmutex@signals2@8@@detail@signals2@boost@@@boost@@QAE@XZ 004103b0 f i cinder:Window.obj
 0001:0000f3b0       ??1?$shared_ptr@V?$signal1_impl@XAAVFileDropEvent@app@cinder@@U?$EventCombiner@VFileDropEvent@app@cinder@@@23@HU?$less@H@std@@V?$function@$$A6AXAAVFileDropEvent@app@cinder@@@Z@boost@@V?$function@$$A6AXABVconnection@signals2@boost@@AAVFileDropEvent@app@cinder@@@Z@8@Vmutex@signals2@8@@detail@signals2@boost@@@boost@@QAE@XZ 004103b0 f i cinder:AppImplMsw.obj
 0001:0000f3b0       ??1?$shared_ptr@V?$signal1_impl@XAAVTouchEvent@app@cinder@@U?$EventCombiner@VTouchEvent@app@cinder@@@23@HU?$less@H@std@@V?$function@$$A6AXAAVTouchEvent@app@cinder@@@Z@boost@@V?$function@$$A6AXABVconnection@signals2@boost@@AAVTouchEvent@app@cinder@@@Z@8@Vmutex@signals2@8@@detail@signals2@boost@@@boost@@QAE@XZ 004103b0 f i cinder:AppImplMsw.obj
 0001:0000f3b0       ??1?$shared_ptr@Vinvocation_state@?$signal1_impl@XAAVMouseEvent@app@cinder@@U?$EventCombiner@VMouseEvent@app@cinder@@@23@HU?$less@H@std@@V?$function@$$A6AXAAVMouseEvent@app@cinder@@@Z@boost@@V?$function@$$A6AXABVconnection@signals2@boost@@AAVMouseEvent@app@cinder@@@Z@8@Vmutex@signals2@8@@detail@signals2@boost@@@boost@@QAE@XZ 004103b0 f i cinder:Window.obj
 0001:0000f3b0       ??1?$shared_ptr@Um_imp@filesystem_error@filesystem@boost@@@boost@@QAE@XZ 004103b0 f i libboost_filesystem-vc110-mt-s-1_53:operations.obj
 0001:0000f3b0       ??1?$shared_ptr@V?$grouped_list@HU?$less@H@std@@V?$shared_ptr@V?$connection_body@U?$pair@W4slot_meta_group@detail@signals2@boost@@V?$optional@H@4@@std@@V?$slot1@XAAVTouchEvent@app@cinder@@V?$function@$$A6AXAAVTouchEvent@app@cinder@@@Z@boost@@@signals2@boost@@Vmutex@45@@detail@signals2@boost@@@boost@@@detail@signals2@boost@@@boost@@QAE@XZ 004103b0 f i cinder:Window.obj
 0001:0000f3b0       ??1?$shared_ptr@V?$grouped_list@HU?$less@H@std@@V?$shared_ptr@V?$connection_body@U?$pair@W4slot_meta_group@detail@signals2@boost@@V?$optional@H@4@@std@@V?$slot1@XAAVFileDropEvent@app@cinder@@V?$function@$$A6AXAAVFileDropEvent@app@cinder@@@Z@boost@@@signals2@boost@@Vmutex@45@@detail@signals2@boost@@@boost@@@detail@signals2@boost@@@boost@@QAE@XZ 004103b0 f i cinder:Window.obj
 0001:0000f3b0       ??1?$shared_ptr@Vinvocation_state@?$signal1_impl@XAAVFileDropEvent@app@cinder@@U?$EventCombiner@VFileDropEvent@app@cinder@@@23@HU?$less@H@std@@V?$function@$$A6AXAAVFileDropEvent@app@cinder@@@Z@boost@@V?$function@$$A6AXABVconnection@signals2@boost@@AAVFileDropEvent@app@cinder@@@Z@8@Vmutex@signals2@8@@detail@signals2@boost@@@boost@@QAE@XZ 004103b0 f i cinder:Window.obj
 0001:0000f3b0       ??1?$shared_ptr@V?$grouped_list@HU?$less@H@std@@V?$shared_ptr@V?$connection_body@U?$pair@W4slot_meta_group@detail@signals2@boost@@V?$optional@H@4@@std@@V?$slot1@XAAVMouseEvent@app@cinder@@V?$function@$$A6AXAAVMouseEvent@app@cinder@@@Z@boost@@@signals2@boost@@Vmutex@45@@detail@signals2@boost@@@boost@@@detail@signals2@boost@@@boost@@QAE@XZ 004103b0 f i cinder:Window.obj
 0001:0000f3b0       ??1?$shared_ptr@V?$signal0_impl@_NUBooleanAndEventCombiner@app@cinder@@HU?$less@H@std@@V?$function@$$A6A_NXZ@boost@@V?$function@$$A6A_NABVconnection@signals2@boost@@@Z@7@Vmutex@signals2@7@@detail@signals2@boost@@@boost@@QAE@XZ 004103b0 f i cinder:AppBasic.obj
 0001:0000f3b0       ??1?$shared_ptr@V?$grouped_list@HU?$less@H@std@@V?$shared_ptr@V?$connection_body@U?$pair@W4slot_meta_group@detail@signals2@boost@@V?$optional@H@4@@std@@V?$slot0@XV?$function@$$A6AXXZ@boost@@@signals2@boost@@Vmutex@45@@detail@signals2@boost@@@boost@@@detail@signals2@boost@@@boost@@QAE@XZ 004103b0 f i cinder:Window.obj
 0001:0000f3f0       ??1?$signal@$$A6A_NXZUBooleanAndEventCombiner@app@cinder@@HU?$less@H@std@@V?$function@$$A6A_NXZ@boost@@V?$function@$$A6A_NABVconnection@signals2@boost@@@Z@7@Vmutex@signals2@7@@signals2@boost@@UAE@XZ 004103f0 f i cinder:AppBasic.obj
 0001:0000f480       ?_Tidy@?$vector@UFormat@Window@app@cinder@@V?$allocator@UFormat@Window@app@cinder@@@std@@@std@@IAEXXZ 00410480 f i cinder:AppBasic.obj
 0001:0000f480       ??1?$vector@UFormat@Window@app@cinder@@V?$allocator@UFormat@Window@app@cinder@@@std@@@std@@QAE@XZ 00410480 f i cinder:AppBasic.obj
 0001:0000f4d0       ??1?$vector@V?$basic_string@DU?$char_traits@D@std@@V?$allocator@D@2@@std@@V?$allocator@V?$basic_string@DU?$char_traits@D@std@@V?$allocator@D@2@@std@@@2@@std@@QAE@XZ 004104d0 f i cinder:AppBasic.obj
 0001:0000f510       ??1AppBasic@app@cinder@@UAE@XZ 00410510 f   cinder:AppBasic.obj
 0001:0000f610       ??1Format@Window@app@cinder@@QAE@XZ 00410610 f i cinder:AppBasic.obj
 0001:0000f6c0       ??1Settings@App@app@cinder@@UAE@XZ 004106c0 f i cinder:AppBasic.obj
 0001:0000f750       ??1Settings@AppBasic@app@cinder@@UAE@XZ 00410750 f i cinder:AppBasic.obj
 0001:0000f760       ??1signal_base@signals2@boost@@UAE@XZ 00410760 f i cinder:AppBasic.obj
 0001:0000f770       ??_G?$signal@$$A6A_NXZUBooleanAndEventCombiner@app@cinder@@HU?$less@H@std@@V?$function@$$A6A_NXZ@boost@@V?$function@$$A6A_NABVconnection@signals2@boost@@@Z@7@Vmutex@signals2@7@@signals2@boost@@UAEPAXI@Z 00410770 f i cinder:AppBasic.obj
 0001:0000f770       ??_G?$signal0@_NUBooleanAndEventCombiner@app@cinder@@HU?$less@H@std@@V?$function@$$A6A_NXZ@boost@@V?$function@$$A6A_NABVconnection@signals2@boost@@@Z@7@Vmutex@signals2@7@@signals2@boost@@UAEPAXI@Z 00410770 f i cinder:AppBasic.obj
 0001:0000f770       ??_E?$signal@$$A6A_NXZUBooleanAndEventCombiner@app@cinder@@HU?$less@H@std@@V?$function@$$A6A_NXZ@boost@@V?$function@$$A6A_NABVconnection@signals2@boost@@@Z@7@Vmutex@signals2@7@@signals2@boost@@UAEPAXI@Z 00410770 f i cinder:AppBasic.obj
 0001:0000f770       ??_E?$signal0@_NUBooleanAndEventCombiner@app@cinder@@HU?$less@H@std@@V?$function@$$A6A_NXZ@boost@@V?$function@$$A6A_NABVconnection@signals2@boost@@@Z@7@Vmutex@signals2@7@@signals2@boost@@UAEPAXI@Z 00410770 f i cinder:AppBasic.obj
 0001:0000f810       ??_G?$sp_counted_impl_p@Vinvocation_state@?$signal1_impl@XAAVFileDropEvent@app@cinder@@U?$EventCombiner@VFileDropEvent@app@cinder@@@23@HU?$less@H@std@@V?$function@$$A6AXAAVFileDropEvent@app@cinder@@@Z@boost@@V?$function@$$A6AXABVconnection@signals2@boost@@AAVFileDropEvent@app@cinder@@@Z@8@Vmutex@signals2@8@@detail@signals2@boost@@@detail@boost@@UAEPAXI@Z 00410810 f i cinder:Window.obj
 0001:0000f810       ??_E?$sp_counted_impl_p@Vinvocation_state@?$signal0_impl@XV?$optional_last_value@X@signals2@boost@@HU?$less@H@std@@V?$function@$$A6AXXZ@3@V?$function@$$A6AXABVconnection@signals2@boost@@@Z@3@Vmutex@23@@detail@signals2@boost@@@detail@boost@@UAEPAXI@Z 00410810 f i cinder:Window.obj
 0001:0000f810       ??_G?$sp_counted_impl_p@V?$signal0_impl@_NUBooleanAndEventCombiner@app@cinder@@HU?$less@H@std@@V?$function@$$A6A_NXZ@boost@@V?$function@$$A6A_NABVconnection@signals2@boost@@@Z@7@Vmutex@signals2@7@@detail@signals2@boost@@@detail@boost@@UAEPAXI@Z 00410810 f i cinder:AppBasic.obj
 0001:0000f810       ??_E?$sp_counted_impl_p@V?$optional_last_value@X@signals2@boost@@@detail@boost@@UAEPAXI@Z 00410810 f i cinder:App.obj
 0001:0000f810       ??_E?$sp_counted_impl_p@Vinvocation_state@?$signal1_impl@XAAVTouchEvent@app@cinder@@U?$EventCombiner@VTouchEvent@app@cinder@@@23@HU?$less@H@std@@V?$function@$$A6AXAAVTouchEvent@app@cinder@@@Z@boost@@V?$function@$$A6AXABVconnection@signals2@boost@@AAVTouchEvent@app@cinder@@@Z@8@Vmutex@signals2@8@@detail@signals2@boost@@@detail@boost@@UAEPAXI@Z 00410810 f i cinder:Window.obj
 0001:0000f810       ??_G?$sp_counted_impl_p@V?$optional_last_value@X@signals2@boost@@@detail@boost@@UAEPAXI@Z 00410810 f i cinder:App.obj
 0001:0000f810       ??_G?$sp_counted_impl_p@V?$grouped_list@HU?$less@H@std@@V?$shared_ptr@V?$connection_body@U?$pair@W4slot_meta_group@detail@signals2@boost@@V?$optional@H@4@@std@@V?$slot0@_NV?$function@$$A6A_NXZ@boost@@@signals2@boost@@Vmutex@45@@detail@signals2@boost@@@boost@@@detail@signals2@boost@@@detail@boost@@UAEPAXI@Z 00410810 f i cinder:AppBasic.obj
 0001:0000f810       ??_E?$sp_counted_impl_p@Vinvocation_state@?$signal1_impl@XAAVMouseEvent@app@cinder@@U?$EventCombiner@VMouseEvent@app@cinder@@@23@HU?$less@H@std@@V?$function@$$A6AXAAVMouseEvent@app@cinder@@@Z@boost@@V?$function@$$A6AXABVconnection@signals2@boost@@AAVMouseEvent@app@cinder@@@Z@8@Vmutex@signals2@8@@detail@signals2@boost@@@detail@boost@@UAEPAXI@Z 00410810 f i cinder:Window.obj
 0001:0000f810       ??_E?$sp_counted_impl_p@U?$EventCombiner@VMouseEvent@app@cinder@@@app@cinder@@@detail@boost@@UAEPAXI@Z 00410810 f i cinder:Window.obj
 0001:0000f810       ??_E?$sp_counted_impl_p@Vinvocation_state@?$signal0_impl@_NUBooleanAndEventCombiner@app@cinder@@HU?$less@H@std@@V?$function@$$A6A_NXZ@boost@@V?$function@$$A6A_NABVconnection@signals2@boost@@@Z@7@Vmutex@signals2@7@@detail@signals2@boost@@@detail@boost@@UAEPAXI@Z 00410810 f i cinder:AppBasic.obj
 0001:0000f810       ??_E?$sp_counted_impl_p@V?$grouped_list@HU?$less@H@std@@V?$shared_ptr@V?$connection_body@U?$pair@W4slot_meta_group@detail@signals2@boost@@V?$optional@H@4@@std@@V?$slot1@XAAVKeyEvent@app@cinder@@V?$function@$$A6AXAAVKeyEvent@app@cinder@@@Z@boost@@@signals2@boost@@Vmutex@45@@detail@signals2@boost@@@boost@@@detail@signals2@boost@@@detail@boost@@UAEPAXI@Z 00410810 f i cinder:Window.obj
 0001:0000f810       ??_E?$sp_counted_impl_p@U?$EventCombiner@VFileDropEvent@app@cinder@@@app@cinder@@@detail@boost@@UAEPAXI@Z 00410810 f i cinder:Window.obj
 0001:0000f810       ??_G?$sp_counted_impl_p@Vinvocation_state@?$signal0_impl@_NUBooleanAndEventCombiner@app@cinder@@HU?$less@H@std@@V?$function@$$A6A_NXZ@boost@@V?$function@$$A6A_NABVconnection@signals2@boost@@@Z@7@Vmutex@signals2@7@@detail@signals2@boost@@@detail@boost@@UAEPAXI@Z 00410810 f i cinder:AppBasic.obj
 0001:0000f810       ??_G?$sp_counted_impl_p@U?$EventCombiner@VMouseEvent@app@cinder@@@app@cinder@@@detail@boost@@UAEPAXI@Z 00410810 f i cinder:Window.obj
 0001:0000f810       ??_E?$sp_counted_impl_p@V?$signal1_impl@XAAVFileDropEvent@app@cinder@@U?$EventCombiner@VFileDropEvent@app@cinder@@@23@HU?$less@H@std@@V?$function@$$A6AXAAVFileDropEvent@app@cinder@@@Z@boost@@V?$function@$$A6AXABVconnection@signals2@boost@@AAVFileDropEvent@app@cinder@@@Z@8@Vmutex@signals2@8@@detail@signals2@boost@@@detail@boost@@UAEPAXI@Z 00410810 f i cinder:AppImplMsw.obj
 0001:0000f810       ??_G?$sp_counted_impl_p@V?$signal1_impl@XAAVTouchEvent@app@cinder@@U?$EventCombiner@VTouchEvent@app@cinder@@@23@HU?$less@H@std@@V?$function@$$A6AXAAVTouchEvent@app@cinder@@@Z@boost@@V?$function@$$A6AXABVconnection@signals2@boost@@AAVTouchEvent@app@cinder@@@Z@8@Vmutex@signals2@8@@detail@signals2@boost@@@detail@boost@@UAEPAXI@Z 00410810 f i cinder:AppImplMsw.obj
 0001:0000f810       ??_G?$sp_counted_impl_p@V?$grouped_list@HU?$less@H@std@@V?$shared_ptr@V?$connection_body@U?$pair@W4slot_meta_group@detail@signals2@boost@@V?$optional@H@4@@std@@V?$slot1@XAAVMouseEvent@app@cinder@@V?$function@$$A6AXAAVMouseEvent@app@cinder@@@Z@boost@@@signals2@boost@@Vmutex@45@@detail@signals2@boost@@@boost@@@detail@signals2@boost@@@detail@boost@@UAEPAXI@Z 00410810 f i cinder:Window.obj
 0001:0000f810       ??_E?$sp_counted_impl_p@Vinvocation_state@?$signal1_impl@XAAVFileDropEvent@app@cinder@@U?$EventCombiner@VFileDropEvent@app@cinder@@@23@HU?$less@H@std@@V?$function@$$A6AXAAVFileDropEvent@app@cinder@@@Z@boost@@V?$function@$$A6AXABVconnection@signals2@boost@@AAVFileDropEvent@app@cinder@@@Z@8@Vmutex@signals2@8@@detail@signals2@boost@@@detail@boost@@UAEPAXI@Z 00410810 f i cinder:Window.obj
 0001:0000f810       ??_G?$sp_counted_impl_p@Vinvocation_state@?$signal1_impl@XAAVKeyEvent@app@cinder@@U?$EventCombiner@VKeyEvent@app@cinder@@@23@HU?$less@H@std@@V?$function@$$A6AXAAVKeyEvent@app@cinder@@@Z@boost@@V?$function@$$A6AXABVconnection@signals2@boost@@AAVKeyEvent@app@cinder@@@Z@8@Vmutex@signals2@8@@detail@signals2@boost@@@detail@boost@@UAEPAXI@Z 00410810 f i cinder:Window.obj
 0001:0000f810       ??_G?$sp_counted_impl_p@U?$EventCombiner@VFileDropEvent@app@cinder@@@app@cinder@@@detail@boost@@UAEPAXI@Z 00410810 f i cinder:Window.obj
 0001:0000f810       ??_E?$sp_counted_impl_p@V?$signal1_impl@XAAVMouseEvent@app@cinder@@U?$EventCombiner@VMouseEvent@app@cinder@@@23@HU?$less@H@std@@V?$function@$$A6AXAAVMouseEvent@app@cinder@@@Z@boost@@V?$function@$$A6AXABVconnection@signals2@boost@@AAVMouseEvent@app@cinder@@@Z@8@Vmutex@signals2@8@@detail@signals2@boost@@@detail@boost@@UAEPAXI@Z 00410810 f i cinder:AppImplMsw.obj
 0001:0000f810       ??_G?$sp_counted_impl_p@U?$EventCombiner@VKeyEvent@app@cinder@@@app@cinder@@@detail@boost@@UAEPAXI@Z 00410810 f i cinder:Window.obj
 0001:0000f810       ??_Esp_counted_base@detail@boost@@UAEPAXI@Z 00410810 f i cinder:Window.obj
 0001:0000f810       ??_E?$sp_counted_impl_p@V?$signal0_impl@_NUBooleanAndEventCombiner@app@cinder@@HU?$less@H@std@@V?$function@$$A6A_NXZ@boost@@V?$function@$$A6A_NABVconnection@signals2@boost@@@Z@7@Vmutex@signals2@7@@detail@signals2@boost@@@detail@boost@@UAEPAXI@Z 00410810 f i cinder:AppBasic.obj
 0001:0000f810       ??_G?$sp_counted_impl_p@V?$signal1_impl@XAAVFileDropEvent@app@cinder@@U?$EventCombiner@VFileDropEvent@app@cinder@@@23@HU?$less@H@std@@V?$function@$$A6AXAAVFileDropEvent@app@cinder@@@Z@boost@@V?$function@$$A6AXABVconnection@signals2@boost@@AAVFileDropEvent@app@cinder@@@Z@8@Vmutex@signals2@8@@detail@signals2@boost@@@detail@boost@@UAEPAXI@Z 00410810 f i cinder:AppImplMsw.obj
 0001:0000f810       ??_E?$sp_counted_impl_p@V?$signal1_impl@XAAVKeyEvent@app@cinder@@U?$EventCombiner@VKeyEvent@app@cinder@@@23@HU?$less@H@std@@V?$function@$$A6AXAAVKeyEvent@app@cinder@@@Z@boost@@V?$function@$$A6AXABVconnection@signals2@boost@@AAVKeyEvent@app@cinder@@@Z@8@Vmutex@signals2@8@@detail@signals2@boost@@@detail@boost@@UAEPAXI@Z 00410810 f i cinder:AppImplMsw.obj
 0001:0000f810       ??_G?$sp_counted_impl_p@V?$signal1_impl@XAAVKeyEvent@app@cinder@@U?$EventCombiner@VKeyEvent@app@cinder@@@23@HU?$less@H@std@@V?$function@$$A6AXAAVKeyEvent@app@cinder@@@Z@boost@@V?$function@$$A6AXABVconnection@signals2@boost@@AAVKeyEvent@app@cinder@@@Z@8@Vmutex@signals2@8@@detail@signals2@boost@@@detail@boost@@UAEPAXI@Z 00410810 f i cinder:AppImplMsw.obj
 0001:0000f810       ??_E?$sp_counted_impl_p@V?$grouped_list@HU?$less@H@std@@V?$shared_ptr@V?$connection_body@U?$pair@W4slot_meta_group@detail@signals2@boost@@V?$optional@H@4@@std@@V?$slot1@XAAVFileDropEvent@app@cinder@@V?$function@$$A6AXAAVFileDropEvent@app@cinder@@@Z@boost@@@signals2@boost@@Vmutex@45@@detail@signals2@boost@@@boost@@@detail@signals2@boost@@@detail@boost@@UAEPAXI@Z 00410810 f i cinder:Window.obj
 0001:0000f810       ??_Gsp_counted_base@detail@boost@@UAEPAXI@Z 00410810 f i cinder:Window.obj
 0001:0000f810       ??_G?$sp_counted_impl_p@V?$grouped_list@HU?$less@H@std@@V?$shared_ptr@V?$connection_body@U?$pair@W4slot_meta_group@detail@signals2@boost@@V?$optional@H@4@@std@@V?$slot1@XAAVKeyEvent@app@cinder@@V?$function@$$A6AXAAVKeyEvent@app@cinder@@@Z@boost@@@signals2@boost@@Vmutex@45@@detail@signals2@boost@@@boost@@@detail@signals2@boost@@@detail@boost@@UAEPAXI@Z 00410810 f i cinder:Window.obj
 0001:0000f810       ??_G?$sp_counted_impl_p@U?$EventCombiner@VTouchEvent@app@cinder@@@app@cinder@@@detail@boost@@UAEPAXI@Z 00410810 f i cinder:Window.obj
 0001:0000f810       ??_E?$sp_counted_impl_p@U?$EventCombiner@VKeyEvent@app@cinder@@@app@cinder@@@detail@boost@@UAEPAXI@Z 00410810 f i cinder:Window.obj
 0001:0000f810       ??_G?$sp_counted_impl_p@V?$signal0_impl@XV?$optional_last_value@X@signals2@boost@@HU?$less@H@std@@V?$function@$$A6AXXZ@3@V?$function@$$A6AXABVconnection@signals2@boost@@@Z@3@Vmutex@23@@detail@signals2@boost@@@detail@boost@@UAEPAXI@Z 00410810 f i cinder:App.obj
 0001:0000f810       ??_E?$sp_counted_impl_p@Vinvocation_state@?$signal1_impl@XAAVKeyEvent@app@cinder@@U?$EventCombiner@VKeyEvent@app@cinder@@@23@HU?$less@H@std@@V?$function@$$A6AXAAVKeyEvent@app@cinder@@@Z@boost@@V?$function@$$A6AXABVconnection@signals2@boost@@AAVKeyEvent@app@cinder@@@Z@8@Vmutex@signals2@8@@detail@signals2@boost@@@detail@boost@@UAEPAXI@Z 00410810 f i cinder:Window.obj
 0001:0000f810       ??_E?$sp_counted_impl_p@U?$EventCombiner@VTouchEvent@app@cinder@@@app@cinder@@@detail@boost@@UAEPAXI@Z 00410810 f i cinder:Window.obj
 0001:0000f810       ??_G?$sp_counted_impl_p@Vinvocation_state@?$signal0_impl@XV?$optional_last_value@X@signals2@boost@@HU?$less@H@std@@V?$function@$$A6AXXZ@3@V?$function@$$A6AXABVconnection@signals2@boost@@@Z@3@Vmutex@23@@detail@signals2@boost@@@detail@boost@@UAEPAXI@Z 00410810 f i cinder:Window.obj
 0001:0000f810       ??_E?$sp_counted_impl_p@V?$grouped_list@HU?$less@H@std@@V?$shared_ptr@V?$connection_body@U?$pair@W4slot_meta_group@detail@signals2@boost@@V?$optional@H@4@@std@@V?$slot0@XV?$function@$$A6AXXZ@boost@@@signals2@boost@@Vmutex@45@@detail@signals2@boost@@@boost@@@detail@signals2@boost@@@detail@boost@@UAEPAXI@Z 00410810 f i cinder:Window.obj
 0001:0000f810       ??_E?$sp_counted_impl_p@V?$signal1_impl@XAAVTouchEvent@app@cinder@@U?$EventCombiner@VTouchEvent@app@cinder@@@23@HU?$less@H@std@@V?$function@$$A6AXAAVTouchEvent@app@cinder@@@Z@boost@@V?$function@$$A6AXABVconnection@signals2@boost@@AAVTouchEvent@app@cinder@@@Z@8@Vmutex@signals2@8@@detail@signals2@boost@@@detail@boost@@UAEPAXI@Z 00410810 f i cinder:AppImplMsw.obj
 0001:0000f810       ??_E?$sp_counted_impl_pd@PAUdelete_data@?$thread_specific_ptr@UComInitializer@msw@cinder@@@boost@@U?$do_heap_delete@Udelete_data@?$thread_specific_ptr@UComInitializer@msw@cinder@@@boost@@@detail@3@@detail@boost@@UAEPAXI@Z 00410810 f i cinder:CinderMsw.obj
 0001:0000f810       ??_E?$sp_counted_impl_p@V?$grouped_list@HU?$less@H@std@@V?$shared_ptr@V?$connection_body@U?$pair@W4slot_meta_group@detail@signals2@boost@@V?$optional@H@4@@std@@V?$slot1@XAAVMouseEvent@app@cinder@@V?$function@$$A6AXAAVMouseEvent@app@cinder@@@Z@boost@@@signals2@boost@@Vmutex@45@@detail@signals2@boost@@@boost@@@detail@signals2@boost@@@detail@boost@@UAEPAXI@Z 00410810 f i cinder:Window.obj
 0001:0000f810       ??_G?$sp_counted_impl_p@V?$grouped_list@HU?$less@H@std@@V?$shared_ptr@V?$connection_body@U?$pair@W4slot_meta_group@detail@signals2@boost@@V?$optional@H@4@@std@@V?$slot1@XAAVFileDropEvent@app@cinder@@V?$function@$$A6AXAAVFileDropEvent@app@cinder@@@Z@boost@@@signals2@boost@@Vmutex@45@@detail@signals2@boost@@@boost@@@detail@signals2@boost@@@detail@boost@@UAEPAXI@Z 00410810 f i cinder:Window.obj
 0001:0000f810       ??_G?$sp_counted_impl_p@Vinvocation_state@?$signal1_impl@XAAVMouseEvent@app@cinder@@U?$EventCombiner@VMouseEvent@app@cinder@@@23@HU?$less@H@std@@V?$function@$$A6AXAAVMouseEvent@app@cinder@@@Z@boost@@V?$function@$$A6AXABVconnection@signals2@boost@@AAVMouseEvent@app@cinder@@@Z@8@Vmutex@signals2@8@@detail@signals2@boost@@@detail@boost@@UAEPAXI@Z 00410810 f i cinder:Window.obj
 0001:0000f810       ??_G?$sp_counted_impl_p@UBooleanAndEventCombiner@app@cinder@@@detail@boost@@UAEPAXI@Z 00410810 f i cinder:AppBasic.obj
 0001:0000f810       ??_G?$sp_counted_impl_p@V?$grouped_list@HU?$less@H@std@@V?$shared_ptr@V?$connection_body@U?$pair@W4slot_meta_group@detail@signals2@boost@@V?$optional@H@4@@std@@V?$slot1@XAAVTouchEvent@app@cinder@@V?$function@$$A6AXAAVTouchEvent@app@cinder@@@Z@boost@@@signals2@boost@@Vmutex@45@@detail@signals2@boost@@@boost@@@detail@signals2@boost@@@detail@boost@@UAEPAXI@Z 00410810 f i cinder:Window.obj
 0001:0000f810       ??_E?$sp_counted_impl_p@V?$signal0_impl@XV?$optional_last_value@X@signals2@boost@@HU?$less@H@std@@V?$function@$$A6AXXZ@3@V?$function@$$A6AXABVconnection@signals2@boost@@@Z@3@Vmutex@23@@detail@signals2@boost@@@detail@boost@@UAEPAXI@Z 00410810 f i cinder:App.obj
 0001:0000f810       ??_G?$sp_counted_impl_pd@PAUdelete_data@?$thread_specific_ptr@UComInitializer@msw@cinder@@@boost@@U?$do_heap_delete@Udelete_data@?$thread_specific_ptr@UComInitializer@msw@cinder@@@boost@@@detail@3@@detail@boost@@UAEPAXI@Z 00410810 f i cinder:CinderMsw.obj
 0001:0000f810       ??_E?$sp_counted_impl_p@UBooleanAndEventCombiner@app@cinder@@@detail@boost@@UAEPAXI@Z 00410810 f i cinder:AppBasic.obj
 0001:0000f810       ??_G?$sp_counted_impl_p@V?$grouped_list@HU?$less@H@std@@V?$shared_ptr@V?$connection_body@U?$pair@W4slot_meta_group@detail@signals2@boost@@V?$optional@H@4@@std@@V?$slot0@XV?$function@$$A6AXXZ@boost@@@signals2@boost@@Vmutex@45@@detail@signals2@boost@@@boost@@@detail@signals2@boost@@@detail@boost@@UAEPAXI@Z 00410810 f i cinder:Window.obj
 0001:0000f810       ??_E?$sp_counted_impl_p@V?$grouped_list@HU?$less@H@std@@V?$shared_ptr@V?$connection_body@U?$pair@W4slot_meta_group@detail@signals2@boost@@V?$optional@H@4@@std@@V?$slot1@XAAVTouchEvent@app@cinder@@V?$function@$$A6AXAAVTouchEvent@app@cinder@@@Z@boost@@@signals2@boost@@Vmutex@45@@detail@signals2@boost@@@boost@@@detail@signals2@boost@@@detail@boost@@UAEPAXI@Z 00410810 f i cinder:Window.obj
 0001:0000f810       ??_E?$sp_counted_impl_p@V?$grouped_list@HU?$less@H@std@@V?$shared_ptr@V?$connection_body@U?$pair@W4slot_meta_group@detail@signals2@boost@@V?$optional@H@4@@std@@V?$slot0@_NV?$function@$$A6A_NXZ@boost@@@signals2@boost@@Vmutex@45@@detail@signals2@boost@@@boost@@@detail@signals2@boost@@@detail@boost@@UAEPAXI@Z 00410810 f i cinder:AppBasic.obj
 0001:0000f810       ??_G?$sp_counted_impl_p@V?$signal1_impl@XAAVMouseEvent@app@cinder@@U?$EventCombiner@VMouseEvent@app@cinder@@@23@HU?$less@H@std@@V?$function@$$A6AXAAVMouseEvent@app@cinder@@@Z@boost@@V?$function@$$A6AXABVconnection@signals2@boost@@AAVMouseEvent@app@cinder@@@Z@8@Vmutex@signals2@8@@detail@signals2@boost@@@detail@boost@@UAEPAXI@Z 00410810 f i cinder:AppImplMsw.obj
 0001:0000f810       ??_G?$sp_counted_impl_p@Vinvocation_state@?$signal1_impl@XAAVTouchEvent@app@cinder@@U?$EventCombiner@VTouchEvent@app@cinder@@@23@HU?$less@H@std@@V?$function@$$A6AXAAVTouchEvent@app@cinder@@@Z@boost@@V?$function@$$A6AXABVconnection@signals2@boost@@AAVTouchEvent@app@cinder@@@Z@8@Vmutex@signals2@8@@detail@signals2@boost@@@detail@boost@@UAEPAXI@Z 00410810 f i cinder:Window.obj
 0001:0000f840       ??_EAppBasic@app@cinder@@UAEPAXI@Z 00410840 f i cinder:AppBasic.obj
 0001:0000f840       ??_GAppBasic@app@cinder@@UAEPAXI@Z 00410840 f i cinder:AppBasic.obj
 0001:0000f870       ??_ESettings@App@app@cinder@@UAEPAXI@Z 00410870 f i cinder:AppBasic.obj
 0001:0000f870       ??_GSettings@AppBasic@app@cinder@@UAEPAXI@Z 00410870 f i cinder:AppBasic.obj
 0001:0000f870       ??_GSettings@App@app@cinder@@UAEPAXI@Z 00410870 f i cinder:AppBasic.obj
 0001:0000f870       ??_ESettings@AppBasic@app@cinder@@UAEPAXI@Z 00410870 f i cinder:AppBasic.obj
 0001:0000f8a0       ??_Esignal_base@signals2@boost@@UAEPAXI@Z 004108a0 f i cinder:AppBasic.obj
 0001:0000f8a0       ??_Gsignal_base@signals2@boost@@UAEPAXI@Z 004108a0 f i cinder:AppBasic.obj
 0001:0000f8d0       ?_Buyheadnode@?$_Tree_alloc@$0A@U?$_Tree_base_types@U?$pair@$$CBU?$pair@W4slot_meta_group@detail@signals2@boost@@V?$optional@H@4@@std@@V?$_List_iterator@V?$_List_val@U?$_List_simple_types@V?$shared_ptr@V?$connection_body@U?$pair@W4slot_meta_group@detail@signals2@boost@@V?$optional@H@4@@std@@V?$slot0@_NV?$function@$$A6A_NXZ@boost@@@signals2@boost@@Vmutex@45@@detail@signals2@boost@@@boost@@@std@@@std@@@2@@std@@V?$allocator@U?$pair@$$CBU?$pair@W4slot_meta_group@detail@signals2@boost@@V?$optional@H@4@@std@@V?$_List_iterator@V?$_List_val@U?$_List_simple_types@V?$shared_ptr@V?$connection_body@U?$pair@W4slot_meta_group@detail@signals2@boost@@V?$optional@H@4@@std@@V?$slot0@_NV?$function@$$A6A_NXZ@boost@@@signals2@boost@@Vmutex@45@@detail@signals2@boost@@@boost@@@std@@@std@@@2@@std@@@2@@std@@@std@@QAEPAU?$_Tree_node@U?$pair@$$CBU?$pair@W4slot_meta_group@detail@signals2@boost@@V?$optional@H@4@@std@@V?$_List_iterator@V?$_List_val@U?$_List_simple_types@V?$shared_ptr@V?$connection_body@U?$pair@W4slot_meta_group@detail@signals2@boost@@V?$optional@H@4@@std@@V?$slot0@_NV?$function@$$A6A_NXZ@boost@@@signals2@boost@@Vmutex@45@@detail@signals2@boost@@@boost@@@std@@@std@@@2@@std@@PAX@2@XZ 004108d0 f i cinder:AppBasic.obj
 0001:0000f8d0       ?_Buyheadnode@?$_Tree_alloc@$0A@U?$_Tree_base_types@U?$pair@$$CBU?$pair@W4slot_meta_group@detail@signals2@boost@@V?$optional@H@4@@std@@V?$_List_iterator@V?$_List_val@U?$_List_simple_types@V?$shared_ptr@V?$connection_body@U?$pair@W4slot_meta_group@detail@signals2@boost@@V?$optional@H@4@@std@@V?$slot1@XAAVTouchEvent@app@cinder@@V?$function@$$A6AXAAVTouchEvent@app@cinder@@@Z@boost@@@signals2@boost@@Vmutex@45@@detail@signals2@boost@@@boost@@@std@@@std@@@2@@std@@V?$allocator@U?$pair@$$CBU?$pair@W4slot_meta_group@detail@signals2@boost@@V?$optional@H@4@@std@@V?$_List_iterator@V?$_List_val@U?$_List_simple_types@V?$shared_ptr@V?$connection_body@U?$pair@W4slot_meta_group@detail@signals2@boost@@V?$optional@H@4@@std@@V?$slot1@XAAVTouchEvent@app@cinder@@V?$function@$$A6AXAAVTouchEvent@app@cinder@@@Z@boost@@@signals2@boost@@Vmutex@45@@detail@signals2@boost@@@boost@@@std@@@std@@@2@@std@@@2@@std@@@std@@QAEPAU?$_Tree_node@U?$pair@$$CBU?$pair@W4slot_meta_group@detail@signals2@boost@@V?$optional@H@4@@std@@V?$_List_iterator@V?$_List_val@U?$_List_simple_types@V?$shared_ptr@V?$connection_body@U?$pair@W4slot_meta_group@detail@signals2@boost@@V?$optional@H@4@@std@@V?$slot1@XAAVTouchEvent@app@cinder@@V?$function@$$A6AXAAVTouchEvent@app@cinder@@@Z@boost@@@signals2@boost@@Vmutex@45@@detail@signals2@boost@@@boost@@@std@@@std@@@2@@std@@PAX@2@XZ 004108d0 f i cinder:Window.obj
 0001:0000f8d0       ?_Buyheadnode@?$_Tree_alloc@$0A@U?$_Tree_base_types@U?$pair@$$CBU?$pair@W4slot_meta_group@detail@signals2@boost@@V?$optional@H@4@@std@@V?$_List_iterator@V?$_List_val@U?$_List_simple_types@V?$shared_ptr@V?$connection_body@U?$pair@W4slot_meta_group@detail@signals2@boost@@V?$optional@H@4@@std@@V?$slot1@XAAVFileDropEvent@app@cinder@@V?$function@$$A6AXAAVFileDropEvent@app@cinder@@@Z@boost@@@signals2@boost@@Vmutex@45@@detail@signals2@boost@@@boost@@@std@@@std@@@2@@std@@V?$allocator@U?$pair@$$CBU?$pair@W4slot_meta_group@detail@signals2@boost@@V?$optional@H@4@@std@@V?$_List_iterator@V?$_List_val@U?$_List_simple_types@V?$shared_ptr@V?$connection_body@U?$pair@W4slot_meta_group@detail@signals2@boost@@V?$optional@H@4@@std@@V?$slot1@XAAVFileDropEvent@app@cinder@@V?$function@$$A6AXAAVFileDropEvent@app@cinder@@@Z@boost@@@signals2@boost@@Vmutex@45@@detail@signals2@boost@@@boost@@@std@@@std@@@2@@std@@@2@@std@@@std@@QAEPAU?$_Tree_node@U?$pair@$$CBU?$pair@W4slot_meta_group@detail@signals2@boost@@V?$optional@H@4@@std@@V?$_List_iterator@V?$_List_val@U?$_List_simple_types@V?$shared_ptr@V?$connection_body@U?$pair@W4slot_meta_group@detail@signals2@boost@@V?$optional@H@4@@std@@V?$slot1@XAAVFileDropEvent@app@cinder@@V?$function@$$A6AXAAVFileDropEvent@app@cinder@@@Z@boost@@@signals2@boost@@Vmutex@45@@detail@signals2@boost@@@boost@@@std@@@std@@@2@@std@@PAX@2@XZ 004108d0 f i cinder:Window.obj
 0001:0000f8d0       ?_Buyheadnode@?$_Tree_alloc@$0A@U?$_Tree_base_types@U?$pair@$$CBU?$pair@W4slot_meta_group@detail@signals2@boost@@V?$optional@H@4@@std@@V?$_List_iterator@V?$_List_val@U?$_List_simple_types@V?$shared_ptr@V?$connection_body@U?$pair@W4slot_meta_group@detail@signals2@boost@@V?$optional@H@4@@std@@V?$slot1@XAAVMouseEvent@app@cinder@@V?$function@$$A6AXAAVMouseEvent@app@cinder@@@Z@boost@@@signals2@boost@@Vmutex@45@@detail@signals2@boost@@@boost@@@std@@@std@@@2@@std@@V?$allocator@U?$pair@$$CBU?$pair@W4slot_meta_group@detail@signals2@boost@@V?$optional@H@4@@std@@V?$_List_iterator@V?$_List_val@U?$_List_simple_types@V?$shared_ptr@V?$connection_body@U?$pair@W4slot_meta_group@detail@signals2@boost@@V?$optional@H@4@@std@@V?$slot1@XAAVMouseEvent@app@cinder@@V?$function@$$A6AXAAVMouseEvent@app@cinder@@@Z@boost@@@signals2@boost@@Vmutex@45@@detail@signals2@boost@@@boost@@@std@@@std@@@2@@std@@@2@@std@@@std@@QAEPAU?$_Tree_node@U?$pair@$$CBU?$pair@W4slot_meta_group@detail@signals2@boost@@V?$optional@H@4@@std@@V?$_List_iterator@V?$_List_val@U?$_List_simple_types@V?$shared_ptr@V?$connection_body@U?$pair@W4slot_meta_group@detail@signals2@boost@@V?$optional@H@4@@std@@V?$slot1@XAAVMouseEvent@app@cinder@@V?$function@$$A6AXAAVMouseEvent@app@cinder@@@Z@boost@@@signals2@boost@@Vmutex@45@@detail@signals2@boost@@@boost@@@std@@@std@@@2@@std@@PAX@2@XZ 004108d0 f i cinder:Window.obj
 0001:0000f8d0       ?_Buyheadnode@?$_Tree_alloc@$0A@U?$_Tree_base_types@U?$pair@$$CBU?$pair@W4slot_meta_group@detail@signals2@boost@@V?$optional@H@4@@std@@V?$_List_iterator@V?$_List_val@U?$_List_simple_types@V?$shared_ptr@V?$connection_body@U?$pair@W4slot_meta_group@detail@signals2@boost@@V?$optional@H@4@@std@@V?$slot0@XV?$function@$$A6AXXZ@boost@@@signals2@boost@@Vmutex@45@@detail@signals2@boost@@@boost@@@std@@@std@@@2@@std@@V?$allocator@U?$pair@$$CBU?$pair@W4slot_meta_group@detail@signals2@boost@@V?$optional@H@4@@std@@V?$_List_iterator@V?$_List_val@U?$_List_simple_types@V?$shared_ptr@V?$connection_body@U?$pair@W4slot_meta_group@detail@signals2@boost@@V?$optional@H@4@@std@@V?$slot0@XV?$function@$$A6AXXZ@boost@@@signals2@boost@@Vmutex@45@@detail@signals2@boost@@@boost@@@std@@@std@@@2@@std@@@2@@std@@@std@@QAEPAU?$_Tree_node@U?$pair@$$CBU?$pair@W4slot_meta_group@detail@signals2@boost@@V?$optional@H@4@@std@@V?$_List_iterator@V?$_List_val@U?$_List_simple_types@V?$shared_ptr@V?$connection_body@U?$pair@W4slot_meta_group@detail@signals2@boost@@V?$optional@H@4@@std@@V?$slot0@XV?$function@$$A6AXXZ@boost@@@signals2@boost@@Vmutex@45@@detail@signals2@boost@@@boost@@@std@@@std@@@2@@std@@PAX@2@XZ 004108d0 f i cinder:Window.obj
 0001:0000f8d0       ?_Buyheadnode@?$_Tree_alloc@$0A@U?$_Tree_base_types@U?$pair@$$CBU?$pair@W4slot_meta_group@detail@signals2@boost@@V?$optional@H@4@@std@@V?$_List_iterator@V?$_List_val@U?$_List_simple_types@V?$shared_ptr@V?$connection_body@U?$pair@W4slot_meta_group@detail@signals2@boost@@V?$optional@H@4@@std@@V?$slot1@XAAVKeyEvent@app@cinder@@V?$function@$$A6AXAAVKeyEvent@app@cinder@@@Z@boost@@@signals2@boost@@Vmutex@45@@detail@signals2@boost@@@boost@@@std@@@std@@@2@@std@@V?$allocator@U?$pair@$$CBU?$pair@W4slot_meta_group@detail@signals2@boost@@V?$optional@H@4@@std@@V?$_List_iterator@V?$_List_val@U?$_List_simple_types@V?$shared_ptr@V?$connection_body@U?$pair@W4slot_meta_group@detail@signals2@boost@@V?$optional@H@4@@std@@V?$slot1@XAAVKeyEvent@app@cinder@@V?$function@$$A6AXAAVKeyEvent@app@cinder@@@Z@boost@@@signals2@boost@@Vmutex@45@@detail@signals2@boost@@@boost@@@std@@@std@@@2@@std@@@2@@std@@@std@@QAEPAU?$_Tree_node@U?$pair@$$CBU?$pair@W4slot_meta_group@detail@signals2@boost@@V?$optional@H@4@@std@@V?$_List_iterator@V?$_List_val@U?$_List_simple_types@V?$shared_ptr@V?$connection_body@U?$pair@W4slot_meta_group@detail@signals2@boost@@V?$optional@H@4@@std@@V?$slot1@XAAVKeyEvent@app@cinder@@V?$function@$$A6AXAAVKeyEvent@app@cinder@@@Z@boost@@@signals2@boost@@Vmutex@45@@detail@signals2@boost@@@boost@@@std@@@std@@@2@@std@@PAX@2@XZ 004108d0 f i cinder:Window.obj
 0001:0000f8d0       ?_Buyheadnode@?$_Tree_alloc@$0A@U?$_Tree_base_types@U?$pair@QBXUtss_data_node@detail@boost@@@std@@V?$allocator@U?$pair@QBXUtss_data_node@detail@boost@@@std@@@2@@std@@@std@@QAEPAU?$_Tree_node@U?$pair@QBXUtss_data_node@detail@boost@@@std@@PAX@2@XZ 004108d0 f i libboost_thread-vc110-mt-s-1_53:thread.obj
 0001:0000f900       ?_Destroy@?$vector@V?$basic_string@DU?$char_traits@D@std@@V?$allocator@D@2@@std@@V?$allocator@V?$basic_string@DU?$char_traits@D@std@@V?$allocator@D@2@@std@@@2@@std@@IAEXPAV?$basic_string@DU?$char_traits@D@std@@V?$allocator@D@2@@2@0@Z 00410900 f i cinder:AppBasic.obj
 0001:0000f940       ?_Erase@?$_Tree@V?$_Tmap_traits@U?$pair@W4slot_meta_group@detail@signals2@boost@@V?$optional@H@4@@std@@V?$_List_iterator@V?$_List_val@U?$_List_simple_types@V?$shared_ptr@V?$connection_body@U?$pair@W4slot_meta_group@detail@signals2@boost@@V?$optional@H@4@@std@@V?$slot0@XV?$function@$$A6AXXZ@boost@@@signals2@boost@@Vmutex@45@@detail@signals2@boost@@@boost@@@std@@@std@@@2@V?$group_key_less@HU?$less@H@std@@@detail@signals2@boost@@V?$allocator@U?$pair@$$CBU?$pair@W4slot_meta_group@detail@signals2@boost@@V?$optional@H@4@@std@@V?$_List_iterator@V?$_List_val@U?$_List_simple_types@V?$shared_ptr@V?$connection_body@U?$pair@W4slot_meta_group@detail@signals2@boost@@V?$optional@H@4@@std@@V?$slot0@XV?$function@$$A6AXXZ@boost@@@signals2@boost@@Vmutex@45@@detail@signals2@boost@@@boost@@@std@@@std@@@2@@std@@@2@$0A@@std@@@std@@IAEXPAU?$_Tree_node@U?$pair@$$CBU?$pair@W4slot_meta_group@detail@signals2@boost@@V?$optional@H@4@@std@@V?$_List_iterator@V?$_List_val@U?$_List_simple_types@V?$shared_ptr@V?$connection_body@U?$pair@W4slot_meta_group@detail@signals2@boost@@V?$optional@H@4@@std@@V?$slot0@XV?$function@$$A6AXXZ@boost@@@signals2@boost@@Vmutex@45@@detail@signals2@boost@@@boost@@@std@@@std@@@2@@std@@PAX@2@@Z 00410940 f i cinder:Window.obj
 0001:0000f940       ?_Erase@?$_Tree@V?$_Tmap_traits@U?$pair@W4slot_meta_group@detail@signals2@boost@@V?$optional@H@4@@std@@V?$_List_iterator@V?$_List_val@U?$_List_simple_types@V?$shared_ptr@V?$connection_body@U?$pair@W4slot_meta_group@detail@signals2@boost@@V?$optional@H@4@@std@@V?$slot1@XAAVKeyEvent@app@cinder@@V?$function@$$A6AXAAVKeyEvent@app@cinder@@@Z@boost@@@signals2@boost@@Vmutex@45@@detail@signals2@boost@@@boost@@@std@@@std@@@2@V?$group_key_less@HU?$less@H@std@@@detail@signals2@boost@@V?$allocator@U?$pair@$$CBU?$pair@W4slot_meta_group@detail@signals2@boost@@V?$optional@H@4@@std@@V?$_List_iterator@V?$_List_val@U?$_List_simple_types@V?$shared_ptr@V?$connection_body@U?$pair@W4slot_meta_group@detail@signals2@boost@@V?$optional@H@4@@std@@V?$slot1@XAAVKeyEvent@app@cinder@@V?$function@$$A6AXAAVKeyEvent@app@cinder@@@Z@boost@@@signals2@boost@@Vmutex@45@@detail@signals2@boost@@@boost@@@std@@@std@@@2@@std@@@2@$0A@@std@@@std@@IAEXPAU?$_Tree_node@U?$pair@$$CBU?$pair@W4slot_meta_group@detail@signals2@boost@@V?$optional@H@4@@std@@V?$_List_iterator@V?$_List_val@U?$_List_simple_types@V?$shared_ptr@V?$connection_body@U?$pair@W4slot_meta_group@detail@signals2@boost@@V?$optional@H@4@@std@@V?$slot1@XAAVKeyEvent@app@cinder@@V?$function@$$A6AXAAVKeyEvent@app@cinder@@@Z@boost@@@signals2@boost@@Vmutex@45@@detail@signals2@boost@@@boost@@@std@@@std@@@2@@std@@PAX@2@@Z 00410940 f i cinder:Window.obj
 0001:0000f940       ?_Erase@?$_Tree@V?$_Tmap_traits@U?$pair@W4slot_meta_group@detail@signals2@boost@@V?$optional@H@4@@std@@V?$_List_iterator@V?$_List_val@U?$_List_simple_types@V?$shared_ptr@V?$connection_body@U?$pair@W4slot_meta_group@detail@signals2@boost@@V?$optional@H@4@@std@@V?$slot1@XAAVTouchEvent@app@cinder@@V?$function@$$A6AXAAVTouchEvent@app@cinder@@@Z@boost@@@signals2@boost@@Vmutex@45@@detail@signals2@boost@@@boost@@@std@@@std@@@2@V?$group_key_less@HU?$less@H@std@@@detail@signals2@boost@@V?$allocator@U?$pair@$$CBU?$pair@W4slot_meta_group@detail@signals2@boost@@V?$optional@H@4@@std@@V?$_List_iterator@V?$_List_val@U?$_List_simple_types@V?$shared_ptr@V?$connection_body@U?$pair@W4slot_meta_group@detail@signals2@boost@@V?$optional@H@4@@std@@V?$slot1@XAAVTouchEvent@app@cinder@@V?$function@$$A6AXAAVTouchEvent@app@cinder@@@Z@boost@@@signals2@boost@@Vmutex@45@@detail@signals2@boost@@@boost@@@std@@@std@@@2@@std@@@2@$0A@@std@@@std@@IAEXPAU?$_Tree_node@U?$pair@$$CBU?$pair@W4slot_meta_group@detail@signals2@boost@@V?$optional@H@4@@std@@V?$_List_iterator@V?$_List_val@U?$_List_simple_types@V?$shared_ptr@V?$connection_body@U?$pair@W4slot_meta_group@detail@signals2@boost@@V?$optional@H@4@@std@@V?$slot1@XAAVTouchEvent@app@cinder@@V?$function@$$A6AXAAVTouchEvent@app@cinder@@@Z@boost@@@signals2@boost@@Vmutex@45@@detail@signals2@boost@@@boost@@@std@@@std@@@2@@std@@PAX@2@@Z 00410940 f i cinder:Window.obj
 0001:0000f940       ?_Erase@?$_Tree@V?$_Tmap_traits@U?$pair@W4slot_meta_group@detail@signals2@boost@@V?$optional@H@4@@std@@V?$_List_iterator@V?$_List_val@U?$_List_simple_types@V?$shared_ptr@V?$connection_body@U?$pair@W4slot_meta_group@detail@signals2@boost@@V?$optional@H@4@@std@@V?$slot1@XAAVFileDropEvent@app@cinder@@V?$function@$$A6AXAAVFileDropEvent@app@cinder@@@Z@boost@@@signals2@boost@@Vmutex@45@@detail@signals2@boost@@@boost@@@std@@@std@@@2@V?$group_key_less@HU?$less@H@std@@@detail@signals2@boost@@V?$allocator@U?$pair@$$CBU?$pair@W4slot_meta_group@detail@signals2@boost@@V?$optional@H@4@@std@@V?$_List_iterator@V?$_List_val@U?$_List_simple_types@V?$shared_ptr@V?$connection_body@U?$pair@W4slot_meta_group@detail@signals2@boost@@V?$optional@H@4@@std@@V?$slot1@XAAVFileDropEvent@app@cinder@@V?$function@$$A6AXAAVFileDropEvent@app@cinder@@@Z@boost@@@signals2@boost@@Vmutex@45@@detail@signals2@boost@@@boost@@@std@@@std@@@2@@std@@@2@$0A@@std@@@std@@IAEXPAU?$_Tree_node@U?$pair@$$CBU?$pair@W4slot_meta_group@detail@signals2@boost@@V?$optional@H@4@@std@@V?$_List_iterator@V?$_List_val@U?$_List_simple_types@V?$shared_ptr@V?$connection_body@U?$pair@W4slot_meta_group@detail@signals2@boost@@V?$optional@H@4@@std@@V?$slot1@XAAVFileDropEvent@app@cinder@@V?$function@$$A6AXAAVFileDropEvent@app@cinder@@@Z@boost@@@signals2@boost@@Vmutex@45@@detail@signals2@boost@@@boost@@@std@@@std@@@2@@std@@PAX@2@@Z 00410940 f i cinder:Window.obj
 0001:0000f940       ?_Erase@?$_Tree@V?$_Tmap_traits@U?$pair@W4slot_meta_group@detail@signals2@boost@@V?$optional@H@4@@std@@V?$_List_iterator@V?$_List_val@U?$_List_simple_types@V?$shared_ptr@V?$connection_body@U?$pair@W4slot_meta_group@detail@signals2@boost@@V?$optional@H@4@@std@@V?$slot1@XAAVMouseEvent@app@cinder@@V?$function@$$A6AXAAVMouseEvent@app@cinder@@@Z@boost@@@signals2@boost@@Vmutex@45@@detail@signals2@boost@@@boost@@@std@@@std@@@2@V?$group_key_less@HU?$less@H@std@@@detail@signals2@boost@@V?$allocator@U?$pair@$$CBU?$pair@W4slot_meta_group@detail@signals2@boost@@V?$optional@H@4@@std@@V?$_List_iterator@V?$_List_val@U?$_List_simple_types@V?$shared_ptr@V?$connection_body@U?$pair@W4slot_meta_group@detail@signals2@boost@@V?$optional@H@4@@std@@V?$slot1@XAAVMouseEvent@app@cinder@@V?$function@$$A6AXAAVMouseEvent@app@cinder@@@Z@boost@@@signals2@boost@@Vmutex@45@@detail@signals2@boost@@@boost@@@std@@@std@@@2@@std@@@2@$0A@@std@@@std@@IAEXPAU?$_Tree_node@U?$pair@$$CBU?$pair@W4slot_meta_group@detail@signals2@boost@@V?$optional@H@4@@std@@V?$_List_iterator@V?$_List_val@U?$_List_simple_types@V?$shared_ptr@V?$connection_body@U?$pair@W4slot_meta_group@detail@signals2@boost@@V?$optional@H@4@@std@@V?$slot1@XAAVMouseEvent@app@cinder@@V?$function@$$A6AXAAVMouseEvent@app@cinder@@@Z@boost@@@signals2@boost@@Vmutex@45@@detail@signals2@boost@@@boost@@@std@@@std@@@2@@std@@PAX@2@@Z 00410940 f i cinder:Window.obj
 0001:0000f940       ?_Erase@?$_Tree@V?$_Tmap_traits@U?$pair@W4slot_meta_group@detail@signals2@boost@@V?$optional@H@4@@std@@V?$_List_iterator@V?$_List_val@U?$_List_simple_types@V?$shared_ptr@V?$connection_body@U?$pair@W4slot_meta_group@detail@signals2@boost@@V?$optional@H@4@@std@@V?$slot0@_NV?$function@$$A6A_NXZ@boost@@@signals2@boost@@Vmutex@45@@detail@signals2@boost@@@boost@@@std@@@std@@@2@V?$group_key_less@HU?$less@H@std@@@detail@signals2@boost@@V?$allocator@U?$pair@$$CBU?$pair@W4slot_meta_group@detail@signals2@boost@@V?$optional@H@4@@std@@V?$_List_iterator@V?$_List_val@U?$_List_simple_types@V?$shared_ptr@V?$connection_body@U?$pair@W4slot_meta_group@detail@signals2@boost@@V?$optional@H@4@@std@@V?$slot0@_NV?$function@$$A6A_NXZ@boost@@@signals2@boost@@Vmutex@45@@detail@signals2@boost@@@boost@@@std@@@std@@@2@@std@@@2@$0A@@std@@@std@@IAEXPAU?$_Tree_node@U?$pair@$$CBU?$pair@W4slot_meta_group@detail@signals2@boost@@V?$optional@H@4@@std@@V?$_List_iterator@V?$_List_val@U?$_List_simple_types@V?$shared_ptr@V?$connection_body@U?$pair@W4slot_meta_group@detail@signals2@boost@@V?$optional@H@4@@std@@V?$slot0@_NV?$function@$$A6A_NXZ@boost@@@signals2@boost@@Vmutex@45@@detail@signals2@boost@@@boost@@@std@@@std@@@2@@std@@PAX@2@@Z 00410940 f i cinder:AppBasic.obj
 0001:0000f990       ?_Get_deleter@?$_Ref_count_del@V?$basic_ostream@DU?$char_traits@D@std@@@std@@V<lambda_69588d13dcacf0fdf4c116f96accf98f>@@@std@@UBEPAXABVtype_info@@@Z 00410990 f i cinder:AppBasic.obj
 0001:0000f9c0       ?_Reallocate@?$vector@V?$basic_string@DU?$char_traits@D@std@@V?$allocator@D@2@@std@@V?$allocator@V?$basic_string@DU?$char_traits@D@std@@V?$allocator@D@2@@std@@@2@@std@@IAEXI@Z 004109c0 f i cinder:AppBasic.obj
 0001:0000fab0       ?_Reserve@?$vector@V?$basic_string@DU?$char_traits@D@std@@V?$allocator@D@2@@std@@V?$allocator@V?$basic_string@DU?$char_traits@D@std@@V?$allocator@D@2@@std@@@2@@std@@IAEXI@Z 00410ab0 f i cinder:AppBasic.obj
 0001:0000fb60       ?assign@?$basic_string@_WU?$char_traits@_W@std@@V?$allocator@_W@2@@std@@QAEAAV12@PB_WI@Z 00410b60 f i cinder:AppBasic.obj
 0001:0000fc60       ?clear@?$list@V?$shared_ptr@V?$connection_body@U?$pair@W4slot_meta_group@detail@signals2@boost@@V?$optional@H@4@@std@@V?$slot1@XAAVKeyEvent@app@cinder@@V?$function@$$A6AXAAVKeyEvent@app@cinder@@@Z@boost@@@signals2@boost@@Vmutex@45@@detail@signals2@boost@@@boost@@V?$allocator@V?$shared_ptr@V?$connection_body@U?$pair@W4slot_meta_group@detail@signals2@boost@@V?$optional@H@4@@std@@V?$slot1@XAAVKeyEvent@app@cinder@@V?$function@$$A6AXAAVKeyEvent@app@cinder@@@Z@boost@@@signals2@boost@@Vmutex@45@@detail@signals2@boost@@@boost@@@std@@@std@@QAEXXZ 00410c60 f i cinder:Window.obj
 0001:0000fc60       ?clear@?$list@V?$shared_ptr@V?$connection_body@U?$pair@W4slot_meta_group@detail@signals2@boost@@V?$optional@H@4@@std@@V?$slot0@_NV?$function@$$A6A_NXZ@boost@@@signals2@boost@@Vmutex@45@@detail@signals2@boost@@@boost@@V?$allocator@V?$shared_ptr@V?$connection_body@U?$pair@W4slot_meta_group@detail@signals2@boost@@V?$optional@H@4@@std@@V?$slot0@_NV?$function@$$A6A_NXZ@boost@@@signals2@boost@@Vmutex@45@@detail@signals2@boost@@@boost@@@std@@@std@@QAEXXZ 00410c60 f i cinder:AppBasic.obj
 0001:0000fc60       ?clear@?$list@V?$shared_ptr@V?$connection_body@U?$pair@W4slot_meta_group@detail@signals2@boost@@V?$optional@H@4@@std@@V?$slot1@XAAVFileDropEvent@app@cinder@@V?$function@$$A6AXAAVFileDropEvent@app@cinder@@@Z@boost@@@signals2@boost@@Vmutex@45@@detail@signals2@boost@@@boost@@V?$allocator@V?$shared_ptr@V?$connection_body@U?$pair@W4slot_meta_group@detail@signals2@boost@@V?$optional@H@4@@std@@V?$slot1@XAAVFileDropEvent@app@cinder@@V?$function@$$A6AXAAVFileDropEvent@app@cinder@@@Z@boost@@@signals2@boost@@Vmutex@45@@detail@signals2@boost@@@boost@@@std@@@std@@QAEXXZ 00410c60 f i cinder:Window.obj
 0001:0000fc60       ?clear@?$list@V?$shared_ptr@V?$connection_body@U?$pair@W4slot_meta_group@detail@signals2@boost@@V?$optional@H@4@@std@@V?$slot0@XV?$function@$$A6AXXZ@boost@@@signals2@boost@@Vmutex@45@@detail@signals2@boost@@@boost@@V?$allocator@V?$shared_ptr@V?$connection_body@U?$pair@W4slot_meta_group@detail@signals2@boost@@V?$optional@H@4@@std@@V?$slot0@XV?$function@$$A6AXXZ@boost@@@signals2@boost@@Vmutex@45@@detail@signals2@boost@@@boost@@@std@@@std@@QAEXXZ 00410c60 f i cinder:Window.obj
 0001:0000fc60       ?clear@?$list@V?$shared_ptr@V?$connection_body@U?$pair@W4slot_meta_group@detail@signals2@boost@@V?$optional@H@4@@std@@V?$slot1@XAAVMouseEvent@app@cinder@@V?$function@$$A6AXAAVMouseEvent@app@cinder@@@Z@boost@@@signals2@boost@@Vmutex@45@@detail@signals2@boost@@@boost@@V?$allocator@V?$shared_ptr@V?$connection_body@U?$pair@W4slot_meta_group@detail@signals2@boost@@V?$optional@H@4@@std@@V?$slot1@XAAVMouseEvent@app@cinder@@V?$function@$$A6AXAAVMouseEvent@app@cinder@@@Z@boost@@@signals2@boost@@Vmutex@45@@detail@signals2@boost@@@boost@@@std@@@std@@QAEXXZ 00410c60 f i cinder:Window.obj
 0001:0000fc60       ?clear@?$list@V?$shared_ptr@V?$connection_body@U?$pair@W4slot_meta_group@detail@signals2@boost@@V?$optional@H@4@@std@@V?$slot1@XAAVTouchEvent@app@cinder@@V?$function@$$A6AXAAVTouchEvent@app@cinder@@@Z@boost@@@signals2@boost@@Vmutex@45@@detail@signals2@boost@@@boost@@V?$allocator@V?$shared_ptr@V?$connection_body@U?$pair@W4slot_meta_group@detail@signals2@boost@@V?$optional@H@4@@std@@V?$slot1@XAAVTouchEvent@app@cinder@@V?$function@$$A6AXAAVTouchEvent@app@cinder@@@Z@boost@@@signals2@boost@@Vmutex@45@@detail@signals2@boost@@@boost@@@std@@@std@@QAEXXZ 00410c60 f i cinder:Window.obj
 0001:0000fcd0       ?disableFrameRate@AppBasic@app@cinder@@UAEXXZ 00410cd0 f   cinder:AppBasic.obj
 0001:0000fce0       ?dispose@?$sp_counted_impl_p@V?$signal0_impl@_NUBooleanAndEventCombiner@app@cinder@@HU?$less@H@std@@V?$function@$$A6A_NXZ@boost@@V?$function@$$A6A_NABVconnection@signals2@boost@@@Z@7@Vmutex@signals2@7@@detail@signals2@boost@@@detail@boost@@UAEXXZ 00410ce0 f i cinder:AppBasic.obj
 0001:0000fce0       ?dispose@?$sp_counted_impl_p@V?$signal1_impl@XAAVTouchEvent@app@cinder@@U?$EventCombiner@VTouchEvent@app@cinder@@@23@HU?$less@H@std@@V?$function@$$A6AXAAVTouchEvent@app@cinder@@@Z@boost@@V?$function@$$A6AXABVconnection@signals2@boost@@AAVTouchEvent@app@cinder@@@Z@8@Vmutex@signals2@8@@detail@signals2@boost@@@detail@boost@@UAEXXZ 00410ce0 f i cinder:AppImplMsw.obj
 0001:0000fce0       ?dispose@?$sp_counted_impl_p@V?$signal1_impl@XAAVFileDropEvent@app@cinder@@U?$EventCombiner@VFileDropEvent@app@cinder@@@23@HU?$less@H@std@@V?$function@$$A6AXAAVFileDropEvent@app@cinder@@@Z@boost@@V?$function@$$A6AXABVconnection@signals2@boost@@AAVFileDropEvent@app@cinder@@@Z@8@Vmutex@signals2@8@@detail@signals2@boost@@@detail@boost@@UAEXXZ 00410ce0 f i cinder:AppImplMsw.obj
 0001:0000fce0       ?dispose@?$sp_counted_impl_p@V?$signal0_impl@XV?$optional_last_value@X@signals2@boost@@HU?$less@H@std@@V?$function@$$A6AXXZ@3@V?$function@$$A6AXABVconnection@signals2@boost@@@Z@3@Vmutex@23@@detail@signals2@boost@@@detail@boost@@UAEXXZ 00410ce0 f i cinder:App.obj
 0001:0000fce0       ?dispose@?$sp_counted_impl_p@V?$signal1_impl@XAAVKeyEvent@app@cinder@@U?$EventCombiner@VKeyEvent@app@cinder@@@23@HU?$less@H@std@@V?$function@$$A6AXAAVKeyEvent@app@cinder@@@Z@boost@@V?$function@$$A6AXABVconnection@signals2@boost@@AAVKeyEvent@app@cinder@@@Z@8@Vmutex@signals2@8@@detail@signals2@boost@@@detail@boost@@UAEXXZ 00410ce0 f i cinder:AppImplMsw.obj
 0001:0000fce0       ?dispose@?$sp_counted_impl_p@V?$signal1_impl@XAAVMouseEvent@app@cinder@@U?$EventCombiner@VMouseEvent@app@cinder@@@23@HU?$less@H@std@@V?$function@$$A6AXAAVMouseEvent@app@cinder@@@Z@boost@@V?$function@$$A6AXABVconnection@signals2@boost@@AAVMouseEvent@app@cinder@@@Z@8@Vmutex@signals2@8@@detail@signals2@boost@@@detail@boost@@UAEXXZ 00410ce0 f i cinder:AppImplMsw.obj
 0001:0000fd30       ?erase@?$_Tree@V?$_Tmap_traits@U?$pair@W4slot_meta_group@detail@signals2@boost@@V?$optional@H@4@@std@@V?$_List_iterator@V?$_List_val@U?$_List_simple_types@V?$shared_ptr@V?$connection_body@U?$pair@W4slot_meta_group@detail@signals2@boost@@V?$optional@H@4@@std@@V?$slot1@XAAVTouchEvent@app@cinder@@V?$function@$$A6AXAAVTouchEvent@app@cinder@@@Z@boost@@@signals2@boost@@Vmutex@45@@detail@signals2@boost@@@boost@@@std@@@std@@@2@V?$group_key_less@HU?$less@H@std@@@detail@signals2@boost@@V?$allocator@U?$pair@$$CBU?$pair@W4slot_meta_group@detail@signals2@boost@@V?$optional@H@4@@std@@V?$_List_iterator@V?$_List_val@U?$_List_simple_types@V?$shared_ptr@V?$connection_body@U?$pair@W4slot_meta_group@detail@signals2@boost@@V?$optional@H@4@@std@@V?$slot1@XAAVTouchEvent@app@cinder@@V?$function@$$A6AXAAVTouchEvent@app@cinder@@@Z@boost@@@signals2@boost@@Vmutex@45@@detail@signals2@boost@@@boost@@@std@@@std@@@2@@std@@@2@$0A@@std@@@std@@QAE?AV?$_Tree_iterator@V?$_Tree_val@U?$_Tree_simple_types@U?$pair@$$CBU?$pair@W4slot_meta_group@detail@signals2@boost@@V?$optional@H@4@@std@@V?$_List_iterator@V?$_List_val@U?$_List_simple_types@V?$shared_ptr@V?$connection_body@U?$pair@W4slot_meta_group@detail@signals2@boost@@V?$optional@H@4@@std@@V?$slot1@XAAVTouchEvent@app@cinder@@V?$function@$$A6AXAAVTouchEvent@app@cinder@@@Z@boost@@@signals2@boost@@Vmutex@45@@detail@signals2@boost@@@boost@@@std@@@std@@@2@@std@@@std@@@std@@@2@V?$_Tree_const_iterator@V?$_Tree_val@U?$_Tree_simple_types@U?$pair@$$CBU?$pair@W4slot_meta_group@detail@signals2@boost@@V?$optional@H@4@@std@@V?$_List_iterator@V?$_List_val@U?$_List_simple_types@V?$shared_ptr@V?$connection_body@U?$pair@W4slot_meta_group@detail@signals2@boost@@V?$optional@H@4@@std@@V?$slot1@XAAVTouchEvent@app@cinder@@V?$function@$$A6AXAAVTouchEvent@app@cinder@@@Z@boost@@@signals2@boost@@Vmutex@45@@detail@signals2@boost@@@boost@@@std@@@std@@@2@@std@@@std@@@std@@@2@0@Z 00410d30 f i cinder:Window.obj
 0001:0000fd30       ?erase@?$_Tree@V?$_Tmap_traits@U?$pair@W4slot_meta_group@detail@signals2@boost@@V?$optional@H@4@@std@@V?$_List_iterator@V?$_List_val@U?$_List_simple_types@V?$shared_ptr@V?$connection_body@U?$pair@W4slot_meta_group@detail@signals2@boost@@V?$optional@H@4@@std@@V?$slot1@XAAVMouseEvent@app@cinder@@V?$function@$$A6AXAAVMouseEvent@app@cinder@@@Z@boost@@@signals2@boost@@Vmutex@45@@detail@signals2@boost@@@boost@@@std@@@std@@@2@V?$group_key_less@HU?$less@H@std@@@detail@signals2@boost@@V?$allocator@U?$pair@$$CBU?$pair@W4slot_meta_group@detail@signals2@boost@@V?$optional@H@4@@std@@V?$_List_iterator@V?$_List_val@U?$_List_simple_types@V?$shared_ptr@V?$connection_body@U?$pair@W4slot_meta_group@detail@signals2@boost@@V?$optional@H@4@@std@@V?$slot1@XAAVMouseEvent@app@cinder@@V?$function@$$A6AXAAVMouseEvent@app@cinder@@@Z@boost@@@signals2@boost@@Vmutex@45@@detail@signals2@boost@@@boost@@@std@@@std@@@2@@std@@@2@$0A@@std@@@std@@QAE?AV?$_Tree_iterator@V?$_Tree_val@U?$_Tree_simple_types@U?$pair@$$CBU?$pair@W4slot_meta_group@detail@signals2@boost@@V?$optional@H@4@@std@@V?$_List_iterator@V?$_List_val@U?$_List_simple_types@V?$shared_ptr@V?$connection_body@U?$pair@W4slot_meta_group@detail@signals2@boost@@V?$optional@H@4@@std@@V?$slot1@XAAVMouseEvent@app@cinder@@V?$function@$$A6AXAAVMouseEvent@app@cinder@@@Z@boost@@@signals2@boost@@Vmutex@45@@detail@signals2@boost@@@boost@@@std@@@std@@@2@@std@@@std@@@std@@@2@V?$_Tree_const_iterator@V?$_Tree_val@U?$_Tree_simple_types@U?$pair@$$CBU?$pair@W4slot_meta_group@detail@signals2@boost@@V?$optional@H@4@@std@@V?$_List_iterator@V?$_List_val@U?$_List_simple_types@V?$shared_ptr@V?$connection_body@U?$pair@W4slot_meta_group@detail@signals2@boost@@V?$optional@H@4@@std@@V?$slot1@XAAVMouseEvent@app@cinder@@V?$function@$$A6AXAAVMouseEvent@app@cinder@@@Z@boost@@@signals2@boost@@Vmutex@45@@detail@signals2@boost@@@boost@@@std@@@std@@@2@@std@@@std@@@std@@@2@0@Z 00410d30 f i cinder:Window.obj
 0001:0000fd30       ?erase@?$_Tree@V?$_Tmap_traits@U?$pair@W4slot_meta_group@detail@signals2@boost@@V?$optional@H@4@@std@@V?$_List_iterator@V?$_List_val@U?$_List_simple_types@V?$shared_ptr@V?$connection_body@U?$pair@W4slot_meta_group@detail@signals2@boost@@V?$optional@H@4@@std@@V?$slot0@_NV?$function@$$A6A_NXZ@boost@@@signals2@boost@@Vmutex@45@@detail@signals2@boost@@@boost@@@std@@@std@@@2@V?$group_key_less@HU?$less@H@std@@@detail@signals2@boost@@V?$allocator@U?$pair@$$CBU?$pair@W4slot_meta_group@detail@signals2@boost@@V?$optional@H@4@@std@@V?$_List_iterator@V?$_List_val@U?$_List_simple_types@V?$shared_ptr@V?$connection_body@U?$pair@W4slot_meta_group@detail@signals2@boost@@V?$optional@H@4@@std@@V?$slot0@_NV?$function@$$A6A_NXZ@boost@@@signals2@boost@@Vmutex@45@@detail@signals2@boost@@@boost@@@std@@@std@@@2@@std@@@2@$0A@@std@@@std@@QAE?AV?$_Tree_iterator@V?$_Tree_val@U?$_Tree_simple_types@U?$pair@$$CBU?$pair@W4slot_meta_group@detail@signals2@boost@@V?$optional@H@4@@std@@V?$_List_iterator@V?$_List_val@U?$_List_simple_types@V?$shared_ptr@V?$connection_body@U?$pair@W4slot_meta_group@detail@signals2@boost@@V?$optional@H@4@@std@@V?$slot0@_NV?$function@$$A6A_NXZ@boost@@@signals2@boost@@Vmutex@45@@detail@signals2@boost@@@boost@@@std@@@std@@@2@@std@@@std@@@std@@@2@V?$_Tree_const_iterator@V?$_Tree_val@U?$_Tree_simple_types@U?$pair@$$CBU?$pair@W4slot_meta_group@detail@signals2@boost@@V?$optional@H@4@@std@@V?$_List_iterator@V?$_List_val@U?$_List_simple_types@V?$shared_ptr@V?$connection_body@U?$pair@W4slot_meta_group@detail@signals2@boost@@V?$optional@H@4@@std@@V?$slot0@_NV?$function@$$A6A_NXZ@boost@@@signals2@boost@@Vmutex@45@@detail@signals2@boost@@@boost@@@std@@@std@@@2@@std@@@std@@@std@@@2@0@Z 00410d30 f i cinder:AppBasic.obj
 0001:0000fd30       ?erase@?$_Tree@V?$_Tmap_traits@U?$pair@W4slot_meta_group@detail@signals2@boost@@V?$optional@H@4@@std@@V?$_List_iterator@V?$_List_val@U?$_List_simple_types@V?$shared_ptr@V?$connection_body@U?$pair@W4slot_meta_group@detail@signals2@boost@@V?$optional@H@4@@std@@V?$slot0@XV?$function@$$A6AXXZ@boost@@@signals2@boost@@Vmutex@45@@detail@signals2@boost@@@boost@@@std@@@std@@@2@V?$group_key_less@HU?$less@H@std@@@detail@signals2@boost@@V?$allocator@U?$pair@$$CBU?$pair@W4slot_meta_group@detail@signals2@boost@@V?$optional@H@4@@std@@V?$_List_iterator@V?$_List_val@U?$_List_simple_types@V?$shared_ptr@V?$connection_body@U?$pair@W4slot_meta_group@detail@signals2@boost@@V?$optional@H@4@@std@@V?$slot0@XV?$function@$$A6AXXZ@boost@@@signals2@boost@@Vmutex@45@@detail@signals2@boost@@@boost@@@std@@@std@@@2@@std@@@2@$0A@@std@@@std@@QAE?AV?$_Tree_iterator@V?$_Tree_val@U?$_Tree_simple_types@U?$pair@$$CBU?$pair@W4slot_meta_group@detail@signals2@boost@@V?$optional@H@4@@std@@V?$_List_iterator@V?$_List_val@U?$_List_simple_types@V?$shared_ptr@V?$connection_body@U?$pair@W4slot_meta_group@detail@signals2@boost@@V?$optional@H@4@@std@@V?$slot0@XV?$function@$$A6AXXZ@boost@@@signals2@boost@@Vmutex@45@@detail@signals2@boost@@@boost@@@std@@@std@@@2@@std@@@std@@@std@@@2@V?$_Tree_const_iterator@V?$_Tree_val@U?$_Tree_simple_types@U?$pair@$$CBU?$pair@W4slot_meta_group@detail@signals2@boost@@V?$optional@H@4@@std@@V?$_List_iterator@V?$_List_val@U?$_List_simple_types@V?$shared_ptr@V?$connection_body@U?$pair@W4slot_meta_group@detail@signals2@boost@@V?$optional@H@4@@std@@V?$slot0@XV?$function@$$A6AXXZ@boost@@@signals2@boost@@Vmutex@45@@detail@signals2@boost@@@boost@@@std@@@std@@@2@@std@@@std@@@std@@@2@0@Z 00410d30 f i cinder:Window.obj
 0001:0000fd30       ?erase@?$_Tree@V?$_Tmap_traits@U?$pair@W4slot_meta_group@detail@signals2@boost@@V?$optional@H@4@@std@@V?$_List_iterator@V?$_List_val@U?$_List_simple_types@V?$shared_ptr@V?$connection_body@U?$pair@W4slot_meta_group@detail@signals2@boost@@V?$optional@H@4@@std@@V?$slot1@XAAVKeyEvent@app@cinder@@V?$function@$$A6AXAAVKeyEvent@app@cinder@@@Z@boost@@@signals2@boost@@Vmutex@45@@detail@signals2@boost@@@boost@@@std@@@std@@@2@V?$group_key_less@HU?$less@H@std@@@detail@signals2@boost@@V?$allocator@U?$pair@$$CBU?$pair@W4slot_meta_group@detail@signals2@boost@@V?$optional@H@4@@std@@V?$_List_iterator@V?$_List_val@U?$_List_simple_types@V?$shared_ptr@V?$connection_body@U?$pair@W4slot_meta_group@detail@signals2@boost@@V?$optional@H@4@@std@@V?$slot1@XAAVKeyEvent@app@cinder@@V?$function@$$A6AXAAVKeyEvent@app@cinder@@@Z@boost@@@signals2@boost@@Vmutex@45@@detail@signals2@boost@@@boost@@@std@@@std@@@2@@std@@@2@$0A@@std@@@std@@QAE?AV?$_Tree_iterator@V?$_Tree_val@U?$_Tree_simple_types@U?$pair@$$CBU?$pair@W4slot_meta_group@detail@signals2@boost@@V?$optional@H@4@@std@@V?$_List_iterator@V?$_List_val@U?$_List_simple_types@V?$shared_ptr@V?$connection_body@U?$pair@W4slot_meta_group@detail@signals2@boost@@V?$optional@H@4@@std@@V?$slot1@XAAVKeyEvent@app@cinder@@V?$function@$$A6AXAAVKeyEvent@app@cinder@@@Z@boost@@@signals2@boost@@Vmutex@45@@detail@signals2@boost@@@boost@@@std@@@std@@@2@@std@@@std@@@std@@@2@V?$_Tree_const_iterator@V?$_Tree_val@U?$_Tree_simple_types@U?$pair@$$CBU?$pair@W4slot_meta_group@detail@signals2@boost@@V?$optional@H@4@@std@@V?$_List_iterator@V?$_List_val@U?$_List_simple_types@V?$shared_ptr@V?$connection_body@U?$pair@W4slot_meta_group@detail@signals2@boost@@V?$optional@H@4@@std@@V?$slot1@XAAVKeyEvent@app@cinder@@V?$function@$$A6AXAAVKeyEvent@app@cinder@@@Z@boost@@@signals2@boost@@Vmutex@45@@detail@signals2@boost@@@boost@@@std@@@std@@@2@@std@@@std@@@std@@@2@0@Z 00410d30 f i cinder:Window.obj
 0001:0000fd30       ?erase@?$_Tree@V?$_Tmap_traits@U?$pair@W4slot_meta_group@detail@signals2@boost@@V?$optional@H@4@@std@@V?$_List_iterator@V?$_List_val@U?$_List_simple_types@V?$shared_ptr@V?$connection_body@U?$pair@W4slot_meta_group@detail@signals2@boost@@V?$optional@H@4@@std@@V?$slot1@XAAVFileDropEvent@app@cinder@@V?$function@$$A6AXAAVFileDropEvent@app@cinder@@@Z@boost@@@signals2@boost@@Vmutex@45@@detail@signals2@boost@@@boost@@@std@@@std@@@2@V?$group_key_less@HU?$less@H@std@@@detail@signals2@boost@@V?$allocator@U?$pair@$$CBU?$pair@W4slot_meta_group@detail@signals2@boost@@V?$optional@H@4@@std@@V?$_List_iterator@V?$_List_val@U?$_List_simple_types@V?$shared_ptr@V?$connection_body@U?$pair@W4slot_meta_group@detail@signals2@boost@@V?$optional@H@4@@std@@V?$slot1@XAAVFileDropEvent@app@cinder@@V?$function@$$A6AXAAVFileDropEvent@app@cinder@@@Z@boost@@@signals2@boost@@Vmutex@45@@detail@signals2@boost@@@boost@@@std@@@std@@@2@@std@@@2@$0A@@std@@@std@@QAE?AV?$_Tree_iterator@V?$_Tree_val@U?$_Tree_simple_types@U?$pair@$$CBU?$pair@W4slot_meta_group@detail@signals2@boost@@V?$optional@H@4@@std@@V?$_List_iterator@V?$_List_val@U?$_List_simple_types@V?$shared_ptr@V?$connection_body@U?$pair@W4slot_meta_group@detail@signals2@boost@@V?$optional@H@4@@std@@V?$slot1@XAAVFileDropEvent@app@cinder@@V?$function@$$A6AXAAVFileDropEvent@app@cinder@@@Z@boost@@@signals2@boost@@Vmutex@45@@detail@signals2@boost@@@boost@@@std@@@std@@@2@@std@@@std@@@std@@@2@V?$_Tree_const_iterator@V?$_Tree_val@U?$_Tree_simple_types@U?$pair@$$CBU?$pair@W4slot_meta_group@detail@signals2@boost@@V?$optional@H@4@@std@@V?$_List_iterator@V?$_List_val@U?$_List_simple_types@V?$shared_ptr@V?$connection_body@U?$pair@W4slot_meta_group@detail@signals2@boost@@V?$optional@H@4@@std@@V?$slot1@XAAVFileDropEvent@app@cinder@@V?$function@$$A6AXAAVFileDropEvent@app@cinder@@@Z@boost@@@signals2@boost@@Vmutex@45@@detail@signals2@boost@@@boost@@@std@@@std@@@2@@std@@@std@@@std@@@2@0@Z 00410d30 f i cinder:Window.obj
 0001:0000fdd0       ?erase@?$_Tree@V?$_Tmap_traits@U?$pair@W4slot_meta_group@detail@signals2@boost@@V?$optional@H@4@@std@@V?$_List_iterator@V?$_List_val@U?$_List_simple_types@V?$shared_ptr@V?$connection_body@U?$pair@W4slot_meta_group@detail@signals2@boost@@V?$optional@H@4@@std@@V?$slot1@XAAVFileDropEvent@app@cinder@@V?$function@$$A6AXAAVFileDropEvent@app@cinder@@@Z@boost@@@signals2@boost@@Vmutex@45@@detail@signals2@boost@@@boost@@@std@@@std@@@2@V?$group_key_less@HU?$less@H@std@@@detail@signals2@boost@@V?$allocator@U?$pair@$$CBU?$pair@W4slot_meta_group@detail@signals2@boost@@V?$optional@H@4@@std@@V?$_List_iterator@V?$_List_val@U?$_List_simple_types@V?$shared_ptr@V?$connection_body@U?$pair@W4slot_meta_group@detail@signals2@boost@@V?$optional@H@4@@std@@V?$slot1@XAAVFileDropEvent@app@cinder@@V?$function@$$A6AXAAVFileDropEvent@app@cinder@@@Z@boost@@@signals2@boost@@Vmutex@45@@detail@signals2@boost@@@boost@@@std@@@std@@@2@@std@@@2@$0A@@std@@@std@@QAE?AV?$_Tree_iterator@V?$_Tree_val@U?$_Tree_simple_types@U?$pair@$$CBU?$pair@W4slot_meta_group@detail@signals2@boost@@V?$optional@H@4@@std@@V?$_List_iterator@V?$_List_val@U?$_List_simple_types@V?$shared_ptr@V?$connection_body@U?$pair@W4slot_meta_group@detail@signals2@boost@@V?$optional@H@4@@std@@V?$slot1@XAAVFileDropEvent@app@cinder@@V?$function@$$A6AXAAVFileDropEvent@app@cinder@@@Z@boost@@@signals2@boost@@Vmutex@45@@detail@signals2@boost@@@boost@@@std@@@std@@@2@@std@@@std@@@std@@@2@V?$_Tree_const_iterator@V?$_Tree_val@U?$_Tree_simple_types@U?$pair@$$CBU?$pair@W4slot_meta_group@detail@signals2@boost@@V?$optional@H@4@@std@@V?$_List_iterator@V?$_List_val@U?$_List_simple_types@V?$shared_ptr@V?$connection_body@U?$pair@W4slot_meta_group@detail@signals2@boost@@V?$optional@H@4@@std@@V?$slot1@XAAVFileDropEvent@app@cinder@@V?$function@$$A6AXAAVFileDropEvent@app@cinder@@@Z@boost@@@signals2@boost@@Vmutex@45@@detail@signals2@boost@@@boost@@@std@@@std@@@2@@std@@@std@@@std@@@2@@Z 00410dd0 f i cinder:Window.obj
 0001:0000fdd0       ?erase@?$_Tree@V?$_Tmap_traits@U?$pair@W4slot_meta_group@detail@signals2@boost@@V?$optional@H@4@@std@@V?$_List_iterator@V?$_List_val@U?$_List_simple_types@V?$shared_ptr@V?$connection_body@U?$pair@W4slot_meta_group@detail@signals2@boost@@V?$optional@H@4@@std@@V?$slot0@_NV?$function@$$A6A_NXZ@boost@@@signals2@boost@@Vmutex@45@@detail@signals2@boost@@@boost@@@std@@@std@@@2@V?$group_key_less@HU?$less@H@std@@@detail@signals2@boost@@V?$allocator@U?$pair@$$CBU?$pair@W4slot_meta_group@detail@signals2@boost@@V?$optional@H@4@@std@@V?$_List_iterator@V?$_List_val@U?$_List_simple_types@V?$shared_ptr@V?$connection_body@U?$pair@W4slot_meta_group@detail@signals2@boost@@V?$optional@H@4@@std@@V?$slot0@_NV?$function@$$A6A_NXZ@boost@@@signals2@boost@@Vmutex@45@@detail@signals2@boost@@@boost@@@std@@@std@@@2@@std@@@2@$0A@@std@@@std@@QAE?AV?$_Tree_iterator@V?$_Tree_val@U?$_Tree_simple_types@U?$pair@$$CBU?$pair@W4slot_meta_group@detail@signals2@boost@@V?$optional@H@4@@std@@V?$_List_iterator@V?$_List_val@U?$_List_simple_types@V?$shared_ptr@V?$connection_body@U?$pair@W4slot_meta_group@detail@signals2@boost@@V?$optional@H@4@@std@@V?$slot0@_NV?$function@$$A6A_NXZ@boost@@@signals2@boost@@Vmutex@45@@detail@signals2@boost@@@boost@@@std@@@std@@@2@@std@@@std@@@std@@@2@V?$_Tree_const_iterator@V?$_Tree_val@U?$_Tree_simple_types@U?$pair@$$CBU?$pair@W4slot_meta_group@detail@signals2@boost@@V?$optional@H@4@@std@@V?$_List_iterator@V?$_List_val@U?$_List_simple_types@V?$shared_ptr@V?$connection_body@U?$pair@W4slot_meta_group@detail@signals2@boost@@V?$optional@H@4@@std@@V?$slot0@_NV?$function@$$A6A_NXZ@boost@@@signals2@boost@@Vmutex@45@@detail@signals2@boost@@@boost@@@std@@@std@@@2@@std@@@std@@@std@@@2@@Z 00410dd0 f i cinder:AppBasic.obj
 0001:0000fdd0       ?erase@?$_Tree@V?$_Tmap_traits@U?$pair@W4slot_meta_group@detail@signals2@boost@@V?$optional@H@4@@std@@V?$_List_iterator@V?$_List_val@U?$_List_simple_types@V?$shared_ptr@V?$connection_body@U?$pair@W4slot_meta_group@detail@signals2@boost@@V?$optional@H@4@@std@@V?$slot1@XAAVTouchEvent@app@cinder@@V?$function@$$A6AXAAVTouchEvent@app@cinder@@@Z@boost@@@signals2@boost@@Vmutex@45@@detail@signals2@boost@@@boost@@@std@@@std@@@2@V?$group_key_less@HU?$less@H@std@@@detail@signals2@boost@@V?$allocator@U?$pair@$$CBU?$pair@W4slot_meta_group@detail@signals2@boost@@V?$optional@H@4@@std@@V?$_List_iterator@V?$_List_val@U?$_List_simple_types@V?$shared_ptr@V?$connection_body@U?$pair@W4slot_meta_group@detail@signals2@boost@@V?$optional@H@4@@std@@V?$slot1@XAAVTouchEvent@app@cinder@@V?$function@$$A6AXAAVTouchEvent@app@cinder@@@Z@boost@@@signals2@boost@@Vmutex@45@@detail@signals2@boost@@@boost@@@std@@@std@@@2@@std@@@2@$0A@@std@@@std@@QAE?AV?$_Tree_iterator@V?$_Tree_val@U?$_Tree_simple_types@U?$pair@$$CBU?$pair@W4slot_meta_group@detail@signals2@boost@@V?$optional@H@4@@std@@V?$_List_iterator@V?$_List_val@U?$_List_simple_types@V?$shared_ptr@V?$connection_body@U?$pair@W4slot_meta_group@detail@signals2@boost@@V?$optional@H@4@@std@@V?$slot1@XAAVTouchEvent@app@cinder@@V?$function@$$A6AXAAVTouchEvent@app@cinder@@@Z@boost@@@signals2@boost@@Vmutex@45@@detail@signals2@boost@@@boost@@@std@@@std@@@2@@std@@@std@@@std@@@2@V?$_Tree_const_iterator@V?$_Tree_val@U?$_Tree_simple_types@U?$pair@$$CBU?$pair@W4slot_meta_group@detail@signals2@boost@@V?$optional@H@4@@std@@V?$_List_iterator@V?$_List_val@U?$_List_simple_types@V?$shared_ptr@V?$connection_body@U?$pair@W4slot_meta_group@detail@signals2@boost@@V?$optional@H@4@@std@@V?$slot1@XAAVTouchEvent@app@cinder@@V?$function@$$A6AXAAVTouchEvent@app@cinder@@@Z@boost@@@signals2@boost@@Vmutex@45@@detail@signals2@boost@@@boost@@@std@@@std@@@2@@std@@@std@@@std@@@2@@Z 00410dd0 f i cinder:Window.obj
 0001:0000fdd0       ?erase@?$_Tree@V?$_Tmap_traits@U?$pair@W4slot_meta_group@detail@signals2@boost@@V?$optional@H@4@@std@@V?$_List_iterator@V?$_List_val@U?$_List_simple_types@V?$shared_ptr@V?$connection_body@U?$pair@W4slot_meta_group@detail@signals2@boost@@V?$optional@H@4@@std@@V?$slot1@XAAVMouseEvent@app@cinder@@V?$function@$$A6AXAAVMouseEvent@app@cinder@@@Z@boost@@@signals2@boost@@Vmutex@45@@detail@signals2@boost@@@boost@@@std@@@std@@@2@V?$group_key_less@HU?$less@H@std@@@detail@signals2@boost@@V?$allocator@U?$pair@$$CBU?$pair@W4slot_meta_group@detail@signals2@boost@@V?$optional@H@4@@std@@V?$_List_iterator@V?$_List_val@U?$_List_simple_types@V?$shared_ptr@V?$connection_body@U?$pair@W4slot_meta_group@detail@signals2@boost@@V?$optional@H@4@@std@@V?$slot1@XAAVMouseEvent@app@cinder@@V?$function@$$A6AXAAVMouseEvent@app@cinder@@@Z@boost@@@signals2@boost@@Vmutex@45@@detail@signals2@boost@@@boost@@@std@@@std@@@2@@std@@@2@$0A@@std@@@std@@QAE?AV?$_Tree_iterator@V?$_Tree_val@U?$_Tree_simple_types@U?$pair@$$CBU?$pair@W4slot_meta_group@detail@signals2@boost@@V?$optional@H@4@@std@@V?$_List_iterator@V?$_List_val@U?$_List_simple_types@V?$shared_ptr@V?$connection_body@U?$pair@W4slot_meta_group@detail@signals2@boost@@V?$optional@H@4@@std@@V?$slot1@XAAVMouseEvent@app@cinder@@V?$function@$$A6AXAAVMouseEvent@app@cinder@@@Z@boost@@@signals2@boost@@Vmutex@45@@detail@signals2@boost@@@boost@@@std@@@std@@@2@@std@@@std@@@std@@@2@V?$_Tree_const_iterator@V?$_Tree_val@U?$_Tree_simple_types@U?$pair@$$CBU?$pair@W4slot_meta_group@detail@signals2@boost@@V?$optional@H@4@@std@@V?$_List_iterator@V?$_List_val@U?$_List_simple_types@V?$shared_ptr@V?$connection_body@U?$pair@W4slot_meta_group@detail@signals2@boost@@V?$optional@H@4@@std@@V?$slot1@XAAVMouseEvent@app@cinder@@V?$function@$$A6AXAAVMouseEvent@app@cinder@@@Z@boost@@@signals2@boost@@Vmutex@45@@detail@signals2@boost@@@boost@@@std@@@std@@@2@@std@@@std@@@std@@@2@@Z 00410dd0 f i cinder:Window.obj
 0001:0000fdd0       ?erase@?$_Tree@V?$_Tmap_traits@U?$pair@W4slot_meta_group@detail@signals2@boost@@V?$optional@H@4@@std@@V?$_List_iterator@V?$_List_val@U?$_List_simple_types@V?$shared_ptr@V?$connection_body@U?$pair@W4slot_meta_group@detail@signals2@boost@@V?$optional@H@4@@std@@V?$slot1@XAAVKeyEvent@app@cinder@@V?$function@$$A6AXAAVKeyEvent@app@cinder@@@Z@boost@@@signals2@boost@@Vmutex@45@@detail@signals2@boost@@@boost@@@std@@@std@@@2@V?$group_key_less@HU?$less@H@std@@@detail@signals2@boost@@V?$allocator@U?$pair@$$CBU?$pair@W4slot_meta_group@detail@signals2@boost@@V?$optional@H@4@@std@@V?$_List_iterator@V?$_List_val@U?$_List_simple_types@V?$shared_ptr@V?$connection_body@U?$pair@W4slot_meta_group@detail@signals2@boost@@V?$optional@H@4@@std@@V?$slot1@XAAVKeyEvent@app@cinder@@V?$function@$$A6AXAAVKeyEvent@app@cinder@@@Z@boost@@@signals2@boost@@Vmutex@45@@detail@signals2@boost@@@boost@@@std@@@std@@@2@@std@@@2@$0A@@std@@@std@@QAE?AV?$_Tree_iterator@V?$_Tree_val@U?$_Tree_simple_types@U?$pair@$$CBU?$pair@W4slot_meta_group@detail@signals2@boost@@V?$optional@H@4@@std@@V?$_List_iterator@V?$_List_val@U?$_List_simple_types@V?$shared_ptr@V?$connection_body@U?$pair@W4slot_meta_group@detail@signals2@boost@@V?$optional@H@4@@std@@V?$slot1@XAAVKeyEvent@app@cinder@@V?$function@$$A6AXAAVKeyEvent@app@cinder@@@Z@boost@@@signals2@boost@@Vmutex@45@@detail@signals2@boost@@@boost@@@std@@@std@@@2@@std@@@std@@@std@@@2@V?$_Tree_const_iterator@V?$_Tree_val@U?$_Tree_simple_types@U?$pair@$$CBU?$pair@W4slot_meta_group@detail@signals2@boost@@V?$optional@H@4@@std@@V?$_List_iterator@V?$_List_val@U?$_List_simple_types@V?$shared_ptr@V?$connection_body@U?$pair@W4slot_meta_group@detail@signals2@boost@@V?$optional@H@4@@std@@V?$slot1@XAAVKeyEvent@app@cinder@@V?$function@$$A6AXAAVKeyEvent@app@cinder@@@Z@boost@@@signals2@boost@@Vmutex@45@@detail@signals2@boost@@@boost@@@std@@@std@@@2@@std@@@std@@@std@@@2@@Z 00410dd0 f i cinder:Window.obj
 0001:0000fdd0       ?erase@?$_Tree@V?$_Tmap_traits@U?$pair@W4slot_meta_group@detail@signals2@boost@@V?$optional@H@4@@std@@V?$_List_iterator@V?$_List_val@U?$_List_simple_types@V?$shared_ptr@V?$connection_body@U?$pair@W4slot_meta_group@detail@signals2@boost@@V?$optional@H@4@@std@@V?$slot0@XV?$function@$$A6AXXZ@boost@@@signals2@boost@@Vmutex@45@@detail@signals2@boost@@@boost@@@std@@@std@@@2@V?$group_key_less@HU?$less@H@std@@@detail@signals2@boost@@V?$allocator@U?$pair@$$CBU?$pair@W4slot_meta_group@detail@signals2@boost@@V?$optional@H@4@@std@@V?$_List_iterator@V?$_List_val@U?$_List_simple_types@V?$shared_ptr@V?$connection_body@U?$pair@W4slot_meta_group@detail@signals2@boost@@V?$optional@H@4@@std@@V?$slot0@XV?$function@$$A6AXXZ@boost@@@signals2@boost@@Vmutex@45@@detail@signals2@boost@@@boost@@@std@@@std@@@2@@std@@@2@$0A@@std@@@std@@QAE?AV?$_Tree_iterator@V?$_Tree_val@U?$_Tree_simple_types@U?$pair@$$CBU?$pair@W4slot_meta_group@detail@signals2@boost@@V?$optional@H@4@@std@@V?$_List_iterator@V?$_List_val@U?$_List_simple_types@V?$shared_ptr@V?$connection_body@U?$pair@W4slot_meta_group@detail@signals2@boost@@V?$optional@H@4@@std@@V?$slot0@XV?$function@$$A6AXXZ@boost@@@signals2@boost@@Vmutex@45@@detail@signals2@boost@@@boost@@@std@@@std@@@2@@std@@@std@@@std@@@2@V?$_Tree_const_iterator@V?$_Tree_val@U?$_Tree_simple_types@U?$pair@$$CBU?$pair@W4slot_meta_group@detail@signals2@boost@@V?$optional@H@4@@std@@V?$_List_iterator@V?$_List_val@U?$_List_simple_types@V?$shared_ptr@V?$connection_body@U?$pair@W4slot_meta_group@detail@signals2@boost@@V?$optional@H@4@@std@@V?$slot0@XV?$function@$$A6AXXZ@boost@@@signals2@boost@@Vmutex@45@@detail@signals2@boost@@@boost@@@std@@@std@@@2@@std@@@std@@@std@@@2@@Z 00410dd0 f i cinder:Window.obj
 0001:00010070       ?executeLaunch@AppBasic@app@cinder@@SAXPAV123@V?$shared_ptr@VRenderer@app@cinder@@@std@@PBD@Z 00411070 f   cinder:AppBasic.obj
 0001:00010380       ?getAppPath@AppBasic@app@cinder@@UBE?AVpath@filesystem@boost@@XZ 00411380 f   cinder:AppBasic.obj
 0001:000103a0       ?getForegroundWindow@AppBasic@app@cinder@@UBE?AV?$shared_ptr@VWindow@app@cinder@@@std@@XZ 004113a0 f   cinder:AppBasic.obj
 0001:000103d0       ?getFrameRate@AppBasic@app@cinder@@UBEMXZ 004113d0 f   cinder:AppBasic.obj
 0001:000103e0       ?getNumWindows@AppBasic@app@cinder@@UBEIXZ 004113e0 f   cinder:AppBasic.obj
 0001:000103f0       ?getWindow@AppBasic@app@cinder@@UBE?AV?$shared_ptr@VWindow@app@cinder@@@std@@XZ 004113f0 f   cinder:AppBasic.obj
 0001:00010420       ?getWindowIndex@AppBasic@app@cinder@@UBE?AV?$shared_ptr@VWindow@app@cinder@@@std@@I@Z 00411420 f   cinder:AppBasic.obj
 0001:00010450       ?get_readable_state@?$signal1_impl@XAAVTouchEvent@app@cinder@@U?$EventCombiner@VTouchEvent@app@cinder@@@23@HU?$less@H@std@@V?$function@$$A6AXAAVTouchEvent@app@cinder@@@Z@boost@@V?$function@$$A6AXABVconnection@signals2@boost@@AAVTouchEvent@app@cinder@@@Z@8@Vmutex@signals2@8@@detail@signals2@boost@@ABE?AV?$shared_ptr@Vinvocation_state@?$signal1_impl@XAAVTouchEvent@app@cinder@@U?$EventCombiner@VTouchEvent@app@cinder@@@23@HU?$less@H@std@@V?$function@$$A6AXAAVTouchEvent@app@cinder@@@Z@boost@@V?$function@$$A6AXABVconnection@signals2@boost@@AAVTouchEvent@app@cinder@@@Z@8@Vmutex@signals2@8@@detail@signals2@boost@@@4@XZ 00411450 f i cinder:AppImplMsw.obj
 0001:00010450       ?get_readable_state@?$signal0_impl@XV?$optional_last_value@X@signals2@boost@@HU?$less@H@std@@V?$function@$$A6AXXZ@3@V?$function@$$A6AXABVconnection@signals2@boost@@@Z@3@Vmutex@23@@detail@signals2@boost@@ABE?AV?$shared_ptr@Vinvocation_state@?$signal0_impl@XV?$optional_last_value@X@signals2@boost@@HU?$less@H@std@@V?$function@$$A6AXXZ@3@V?$function@$$A6AXABVconnection@signals2@boost@@@Z@3@Vmutex@23@@detail@signals2@boost@@@4@XZ 00411450 f i cinder:App.obj
 0001:00010450       ?get_readable_state@?$signal1_impl@XAAVKeyEvent@app@cinder@@U?$EventCombiner@VKeyEvent@app@cinder@@@23@HU?$less@H@std@@V?$function@$$A6AXAAVKeyEvent@app@cinder@@@Z@boost@@V?$function@$$A6AXABVconnection@signals2@boost@@AAVKeyEvent@app@cinder@@@Z@8@Vmutex@signals2@8@@detail@signals2@boost@@ABE?AV?$shared_ptr@Vinvocation_state@?$signal1_impl@XAAVKeyEvent@app@cinder@@U?$EventCombiner@VKeyEvent@app@cinder@@@23@HU?$less@H@std@@V?$function@$$A6AXAAVKeyEvent@app@cinder@@@Z@boost@@V?$function@$$A6AXABVconnection@signals2@boost@@AAVKeyEvent@app@cinder@@@Z@8@Vmutex@signals2@8@@detail@signals2@boost@@@4@XZ 00411450 f i cinder:AppImplMsw.obj
 0001:00010450       ?get_readable_state@?$signal0_impl@_NUBooleanAndEventCombiner@app@cinder@@HU?$less@H@std@@V?$function@$$A6A_NXZ@boost@@V?$function@$$A6A_NABVconnection@signals2@boost@@@Z@7@Vmutex@signals2@7@@detail@signals2@boost@@ABE?AV?$shared_ptr@Vinvocation_state@?$signal0_impl@_NUBooleanAndEventCombiner@app@cinder@@HU?$less@H@std@@V?$function@$$A6A_NXZ@boost@@V?$function@$$A6A_NABVconnection@signals2@boost@@@Z@7@Vmutex@signals2@7@@detail@signals2@boost@@@4@XZ 00411450 f i cinder:AppBasic.obj
 0001:00010450       ?get_readable_state@?$signal1_impl@XAAVMouseEvent@app@cinder@@U?$EventCombiner@VMouseEvent@app@cinder@@@23@HU?$less@H@std@@V?$function@$$A6AXAAVMouseEvent@app@cinder@@@Z@boost@@V?$function@$$A6AXABVconnection@signals2@boost@@AAVMouseEvent@app@cinder@@@Z@8@Vmutex@signals2@8@@detail@signals2@boost@@ABE?AV?$shared_ptr@Vinvocation_state@?$signal1_impl@XAAVMouseEvent@app@cinder@@U?$EventCombiner@VMouseEvent@app@cinder@@@23@HU?$less@H@std@@V?$function@$$A6AXAAVMouseEvent@app@cinder@@@Z@boost@@V?$function@$$A6AXABVconnection@signals2@boost@@AAVMouseEvent@app@cinder@@@Z@8@Vmutex@signals2@8@@detail@signals2@boost@@@4@XZ 00411450 f i cinder:AppImplMsw.obj
 0001:00010450       ?get_readable_state@?$signal1_impl@XAAVFileDropEvent@app@cinder@@U?$EventCombiner@VFileDropEvent@app@cinder@@@23@HU?$less@H@std@@V?$function@$$A6AXAAVFileDropEvent@app@cinder@@@Z@boost@@V?$function@$$A6AXABVconnection@signals2@boost@@AAVFileDropEvent@app@cinder@@@Z@8@Vmutex@signals2@8@@detail@signals2@boost@@ABE?AV?$shared_ptr@Vinvocation_state@?$signal1_impl@XAAVFileDropEvent@app@cinder@@U?$EventCombiner@VFileDropEvent@app@cinder@@@23@HU?$less@H@std@@V?$function@$$A6AXAAVFileDropEvent@app@cinder@@@Z@boost@@V?$function@$$A6AXABVconnection@signals2@boost@@AAVFileDropEvent@app@cinder@@@Z@8@Vmutex@signals2@8@@detail@signals2@boost@@@4@XZ 00411450 f i cinder:AppImplMsw.obj
 0001:000104a0       ?isFrameRateEnabled@AppBasic@app@cinder@@UBE_NXZ 004114a0 f   cinder:AppBasic.obj
 0001:000104b0       ?launch@AppBasic@app@cinder@@UAEXPBDHQBQAD@Z 004114b0 f   cinder:AppBasic.obj
 0001:00010830       ?push_back@?$vector@V?$basic_string@DU?$char_traits@D@std@@V?$allocator@D@2@@std@@V?$allocator@V?$basic_string@DU?$char_traits@D@std@@V?$allocator@D@2@@std@@@2@@std@@QAEX$$QAV?$basic_string@DU?$char_traits@D@std@@V?$allocator@D@2@@2@@Z 00411830 f i cinder:AppBasic.obj
 0001:000108b0       ?quit@AppBasic@app@cinder@@UAEXXZ 004118b0 f   cinder:AppBasic.obj
 0001:000108c0       ?setFrameRate@AppBasic@app@cinder@@UAEXM@Z 004118c0 f   cinder:AppBasic.obj
 0001:000108f0       ??$?0$$BY06$$CBD@path@filesystem@boost@@QAE@AAY06$$CBDPAX@Z 004118f0 f i cinder:App.obj
 0001:000108f0       ??$?0$$BY05$$CBD@path@filesystem@boost@@QAE@AAY05$$CBDPAX@Z 004118f0 f i cinder:App.obj
 0001:000109d0       ??$?0V?$optional_last_value@X@signals2@boost@@@?$shared_ptr@V?$optional_last_value@X@signals2@boost@@@boost@@QAE@PAV?$optional_last_value@X@signals2@1@@Z 004119d0 f i cinder:App.obj
 0001:00010a80       ??$?0V?$optional_last_value@X@signals2@boost@@@shared_count@detail@boost@@QAE@PAV?$optional_last_value@X@signals2@2@@Z 00411a80 f i cinder:App.obj
 0001:00010b20       ??$?0V?$signal0_impl@XV?$optional_last_value@X@signals2@boost@@HU?$less@H@std@@V?$function@$$A6AXXZ@3@V?$function@$$A6AXABVconnection@signals2@boost@@@Z@3@Vmutex@23@@detail@signals2@boost@@@?$shared_ptr@V?$signal0_impl@XV?$optional_last_value@X@signals2@boost@@HU?$less@H@std@@V?$function@$$A6AXXZ@3@V?$function@$$A6AXABVconnection@signals2@boost@@@Z@3@Vmutex@23@@detail@signals2@boost@@@boost@@QAE@PAV?$signal0_impl@XV?$optional_last_value@X@signals2@boost@@HU?$less@H@std@@V?$function@$$A6AXXZ@3@V?$function@$$A6AXABVconnection@signals2@boost@@@Z@3@Vmutex@23@@detail@signals2@1@@Z 00411b20 f i cinder:App.obj
 0001:00010bd0       ??$?0V?$signal0_impl@XV?$optional_last_value@X@signals2@boost@@HU?$less@H@std@@V?$function@$$A6AXXZ@3@V?$function@$$A6AXABVconnection@signals2@boost@@@Z@3@Vmutex@23@@detail@signals2@boost@@@shared_count@detail@boost@@QAE@PAV?$signal0_impl@XV?$optional_last_value@X@signals2@boost@@HU?$less@H@std@@V?$function@$$A6AXXZ@3@V?$function@$$A6AXABVconnection@signals2@boost@@@Z@3@Vmutex@23@@1signals2@2@@Z 00411bd0 f i cinder:App.obj
 0001:00010c70       ??$?0Vwin_iocp_io_service@detail@asio@boost@@I@service_registry@detail@asio@boost@@QAE@AAVio_service@23@PAVwin_iocp_io_service@123@I@Z 00411c70 f i cinder:App.obj
 0001:00010d30       ??$_Resetp@V?$basic_dostream@DU?$char_traits@D@std@@@msw@cinder@@@?$shared_ptr@V?$basic_dostream@DU?$char_traits@D@std@@@msw@cinder@@@std@@AAEXPAV?$basic_dostream@DU?$char_traits@D@std@@@msw@cinder@@@Z 00411d30 f i cinder:App.obj
 0001:00010e00       ??$_Resetp@Vio_service@asio@boost@@@?$shared_ptr@Vio_service@asio@boost@@@std@@AAEXPAVio_service@asio@boost@@@Z 00411e00 f i cinder:App.obj
 0001:00010ed0       ??$_Resetp@Vwork@io_service@asio@boost@@@?$shared_ptr@Vwork@io_service@asio@boost@@@std@@AAEXPAVwork@io_service@asio@boost@@@Z 00411ed0 f i cinder:App.obj
 0001:00010fb0       ??$_Uninit_move@PAUFormat@Window@app@cinder@@PAU1234@V?$allocator@UFormat@Window@app@cinder@@@std@@U1234@@std@@YAPAUFormat@Window@app@cinder@@PAU1234@00AAU?$_Wrap_alloc@V?$allocator@UFormat@Window@app@cinder@@@std@@@0@0U_Nonscalar_ptr_iterator_tag@0@@Z 00411fb0 f i cinder:App.obj
 0001:00011050       ??$_Uninit_move@PAVpath@filesystem@boost@@PAV123@V?$allocator@Vpath@filesystem@boost@@@std@@V123@@std@@YAPAVpath@filesystem@boost@@PAV123@00AAU?$_Wrap_alloc@V?$allocator@Vpath@filesystem@boost@@@std@@@0@0U_Nonscalar_ptr_iterator_tag@0@@Z 00412050 f i cinder:App.obj
 0001:00011110       ??$enable_current_exception@U?$error_info_injector@Vsystem_error@system@boost@@@exception_detail@boost@@@boost@@YA?AV?$clone_impl@U?$error_info_injector@Vsystem_error@system@boost@@@exception_detail@boost@@@exception_detail@0@ABU?$error_info_injector@Vsystem_error@system@boost@@@20@@Z 00412110 f i cinder:App.obj
 0001:000111c0       ??$enable_error_info@Vsystem_error@system@boost@@@boost@@YA?AU?$error_info_injector@Vsystem_error@system@boost@@@exception_detail@0@ABVsystem_error@system@0@@Z 004121c0 f i cinder:App.obj
 0001:000111e0       ??$throw_exception@Vsystem_error@system@boost@@@boost@@YAXABVsystem_error@system@0@@Z 004121e0 f i cinder:App.obj
 0001:00011240       ??$use_facet@V?$ctype@D@std@@@std@@YAABV?$ctype@D@0@ABVlocale@0@@Z 00412240 f i cinder:App.obj
 0001:00011360       ??0?$basic_dostream@DU?$char_traits@D@std@@@msw@cinder@@QAE@XZ 00412360 f i cinder:App.obj
 0001:00011450       ??0?$basic_ostream@DU?$char_traits@D@std@@@std@@QAE@PAV?$basic_streambuf@DU?$char_traits@D@std@@@1@_N@Z 00412450 f i cinder:App.obj
 0001:000114f0       ??0?$basic_streambuf@DU?$char_traits@D@std@@@std@@IAE@XZ 004124f0 f i cinder:App.obj
 0001:00011580       ??0?$clone_impl@U?$error_info_injector@Vsystem_error@system@boost@@@exception_detail@boost@@@exception_detail@boost@@AAE@ABV012@Uclone_tag@012@@Z 00412580 f i cinder:App.obj
 0001:00011640       ??0?$clone_impl@U?$error_info_injector@Vsystem_error@system@boost@@@exception_detail@boost@@@exception_detail@boost@@QAE@ABV012@@Z 00412640 f i cinder:App.obj
 0001:000116e0       ??0?$ctype@D@std@@QAE@ABV_Locinfo@1@I@Z 004126e0 f i cinder:App.obj
 0001:00011720       ??0?$error_info_injector@Vsystem_error@system@boost@@@exception_detail@boost@@QAE@ABU012@@Z 00412720 f i cinder:App.obj
 0001:000117e0       ??0?$error_info_injector@Vsystem_error@system@boost@@@exception_detail@boost@@QAE@ABVsystem_error@system@2@@Z 004127e0 f i cinder:App.obj
 0001:000118a0       ??0?$signal0_impl@XV?$optional_last_value@X@signals2@boost@@HU?$less@H@std@@V?$function@$$A6AXXZ@3@V?$function@$$A6AXABVconnection@signals2@boost@@@Z@3@Vmutex@23@@detail@signals2@boost@@QAE@ABV?$optional_last_value@X@23@ABU?$less@H@std@@@Z 004128a0 f i cinder:App.obj
 0001:000119b0       ??0App@app@cinder@@QAE@XZ  004129b0 f   cinder:App.obj
 0001:00011c60       ??0AssetLoadExc@app@cinder@@QAE@ABV012@@Z 00412c60 f i cinder:App.obj
 0001:00011ca0       ??0AssetLoadExc@app@cinder@@QAE@ABVpath@filesystem@boost@@@Z 00412ca0 f   cinder:App.obj
 0001:00011d40       ??0Format@Window@app@cinder@@QAE@V?$shared_ptr@VRenderer@app@cinder@@@std@@V?$shared_ptr@VDisplay@cinder@@@5@_NV?$Vec2@H@3@3@Z 00412d40 f i cinder:App.obj
 0001:00011ed0       ??0Settings@App@app@cinder@@QAE@XZ 00412ed0 f   cinder:App.obj
 0001:00011fb0       ??0_Locinfo@std@@QAE@PBD@Z 00412fb0 f i cinder:App.obj
 0001:00012070       ??0invocation_state@?$signal0_impl@XV?$optional_last_value@X@signals2@boost@@HU?$less@H@std@@V?$function@$$A6AXXZ@3@V?$function@$$A6AXABVconnection@signals2@boost@@@Z@3@Vmutex@23@@detail@signals2@boost@@QAE@ABV?$grouped_list@HU?$less@H@std@@V?$shared_ptr@V?$connection_body@U?$pair@W4slot_meta_group@detail@signals2@boost@@V?$optional@H@4@@std@@V?$slot0@XV?$function@$$A6AXXZ@boost@@@signals2@boost@@Vmutex@45@@detail@signals2@boost@@@boost@@@234@ABV?$optional_last_value@X@34@@Z 00413070 f i cinder:App.obj
 0001:00012100       ??0io_service@asio@boost@@QAE@XZ 00413100 f i cinder:App.obj
 0001:000121f0       ??0system_error@system@boost@@QAE@ABV012@@Z 004131f0 f i cinder:App.obj
 0001:00012280       ??0win_iocp_io_service@detail@asio@boost@@QAE@AAVio_service@23@I@Z 00413280 f i cinder:App.obj
 0001:000123c0       ??1?$_Yarn@_W@std@@QAE@XZ  004133c0 f i cinder:App.obj
 0001:000123c0       ??1?$_Yarn@D@std@@QAE@XZ   004133c0 f i cinder:App.obj
 0001:000123e0       ??1?$basic_ios@DU?$char_traits@D@std@@@std@@UAE@XZ 004133e0 f i cinder:App.obj
 0001:000123f0       ??1?$basic_ostream@DU?$char_traits@D@std@@@std@@UAE@XZ 004133f0 f i cinder:App.obj
 0001:00012410       ??1?$basic_streambuf@DU?$char_traits@D@std@@@std@@UAE@XZ 00413410 f i cinder:App.obj
 0001:00012440       ??1?$basic_stringbuf@DU?$char_traits@D@std@@V?$allocator@D@2@@std@@UAE@XZ 00413440 f i cinder:App.obj
 0001:00012480       ??1?$error_info_injector@Vsystem_error@system@boost@@@exception_detail@boost@@UAE@XZ 00413480 f i cinder:App.obj
 0001:000124e0       ??1?$op_queue@Vwin_iocp_operation@detail@asio@boost@@@detail@asio@boost@@QAE@XZ 004134e0 f i cinder:App.obj
 0001:00012540       ??1?$scoped_lock@Vwin_mutex@detail@asio@boost@@@detail@asio@boost@@QAE@XZ 00413540 f i cinder:App.obj
 0001:00012550       ??1?$scoped_ptr@Vwin_thread@detail@asio@boost@@@detail@asio@boost@@QAE@XZ 00413550 f i cinder:App.obj
 0001:00012570       ??1?$service_base@Vwin_iocp_io_service@detail@asio@boost@@@detail@asio@boost@@UAE@XZ 00413570 f i cinder:App.obj
 0001:00012580       ??1?$signal@$$A6AXXZV?$optional_last_value@X@signals2@boost@@HU?$less@H@std@@V?$function@$$A6AXXZ@3@V?$function@$$A6AXABVconnection@signals2@boost@@@Z@3@Vmutex@23@@signals2@boost@@UAE@XZ 00413580 f i cinder:App.obj
 0001:00012610       ??1?$winsock_init@$01$0A@@detail@asio@boost@@QAE@XZ 00413610 f i cinder:App.obj
 0001:00012630       ??1App@app@cinder@@UAE@XZ  00413630 f   cinder:App.obj
 0001:00012860       ??1_Locinfo@std@@QAE@XZ    00413860 f i cinder:App.obj
 0001:00012900       ??1auto_handle@win_iocp_io_service@detail@asio@boost@@QAE@XZ 00413900 f i cinder:App.obj
 0001:00012910       ??1context@?$call_stack@Vwin_iocp_io_service@detail@asio@boost@@Uwin_iocp_thread_info@234@@detail@asio@boost@@QAE@XZ 00413910 f i cinder:App.obj
 0001:00012920       ??1facet@locale@std@@MAE@XZ 00413920 f i cinder:App.obj
 0001:00012930       ??1locale@std@@QAE@XZ      00413930 f i cinder:App.obj
 0001:00012950       ??1service_registry@detail@asio@boost@@QAE@XZ 00413950 f i cinder:App.obj
 0001:000129e0       ??1thread_resource_error@boost@@UAE@XZ 004139e0 f i libboost_thread-vc110-mt-s-1_53:thread.obj
 0001:000129e0       ??1lock_error@boost@@UAE@XZ 004139e0 f i libboost_thread-vc110-mt-s-1_53:thread.obj
 0001:000129e0       ??1system_error@system@boost@@UAE@XZ 004139e0 f i cinder:App.obj
 0001:00012a20       ??1win_iocp_thread_info@detail@asio@boost@@QAE@XZ 00413a20 f i cinder:App.obj
 0001:00012a30       ??1win_mutex@detail@asio@boost@@QAE@XZ 00413a30 f i cinder:App.obj
 0001:00012a40       ??1work_finished_on_block_exit@win_iocp_io_service@detail@asio@boost@@QAE@XZ 00413a40 f i cinder:App.obj
 0001:00012a60       ??4?$basic_string@DU?$char_traits@D@std@@V?$allocator@D@2@@std@@QAEAAV01@PBD@Z 00413a60 f i cinder:App.obj
 0001:00012aa0       ??Bid@locale@std@@QAEIXZ   00413aa0 f i cinder:App.obj
 0001:00012ae0       ??Y?$basic_string@DU?$char_traits@D@std@@V?$allocator@D@2@@std@@QAEAAV01@PBD@Z 00413ae0 f i cinder:App.obj
 0001:00012b20       ??_D?$basic_dostream@DU?$char_traits@D@std@@@msw@cinder@@QAEXXZ 00413b20 f i cinder:App.obj
 0001:00012bc0       ??_D?$basic_ostream@DU?$char_traits@D@std@@@std@@QAEXXZ 00413bc0 f i cinder:App.obj
 0001:00012bf0       ??_D?$clone_impl@U?$error_info_injector@Vsystem_error@system@boost@@@exception_detail@boost@@@exception_detail@boost@@QAEXXZ 00413bf0 f i cinder:App.obj
 0001:00012c29       ??_E?$basic_dostream@DU?$char_traits@D@std@@@msw@cinder@@$4PPPPPPPM@A@AEPAXI@Z 00413c29 f i cinder:App.obj
 0001:00012c31       ??_E?$basic_ostream@DU?$char_traits@D@std@@@std@@$4PPPPPPPM@A@AEPAXI@Z 00413c31 f i cinder:App.obj
 0001:00012c39       ??_E?$clone_impl@U?$error_info_injector@Vsystem_error@system@boost@@@exception_detail@boost@@@exception_detail@boost@@$4PPPPPPPM@EI@AEPAXI@Z 00413c39 f i cinder:App.obj
 0001:00012c44       ??_E?$clone_impl@U?$error_info_injector@Vsystem_error@system@boost@@@exception_detail@boost@@@exception_detail@boost@@WCM@AEPAXI@Z 00413c44 f i cinder:App.obj
 0001:00012c4c       ??_E?$error_info_injector@Vsystem_error@system@boost@@@exception_detail@boost@@WCM@AEPAXI@Z 00413c4c f i cinder:App.obj
 0001:00012c60       ??_G?$basic_debugbuf@DU?$char_traits@D@std@@@msw@cinder@@UAEPAXI@Z 00413c60 f i cinder:App.obj
 0001:00012c60       ??_E?$basic_debugbuf@DU?$char_traits@D@std@@@msw@cinder@@UAEPAXI@Z 00413c60 f i cinder:App.obj
 0001:00012d10       ??_G?$basic_dostream@DU?$char_traits@D@std@@@msw@cinder@@UAEPAXI@Z 00413d10 f i cinder:App.obj
 0001:00012d10       ??_E?$basic_dostream@DU?$char_traits@D@std@@@msw@cinder@@UAEPAXI@Z 00413d10 f i cinder:App.obj
 0001:00012d40       ??_E?$basic_ios@DU?$char_traits@D@std@@@std@@UAEPAXI@Z 00413d40 f i cinder:App.obj
 0001:00012d40       ??_G?$basic_ios@DU?$char_traits@D@std@@@std@@UAEPAXI@Z 00413d40 f i cinder:App.obj
 0001:00012d40       ??_Eios_base@std@@UAEPAXI@Z 00413d40 f i cinder:App.obj
 0001:00012d40       ??_Gios_base@std@@UAEPAXI@Z 00413d40 f i cinder:App.obj
 0001:00012d70       ??_E?$basic_ostream@DU?$char_traits@D@std@@@std@@UAEPAXI@Z 00413d70 f i cinder:App.obj
 0001:00012d70       ??_G?$basic_ostream@DU?$char_traits@D@std@@@std@@UAEPAXI@Z 00413d70 f i cinder:App.obj
 0001:00012dc0       ??_E?$basic_streambuf@DU?$char_traits@D@std@@@std@@UAEPAXI@Z 00413dc0 f i cinder:App.obj
 0001:00012dc0       ??_G?$basic_streambuf@DU?$char_traits@D@std@@@std@@UAEPAXI@Z 00413dc0 f i cinder:App.obj
 0001:00012e10       ??_G?$basic_stringbuf@DU?$char_traits@D@std@@V?$allocator@D@2@@std@@UAEPAXI@Z 00413e10 f i cinder:App.obj
 0001:00012e10       ??_E?$basic_stringbuf@DU?$char_traits@D@std@@V?$allocator@D@2@@std@@UAEPAXI@Z 00413e10 f i cinder:App.obj
 0001:00012e70       ??_G?$clone_impl@U?$error_info_injector@Vsystem_error@system@boost@@@exception_detail@boost@@@exception_detail@boost@@UAEPAXI@Z 00413e70 f i cinder:App.obj
 0001:00012e70       ??_E?$clone_impl@U?$error_info_injector@Vsystem_error@system@boost@@@exception_detail@boost@@@exception_detail@boost@@UAEPAXI@Z 00413e70 f i cinder:App.obj
 0001:00012ec0       ??_G?$ctype@D@std@@MAEPAXI@Z 00413ec0 f i cinder:App.obj
 0001:00012ec0       ??_E?$ctype@D@std@@MAEPAXI@Z 00413ec0 f i cinder:App.obj
 0001:00012f20       ??_E?$error_info_injector@Vsystem_error@system@boost@@@exception_detail@boost@@UAEPAXI@Z 00413f20 f i cinder:App.obj
 0001:00012f20       ??_G?$error_info_injector@Vsystem_error@system@boost@@@exception_detail@boost@@UAEPAXI@Z 00413f20 f i cinder:App.obj
 0001:00012f50       ??_G?$signal0@XV?$optional_last_value@X@signals2@boost@@HU?$less@H@std@@V?$function@$$A6AXXZ@3@V?$function@$$A6AXABVconnection@signals2@boost@@@Z@3@Vmutex@23@@signals2@boost@@UAEPAXI@Z 00413f50 f i cinder:App.obj
 0001:00012f50       ??_E?$signal@$$A6AXXZV?$optional_last_value@X@signals2@boost@@HU?$less@H@std@@V?$function@$$A6AXXZ@3@V?$function@$$A6AXABVconnection@signals2@boost@@@Z@3@Vmutex@23@@signals2@boost@@UAEPAXI@Z 00413f50 f i cinder:App.obj
 0001:00012f50       ??_G?$signal@$$A6AXXZV?$optional_last_value@X@signals2@boost@@HU?$less@H@std@@V?$function@$$A6AXXZ@3@V?$function@$$A6AXABVconnection@signals2@boost@@@Z@3@Vmutex@23@@signals2@boost@@UAEPAXI@Z 00413f50 f i cinder:App.obj
 0001:00012f50       ??_E?$signal0@XV?$optional_last_value@X@signals2@boost@@HU?$less@H@std@@V?$function@$$A6AXXZ@3@V?$function@$$A6AXABVconnection@signals2@boost@@@Z@3@Vmutex@23@@signals2@boost@@UAEPAXI@Z 00413f50 f i cinder:App.obj
 0001:00012ff0       ??_EApp@app@cinder@@UAEPAXI@Z 00413ff0 f i cinder:App.obj
 0001:00012ff0       ??_GApp@app@cinder@@UAEPAXI@Z 00413ff0 f i cinder:App.obj
 0001:00013020       ??_Emisc_category@detail@error@asio@boost@@UAEPAXI@Z 00414020 f i cinder:App.obj
 0001:00013020       ??_Gmisc_category@detail@error@asio@boost@@UAEPAXI@Z 00414020 f i cinder:App.obj
 0001:00013020       ??_Gerror_category@system@boost@@UAEPAXI@Z 00414020 f i cinder:App.obj
 0001:00013020       ??_Eerror_category@system@boost@@UAEPAXI@Z 00414020 f i cinder:App.obj
 0001:00013050       ??_Gio_service@asio@boost@@QAEPAXI@Z 00414050 f i cinder:App.obj
 0001:000130e0       ??_Eservice@io_service@asio@boost@@MAEPAXI@Z 004140e0 f i cinder:App.obj
 0001:000130e0       ??_Gservice@io_service@asio@boost@@MAEPAXI@Z 004140e0 f i cinder:App.obj
 0001:00013110       ??_Esystem_error@system@boost@@UAEPAXI@Z 00414110 f i cinder:App.obj
 0001:00013110       ??_Gsystem_error@system@boost@@UAEPAXI@Z 00414110 f i cinder:App.obj
 0001:00013160       ??_Ewin_iocp_io_service@detail@asio@boost@@UAEPAXI@Z 00414160 f i cinder:App.obj
 0001:00013160       ??_Gwin_iocp_io_service@detail@asio@boost@@UAEPAXI@Z 00414160 f i cinder:App.obj
 0001:000131fe       ?_Add_vtordisp2@?$basic_ostream@DU?$char_traits@D@std@@@std@@$4PPPPPPPM@7AEXXZ 004141fe f i cinder:App.obj
 0001:00013209       ?_Add_vtordisp2@?$basic_ostream@DU?$char_traits@D@std@@@std@@$4PPPPPPPM@A@AEXXZ 00414209 f i cinder:App.obj
 0001:00013220       ?_Decref@facet@locale@std@@UAEPAV_Facet_base@3@XZ 00414220 f i cinder:App.obj
 0001:00013240       ?_Destroy@?$_Ref_count@V?$basic_dostream@DU?$char_traits@D@std@@@msw@cinder@@@std@@EAEXXZ 00414240 f i cinder:App.obj
 0001:00013260       ?_Destroy@?$_Ref_count@Vio_service@asio@boost@@@std@@EAEXXZ 00414260 f i cinder:App.obj
 0001:000132e0       ?_Destroy@?$_Ref_count@Vwork@io_service@asio@boost@@@std@@EAEXXZ 004142e0 f i cinder:App.obj
 0001:00013310       ?_Getcat@?$ctype@D@std@@SAIPAPBVfacet@locale@2@PBV42@@Z 00414310 f i cinder:App.obj
 0001:000133e0       ?_Getfacet@locale@std@@QBEPBVfacet@12@I@Z 004143e0 f i cinder:App.obj
 0001:00013420       ?_Gnavail@?$basic_streambuf@DU?$char_traits@D@std@@@std@@IBE_JXZ 00414420 f i cinder:App.obj
 0001:00013440       ?_Incref@facet@locale@std@@UAEXXZ 00414440 f i cinder:App.obj
 0001:00013450       ?_Init@?$basic_streambuf@DU?$char_traits@D@std@@@std@@IAEXXZ 00414450 f i cinder:App.obj
 0001:000134b0       ?_Init@?$basic_stringbuf@DU?$char_traits@D@std@@V?$allocator@D@2@@std@@IAEXPBDIH@Z 004144b0 f i cinder:App.obj
 0001:00013570       ?_Init@ios_base@std@@IAEXXZ 00414570 f i cinder:App.obj
 0001:000135f0       ?_Reallocate@?$vector@UFormat@Window@app@cinder@@V?$allocator@UFormat@Window@app@cinder@@@std@@@std@@IAEXI@Z 004145f0 f i cinder:App.obj
 0001:00013700       ?_Reallocate@?$vector@Vpath@filesystem@boost@@V?$allocator@Vpath@filesystem@boost@@@std@@@std@@IAEXI@Z 00414700 f i cinder:App.obj
 0001:00013800       ?_Reserve@?$vector@UFormat@Window@app@cinder@@V?$allocator@UFormat@Window@app@cinder@@@std@@@std@@IAEXI@Z 00414800 f i cinder:App.obj
 0001:000138b0       ?_Reserve@?$vector@Vpath@filesystem@boost@@V?$allocator@Vpath@filesystem@boost@@@std@@@std@@IAEXI@Z 004148b0 f i cinder:App.obj
 0001:00013960       ?_Tidy@?$basic_stringbuf@DU?$char_traits@D@std@@V?$allocator@D@2@@std@@IAEXXZ 00414960 f i cinder:App.obj
 0001:000139c0       ?append@?$basic_string@DU?$char_traits@D@std@@V?$allocator@D@2@@std@@QAEAAV12@ABV12@II@Z 004149c0 f i cinder:App.obj
 0001:00013ac0       ?append@?$basic_string@DU?$char_traits@D@std@@V?$allocator@D@2@@std@@QAEAAV12@PBDI@Z 00414ac0 f i cinder:App.obj
 0001:00013bf0       ?c_str@locale@std@@QBEPBDXZ 00414bf0 f i cinder:App.obj
 0001:00013c10       ?clear@ios_base@std@@QAEXH@Z 00414c10 f i cinder:App.obj
 0001:00013c99       ?clone@?$clone_impl@U?$error_info_injector@Vsystem_error@system@boost@@@exception_detail@boost@@@exception_detail@boost@@$0PPPPPPPM@A@BEPBVclone_base@23@XZ 00414c99 f i cinder:App.obj
 0001:00013cb0       ?clone@?$clone_impl@U?$error_info_injector@Vsystem_error@system@boost@@@exception_detail@boost@@@exception_detail@boost@@EBEPBVclone_base@23@XZ 00414cb0 f i cinder:App.obj
 0001:00013d40       ?console@App@app@cinder@@QAEAAV?$basic_ostream@DU?$char_traits@D@std@@@std@@XZ 00414d40 f   cinder:App.obj
 0001:00013e00       ?create@Timeline@cinder@@SA?AV?$shared_ptr@VTimeline@cinder@@@std@@XZ 00414e00 f i cinder:App.obj
 0001:00013e90       ?disconnect_all_slots@?$signal0_impl@XV?$optional_last_value@X@signals2@boost@@HU?$less@H@std@@V?$function@$$A6AXXZ@3@V?$function@$$A6AXABVconnection@signals2@boost@@@Z@3@Vmutex@23@@detail@signals2@boost@@QAEXXZ 00414e90 f i cinder:App.obj
 0001:00013e90       ?disconnect_all_slots@?$signal1_impl@XAAVMouseEvent@app@cinder@@U?$EventCombiner@VMouseEvent@app@cinder@@@23@HU?$less@H@std@@V?$function@$$A6AXAAVMouseEvent@app@cinder@@@Z@boost@@V?$function@$$A6AXABVconnection@signals2@boost@@AAVMouseEvent@app@cinder@@@Z@8@Vmutex@signals2@8@@detail@signals2@boost@@QAEXXZ 00414e90 f i cinder:AppImplMsw.obj
 0001:00013e90       ?disconnect_all_slots@?$signal1_impl@XAAVKeyEvent@app@cinder@@U?$EventCombiner@VKeyEvent@app@cinder@@@23@HU?$less@H@std@@V?$function@$$A6AXAAVKeyEvent@app@cinder@@@Z@boost@@V?$function@$$A6AXABVconnection@signals2@boost@@AAVKeyEvent@app@cinder@@@Z@8@Vmutex@signals2@8@@detail@signals2@boost@@QAEXXZ 00414e90 f i cinder:AppImplMsw.obj
 0001:00013e90       ?disconnect_all_slots@?$signal1_impl@XAAVFileDropEvent@app@cinder@@U?$EventCombiner@VFileDropEvent@app@cinder@@@23@HU?$less@H@std@@V?$function@$$A6AXAAVFileDropEvent@app@cinder@@@Z@boost@@V?$function@$$A6AXABVconnection@signals2@boost@@AAVFileDropEvent@app@cinder@@@Z@8@Vmutex@signals2@8@@detail@signals2@boost@@QAEXXZ 00414e90 f i cinder:AppImplMsw.obj
 0001:00013e90       ?disconnect_all_slots@?$signal1_impl@XAAVTouchEvent@app@cinder@@U?$EventCombiner@VTouchEvent@app@cinder@@@23@HU?$less@H@std@@V?$function@$$A6AXAAVTouchEvent@app@cinder@@@Z@boost@@V?$function@$$A6AXABVconnection@signals2@boost@@AAVTouchEvent@app@cinder@@@Z@8@Vmutex@signals2@8@@detail@signals2@boost@@QAEXXZ 00414e90 f i cinder:AppImplMsw.obj
 0001:00013e90       ?disconnect_all_slots@?$signal0_impl@_NUBooleanAndEventCombiner@app@cinder@@HU?$less@H@std@@V?$function@$$A6A_NXZ@boost@@V?$function@$$A6A_NABVconnection@signals2@boost@@@Z@7@Vmutex@signals2@7@@detail@signals2@boost@@QAEXXZ 00414e90 f i cinder:AppBasic.obj
 0001:00013f40       ?do_init@win_mutex@detail@asio@boost@@AAEHXZ 00414f40 f i cinder:App.obj
 0001:00014000       ?do_narrow@?$ctype@D@std@@MBEDDD@Z 00415000 f i cinder:App.obj
 0001:00014010       ?do_narrow@?$ctype@D@std@@MBEPBDPBD0DPAD@Z 00415010 f i cinder:App.obj
 0001:00014030       ?do_one@win_iocp_io_service@detail@asio@boost@@AAEI_NAAVerror_code@system@4@@Z 00415030 f i cinder:App.obj
 0001:000142c0       ?do_throw_error@detail@asio@boost@@YAXABVerror_code@system@3@@Z 004152c0 f i cinder:App.obj
 0001:00014340       ?do_throw_error@detail@asio@boost@@YAXABVerror_code@system@3@PBD@Z 00415340 f i cinder:App.obj
 0001:000143c0       ?do_tolower@?$ctype@D@std@@MBEDD@Z 004153c0 f i cinder:App.obj
 0001:000143e0       ?do_tolower@?$ctype@D@std@@MBEPBDPADPBD@Z 004153e0 f i cinder:App.obj
 0001:00014410       ?do_toupper@?$ctype@D@std@@MBEDD@Z 00415410 f i cinder:App.obj
 0001:00014430       ?do_toupper@?$ctype@D@std@@MBEPBDPADPBD@Z 00415430 f i cinder:App.obj
 0001:00014460       ?do_widen@?$ctype@D@std@@MBEDD@Z 00415460 f i cinder:App.obj
 0001:00014470       ?do_widen@?$ctype@D@std@@MBEPBDPBD0PAD@Z 00415470 f i cinder:App.obj
 0001:00014490       ?emitShutdown@App@app@cinder@@QAEXXZ 00415490 f   cinder:App.obj
 0001:000144b0       ?executeLaunch@App@app@cinder@@KAXPAV123@V?$shared_ptr@VRenderer@app@cinder@@@std@@PBDHQBQAD@Z 004154b0 f   cinder:App.obj
 0001:00014590       ?findAssetPath@App@app@cinder@@AAE?AVpath@filesystem@boost@@ABV456@@Z 00415590 f   cinder:App.obj
 0001:00014690       ?findSharedRenderer@App@app@cinder@@QBE?AV?$shared_ptr@VRenderer@app@cinder@@@std@@V45@@Z 00415690 f   cinder:App.obj
 0001:000148b0       ?getloc@ios_base@std@@QBE?AVlocale@2@XZ 004158b0 f i cinder:App.obj
 0001:000148e0       ?init@?$basic_ios@DU?$char_traits@D@std@@@std@@IAEXPAV?$basic_streambuf@DU?$char_traits@D@std@@@2@_N@Z 004158e0 f i cinder:App.obj
 0001:00014a00       ?join@win_thread@detail@asio@boost@@QAEXXZ 00415a00 f i cinder:App.obj
 0001:00014a70       ?loadAsset@App@app@cinder@@QAE?AV?$shared_ptr@VDataSource@cinder@@@std@@ABVpath@filesystem@boost@@@Z 00415a70 f   cinder:App.obj
 0001:00014c20       ?message@error_code@system@boost@@QBE?AV?$basic_string@DU?$char_traits@D@std@@V?$allocator@D@2@@std@@XZ 00415c20 f i cinder:App.obj
 0001:00014c50       ?message@misc_category@detail@error@asio@boost@@UBE?AV?$basic_string@DU?$char_traits@D@std@@V?$allocator@D@2@@std@@H@Z 00415c50 f i cinder:App.obj
 0001:00014d00       ?name@misc_category@detail@error@asio@boost@@UBEPBDXZ 00415d00 f i cinder:App.obj
 0001:00014d10       ?overflow@?$basic_stringbuf@DU?$char_traits@D@std@@V?$allocator@D@2@@std@@MAEHH@Z 00415d10 f i cinder:App.obj
 0001:00014ef0       ?pbackfail@?$basic_streambuf@DU?$char_traits@D@std@@@std@@MAEHH@Z 00415ef0 f i cinder:App.obj
 0001:00014ef0       ?overflow@?$basic_streambuf@DU?$char_traits@D@std@@@std@@MAEHH@Z 00415ef0 f i cinder:App.obj
 0001:00014f00       ?pbackfail@?$basic_stringbuf@DU?$char_traits@D@std@@V?$allocator@D@2@@std@@MAEHH@Z 00415f00 f i cinder:App.obj
 0001:00014f60       ?poll@win_iocp_io_service@detail@asio@boost@@QAEIAAVerror_code@system@4@@Z 00415f60 f i cinder:App.obj
 0001:00015060       ?post_deferred_completions@win_iocp_io_service@detail@asio@boost@@QAEXAAV?$op_queue@Vwin_iocp_operation@detail@asio@boost@@@234@@Z 00416060 f i cinder:App.obj
 0001:00015110       ?prepareAssetLoading@App@app@cinder@@AAEXXZ 00416110 f   cinder:App.obj
 0001:00015320       ?privateSetup__@App@app@cinder@@UAEXXZ 00416320 f   cinder:App.obj
 0001:00015360       ?privateUpdate__@App@app@cinder@@UAEXXZ 00416360 f   cinder:App.obj
 0001:00015440       ?push_back@?$vector@Vpath@filesystem@boost@@V?$allocator@Vpath@filesystem@boost@@@std@@@std@@QAEX$$QAVpath@filesystem@boost@@@Z 00416440 f i cinder:AppImplMsw.obj
 0001:00015440       ?push_back@?$vector@Vpath@filesystem@boost@@V?$allocator@Vpath@filesystem@boost@@@std@@@std@@QAEXABVpath@filesystem@boost@@@Z 00416440 f i cinder:App.obj
 0001:00015522       ?rethrow@?$clone_impl@U?$error_info_injector@Vsystem_error@system@boost@@@exception_detail@boost@@@exception_detail@boost@@$0PPPPPPPM@A@BEXXZ 00416522 f i cinder:App.obj
 0001:00015530       ?rethrow@?$clone_impl@U?$error_info_injector@Vsystem_error@system@boost@@@exception_detail@boost@@@exception_detail@boost@@EBEXXZ 00416530 f i cinder:App.obj
 0001:000155d0       ?seekoff@?$basic_streambuf@DU?$char_traits@D@std@@@std@@MAE?AV?$fpos@H@2@_JHH@Z 004165d0 f i cinder:App.obj
 0001:00015600       ?seekoff@?$basic_stringbuf@DU?$char_traits@D@std@@V?$allocator@D@2@@std@@MAE?AV?$fpos@H@2@_JHH@Z 00416600 f i cinder:App.obj
 0001:000157d0       ?seekpos@?$basic_streambuf@DU?$char_traits@D@std@@@std@@MAE?AV?$fpos@H@2@V32@H@Z 004167d0 f i cinder:App.obj
 0001:00015800       ?seekpos@?$basic_stringbuf@DU?$char_traits@D@std@@V?$allocator@D@2@@std@@MAE?AV?$fpos@H@2@V32@H@Z 00416800 f i cinder:App.obj
 0001:00015930       ?setFrameRate@Settings@App@app@cinder@@QAEXM@Z 00416930 f   cinder:App.obj
 0001:00015950       ?setbuf@?$basic_streambuf@DU?$char_traits@D@std@@@std@@MAEPAV12@PAD_J@Z 00416950 f i cinder:App.obj
 0001:00015960       ?showmanyc@?$basic_streambuf@DU?$char_traits@D@std@@@std@@MAE_JXZ 00416960 f i cinder:App.obj
 0001:00015970       ?shutdown_service@win_iocp_io_service@detail@asio@boost@@UAEXXZ 00416970 f i cinder:App.obj
 0001:00015b40       ?stop@win_iocp_io_service@detail@asio@boost@@QAEXXZ 00416b40 f i cinder:App.obj
 0001:00015bb0       ?str@?$basic_stringbuf@DU?$char_traits@D@std@@V?$allocator@D@2@@std@@QBE?AV?$basic_string@DU?$char_traits@D@std@@V?$allocator@D@2@@2@XZ 00416bb0 f i cinder:App.obj
 0001:00015cc0       ?string@path@filesystem@boost@@QBE?BV?$basic_string@DU?$char_traits@D@std@@V?$allocator@D@2@@std@@ABV?$codecvt@_WDH@5@@Z 00416cc0 f i cinder:App.obj
 0001:00015d60       ?string@path@filesystem@boost@@QBE?BV?$basic_string@DU?$char_traits@D@std@@V?$allocator@D@2@@std@@XZ 00416d60 f i cinder:App.obj
 0001:00015d90       ?sync@?$basic_debugbuf@DU?$char_traits@D@std@@@msw@cinder@@MAEHXZ 00416d90 f i cinder:App.obj
 0001:00015e50       ?uflow@?$basic_streambuf@DU?$char_traits@D@std@@@std@@MAEHXZ 00416e50 f i cinder:App.obj
 0001:00015e80       ?underflow@?$basic_streambuf@DU?$char_traits@D@std@@@std@@MAEHXZ 00416e80 f i cinder:App.obj
 0001:00015e90       ?underflow@?$basic_stringbuf@DU?$char_traits@D@std@@V?$allocator@D@2@@std@@MAEHXZ 00416e90 f i cinder:App.obj
 0001:00015ef0       ?update_timeout@win_iocp_io_service@detail@asio@boost@@AAEXXZ 00416ef0 f i cinder:App.obj
 0001:00015f70       ?what@system_error@system@boost@@UBEPBDXZ 00416f70 f i cinder:App.obj
 0001:00016060       ?xsgetn@?$basic_streambuf@DU?$char_traits@D@std@@@std@@MAE_JPAD_J@Z 00417060 f i cinder:App.obj
 0001:00016150       ?xsputn@?$basic_streambuf@DU?$char_traits@D@std@@@std@@MAE_JPBD_J@Z 00417150 f i cinder:App.obj
 0001:00016240       ??$_Find_elem@D@std@@YAIPADD@Z 00417240 f i cinder:ObjLoader.obj
 0001:00016270       ??$_Getloctxt@DV?$istreambuf_iterator@DU?$char_traits@D@std@@@std@@@std@@YAHAAV?$istreambuf_iterator@DU?$char_traits@D@std@@@0@0IPBD@Z 00417270 f i cinder:ObjLoader.obj
 0001:000164d0       ??$_Maklocstr@D@std@@YAPADPBDPADABU_Cvtvec@@@Z 004174d0 f i cinder:ObjLoader.obj
 0001:00016510       ??$use_facet@V?$num_get@DV?$istreambuf_iterator@DU?$char_traits@D@std@@@std@@@std@@@std@@YAABV?$num_get@DV?$istreambuf_iterator@DU?$char_traits@D@std@@@std@@@0@ABVlocale@0@@Z 00417510 f i cinder:ObjLoader.obj
 0001:00016630       ??$use_facet@V?$num_put@DV?$ostreambuf_iterator@DU?$char_traits@D@std@@@std@@@std@@@std@@YAABV?$num_put@DV?$ostreambuf_iterator@DU?$char_traits@D@std@@@std@@@0@ABVlocale@0@@Z 00417630 f i cinder:ObjLoader.obj
 0001:00016750       ??$use_facet@V?$numpunct@D@std@@@std@@YAABV?$numpunct@D@0@ABVlocale@0@@Z 00417750 f i cinder:ObjLoader.obj
 0001:00016870       ??4?$basic_string@DU?$char_traits@D@std@@V?$allocator@D@2@@std@@QAEAAV01@$$QAV01@@Z 00417870 f i cinder:ObjLoader.obj
 0001:000168b0       ??4?$ostreambuf_iterator@DU?$char_traits@D@std@@@std@@QAEAAV01@D@Z 004178b0 f i cinder:ObjLoader.obj
 0001:00016900       ??D?$istreambuf_iterator@DU?$char_traits@D@std@@@std@@QBEABDXZ 00417900 f i cinder:ObjLoader.obj
 0001:00016950       ??E?$istreambuf_iterator@DU?$char_traits@D@std@@@std@@QAEAAV01@XZ 00417950 f i cinder:ObjLoader.obj
 0001:000169a0       ??_E?$num_get@DV?$istreambuf_iterator@DU?$char_traits@D@std@@@std@@@std@@MAEPAXI@Z 004179a0 f i cinder:ObjLoader.obj
 0001:000169a0       ??_G?$num_put@DV?$ostreambuf_iterator@DU?$char_traits@D@std@@@std@@@std@@MAEPAXI@Z 004179a0 f i cinder:ObjLoader.obj
 0001:000169a0       ??_E_Facet_base@std@@UAEPAXI@Z 004179a0 f i cinder:App.obj
 0001:000169a0       ??_G_Facet_base@std@@UAEPAXI@Z 004179a0 f i cinder:App.obj
 0001:000169a0       ??_E?$num_put@DV?$ostreambuf_iterator@DU?$char_traits@D@std@@@std@@@std@@MAEPAXI@Z 004179a0 f i cinder:ObjLoader.obj
 0001:000169a0       ??_G?$num_get@DV?$istreambuf_iterator@DU?$char_traits@D@std@@@std@@@std@@MAEPAXI@Z 004179a0 f i cinder:ObjLoader.obj
 0001:000169d0       ??_G?$numpunct@D@std@@MAEPAXI@Z 004179d0 f i cinder:ObjLoader.obj
 0001:000169d0       ??_E?$numpunct@D@std@@MAEPAXI@Z 004179d0 f i cinder:ObjLoader.obj
 0001:00016a20       ?_Chassign@?$basic_string@DU?$char_traits@D@std@@V?$allocator@D@2@@std@@QAEXIID@Z 00417a20 f i cinder:ObjLoader.obj
 0001:00016a70       ?_Ffmt@?$num_put@DV?$ostreambuf_iterator@DU?$char_traits@D@std@@@std@@@std@@ABAPADPADDH@Z 00417a70 f i cinder:ObjLoader.obj
 0001:00016b30       ?_Fput@?$num_put@DV?$ostreambuf_iterator@DU?$char_traits@D@std@@@std@@@std@@ABA?AV?$ostreambuf_iterator@DU?$char_traits@D@std@@@2@V32@AAVios_base@2@DPBDIIII@Z 00417b30 f i cinder:ObjLoader.obj
 0001:00016f30       ?_Getcat@?$num_get@DV?$istreambuf_iterator@DU?$char_traits@D@std@@@std@@@std@@SAIPAPBVfacet@locale@2@PBV42@@Z 00417f30 f i cinder:ObjLoader.obj
 0001:00016fe0       ?_Getcat@?$num_put@DV?$ostreambuf_iterator@DU?$char_traits@D@std@@@std@@@std@@SAIPAPBVfacet@locale@2@PBV42@@Z 00417fe0 f i cinder:ObjLoader.obj
 0001:00017090       ?_Getcat@?$numpunct@D@std@@SAIPAPBVfacet@locale@2@PBV42@@Z 00418090 f i cinder:ObjLoader.obj
 0001:00017150       ?_Getffld@?$num_get@DV?$istreambuf_iterator@DU?$char_traits@D@std@@@std@@@std@@ABAHPADAAV?$istreambuf_iterator@DU?$char_traits@D@std@@@2@1AAVios_base@2@PAH@Z 00418150 f i cinder:ObjLoader.obj
